

Microchip MPLAB XC8 Assembler V2.32 build 20210201212658 
                                                                                               Mon Aug 30 17:13:29 2021

Microchip MPLAB XC8 C Compiler v2.32 (Free license) build 20210201212658 Og1 
     1                           	processor	16F887
     2                           	pagewidth 120
     3                           	opt	flic
     4                           	psect	cinit,global,class=CODE,merge=1,delta=2
     5                           	psect	bssCOMMON,global,class=COMMON,space=1,delta=1,noexec
     6                           	psect	bssBANK0,global,class=BANK0,space=1,delta=1,noexec
     7                           	psect	cstackCOMMON,global,class=COMMON,space=1,delta=1,noexec
     8                           	psect	cstackBANK0,global,class=BANK0,space=1,delta=1,noexec
     9                           	psect	maintext,global,class=CODE,split=1,delta=2
    10                           	psect	text1,local,class=CODE,merge=1,delta=2
    11                           	psect	text2,local,class=CODE,merge=1,delta=2
    12                           	psect	text3,local,class=CODE,merge=1,delta=2,group=1
    13                           	psect	text4,local,class=CODE,merge=1,delta=2,group=1
    14                           	psect	text5,local,class=CODE,merge=1,delta=2,group=1
    15                           	psect	text6,local,class=CODE,merge=1,delta=2
    16                           	psect	text7,local,class=CODE,merge=1,delta=2
    17                           	psect	text8,local,class=CODE,merge=1,delta=2
    18                           	psect	text9,local,class=CODE,merge=1,delta=2
    19                           	psect	text10,local,class=CODE,merge=1,delta=2
    20                           	psect	intentry,global,class=CODE,delta=2
    21                           	psect	config,global,abs,ovrld,class=CONFIG,space=4,delta=2,noexec
    22                           	dabs	1,0x7E,2
    23  0000                     
    24                           ; Version 2.20
    25                           ; Generated 12/02/2020 GMT
    26                           ; 
    27                           ; Copyright © 2020, Microchip Technology Inc. and its subsidiaries ("Microchip")
    28                           ; All rights reserved.
    29                           ; 
    30                           ; This software is developed by Microchip Technology Inc. and its subsidiaries ("Microch
      +                          ip").
    31                           ; 
    32                           ; Redistribution and use in source and binary forms, with or without modification, are
    33                           ; permitted provided that the following conditions are met:
    34                           ; 
    35                           ;     1. Redistributions of source code must retain the above copyright notice, this lis
      +                          t of
    36                           ;        conditions and the following disclaimer.
    37                           ; 
    38                           ;     2. Redistributions in binary form must reproduce the above copyright notice, this 
      +                          list
    39                           ;        of conditions and the following disclaimer in the documentation and/or other
    40                           ;        materials provided with the distribution.
    41                           ; 
    42                           ;     3. Microchip's name may not be used to endorse or promote products derived from th
      +                          is
    43                           ;        software without specific prior written permission.
    44                           ; 
    45                           ; THIS SOFTWARE IS PROVIDED BY MICROCHIP "AS IS" AND ANY EXPRESS OR IMPLIED WARRANTIES,
    46                           ; INCLUDING, BUT NOT LIMITED TO, THE IMPLIED WARRANTIES OF MERCHANTABILITY AND FITNESS F
      +                          OR
    47                           ; PURPOSE ARE DISCLAIMED.  IN NO EVENT SHALL MICROCHIP BE LIABLE FOR ANY DIRECT, INDIREC
      +                          T,
    48                           ; INCIDENTAL, SPECIAL, EXEMPLARY, OR CONSEQUENTIAL DAMAGES (INCLUDING BUT NOT LIMITED TO
    49                           ; PROCUREMENT OF SUBSTITUTE GOODS OR SERVICES; LOSS OF USE, DATA OR PROFITS; OR BUSINESS
    50                           ; INTERRUPTION) HOWSOEVER CAUSED AND ON ANY THEORY OF LIABILITY, WHETHER IN CONTRACT, ST
      +                          RICT
    51                           ; LIABILITY, OR TORT (INCLUDING NEGLIGENCE OR OTHERWISE) ARISING IN ANY WAY OUT OF THE U
      +                          SE OF
    52                           ; THIS SOFTWARE, EVEN IF ADVISED OF THE POSSIBILITY OF SUCH DAMAGE.
    53                           ; 
    54                           ; 
    55                           ; Code-generator required, PIC16F887 Definitions
    56                           ; 
    57                           ; SFR Addresses
    58  0000                     	;# 
    59  0001                     	;# 
    60  0002                     	;# 
    61  0003                     	;# 
    62  0004                     	;# 
    63  0005                     	;# 
    64  0006                     	;# 
    65  0007                     	;# 
    66  0008                     	;# 
    67  0009                     	;# 
    68  000A                     	;# 
    69  000B                     	;# 
    70  000C                     	;# 
    71  000D                     	;# 
    72  000E                     	;# 
    73  000E                     	;# 
    74  000F                     	;# 
    75  0010                     	;# 
    76  0011                     	;# 
    77  0012                     	;# 
    78  0013                     	;# 
    79  0014                     	;# 
    80  0015                     	;# 
    81  0015                     	;# 
    82  0016                     	;# 
    83  0017                     	;# 
    84  0018                     	;# 
    85  0019                     	;# 
    86  001A                     	;# 
    87  001B                     	;# 
    88  001B                     	;# 
    89  001C                     	;# 
    90  001D                     	;# 
    91  001E                     	;# 
    92  001F                     	;# 
    93  0081                     	;# 
    94  0085                     	;# 
    95  0086                     	;# 
    96  0087                     	;# 
    97  0088                     	;# 
    98  0089                     	;# 
    99  008C                     	;# 
   100  008D                     	;# 
   101  008E                     	;# 
   102  008F                     	;# 
   103  0090                     	;# 
   104  0091                     	;# 
   105  0092                     	;# 
   106  0093                     	;# 
   107  0093                     	;# 
   108  0093                     	;# 
   109  0094                     	;# 
   110  0095                     	;# 
   111  0096                     	;# 
   112  0097                     	;# 
   113  0098                     	;# 
   114  0099                     	;# 
   115  009A                     	;# 
   116  009B                     	;# 
   117  009C                     	;# 
   118  009D                     	;# 
   119  009E                     	;# 
   120  009F                     	;# 
   121  0105                     	;# 
   122  0107                     	;# 
   123  0108                     	;# 
   124  0109                     	;# 
   125  010C                     	;# 
   126  010C                     	;# 
   127  010D                     	;# 
   128  010E                     	;# 
   129  010F                     	;# 
   130  0185                     	;# 
   131  0187                     	;# 
   132  0188                     	;# 
   133  0189                     	;# 
   134  018C                     	;# 
   135  018D                     	;# 
   136  0000                     	;# 
   137  0001                     	;# 
   138  0002                     	;# 
   139  0003                     	;# 
   140  0004                     	;# 
   141  0005                     	;# 
   142  0006                     	;# 
   143  0007                     	;# 
   144  0008                     	;# 
   145  0009                     	;# 
   146  000A                     	;# 
   147  000B                     	;# 
   148  000C                     	;# 
   149  000D                     	;# 
   150  000E                     	;# 
   151  000E                     	;# 
   152  000F                     	;# 
   153  0010                     	;# 
   154  0011                     	;# 
   155  0012                     	;# 
   156  0013                     	;# 
   157  0014                     	;# 
   158  0015                     	;# 
   159  0015                     	;# 
   160  0016                     	;# 
   161  0017                     	;# 
   162  0018                     	;# 
   163  0019                     	;# 
   164  001A                     	;# 
   165  001B                     	;# 
   166  001B                     	;# 
   167  001C                     	;# 
   168  001D                     	;# 
   169  001E                     	;# 
   170  001F                     	;# 
   171  0081                     	;# 
   172  0085                     	;# 
   173  0086                     	;# 
   174  0087                     	;# 
   175  0088                     	;# 
   176  0089                     	;# 
   177  008C                     	;# 
   178  008D                     	;# 
   179  008E                     	;# 
   180  008F                     	;# 
   181  0090                     	;# 
   182  0091                     	;# 
   183  0092                     	;# 
   184  0093                     	;# 
   185  0093                     	;# 
   186  0093                     	;# 
   187  0094                     	;# 
   188  0095                     	;# 
   189  0096                     	;# 
   190  0097                     	;# 
   191  0098                     	;# 
   192  0099                     	;# 
   193  009A                     	;# 
   194  009B                     	;# 
   195  009C                     	;# 
   196  009D                     	;# 
   197  009E                     	;# 
   198  009F                     	;# 
   199  0105                     	;# 
   200  0107                     	;# 
   201  0108                     	;# 
   202  0109                     	;# 
   203  010C                     	;# 
   204  010C                     	;# 
   205  010D                     	;# 
   206  010E                     	;# 
   207  010F                     	;# 
   208  0185                     	;# 
   209  0187                     	;# 
   210  0188                     	;# 
   211  0189                     	;# 
   212  018C                     	;# 
   213  018D                     	;# 
   214  0000                     	;# 
   215  0001                     	;# 
   216  0002                     	;# 
   217  0003                     	;# 
   218  0004                     	;# 
   219  0005                     	;# 
   220  0006                     	;# 
   221  0007                     	;# 
   222  0008                     	;# 
   223  0009                     	;# 
   224  000A                     	;# 
   225  000B                     	;# 
   226  000C                     	;# 
   227  000D                     	;# 
   228  000E                     	;# 
   229  000E                     	;# 
   230  000F                     	;# 
   231  0010                     	;# 
   232  0011                     	;# 
   233  0012                     	;# 
   234  0013                     	;# 
   235  0014                     	;# 
   236  0015                     	;# 
   237  0015                     	;# 
   238  0016                     	;# 
   239  0017                     	;# 
   240  0018                     	;# 
   241  0019                     	;# 
   242  001A                     	;# 
   243  001B                     	;# 
   244  001B                     	;# 
   245  001C                     	;# 
   246  001D                     	;# 
   247  001E                     	;# 
   248  001F                     	;# 
   249  0081                     	;# 
   250  0085                     	;# 
   251  0086                     	;# 
   252  0087                     	;# 
   253  0088                     	;# 
   254  0089                     	;# 
   255  008C                     	;# 
   256  008D                     	;# 
   257  008E                     	;# 
   258  008F                     	;# 
   259  0090                     	;# 
   260  0091                     	;# 
   261  0092                     	;# 
   262  0093                     	;# 
   263  0093                     	;# 
   264  0093                     	;# 
   265  0094                     	;# 
   266  0095                     	;# 
   267  0096                     	;# 
   268  0097                     	;# 
   269  0098                     	;# 
   270  0099                     	;# 
   271  009A                     	;# 
   272  009B                     	;# 
   273  009C                     	;# 
   274  009D                     	;# 
   275  009E                     	;# 
   276  009F                     	;# 
   277  0105                     	;# 
   278  0107                     	;# 
   279  0108                     	;# 
   280  0109                     	;# 
   281  010C                     	;# 
   282  010C                     	;# 
   283  010D                     	;# 
   284  010E                     	;# 
   285  010F                     	;# 
   286  0185                     	;# 
   287  0187                     	;# 
   288  0188                     	;# 
   289  0189                     	;# 
   290  018C                     	;# 
   291  018D                     	;# 
   292  0000                     	;# 
   293  0001                     	;# 
   294  0002                     	;# 
   295  0003                     	;# 
   296  0004                     	;# 
   297  0005                     	;# 
   298  0006                     	;# 
   299  0007                     	;# 
   300  0008                     	;# 
   301  0009                     	;# 
   302  000A                     	;# 
   303  000B                     	;# 
   304  000C                     	;# 
   305  000D                     	;# 
   306  000E                     	;# 
   307  000E                     	;# 
   308  000F                     	;# 
   309  0010                     	;# 
   310  0011                     	;# 
   311  0012                     	;# 
   312  0013                     	;# 
   313  0014                     	;# 
   314  0015                     	;# 
   315  0015                     	;# 
   316  0016                     	;# 
   317  0017                     	;# 
   318  0018                     	;# 
   319  0019                     	;# 
   320  001A                     	;# 
   321  001B                     	;# 
   322  001B                     	;# 
   323  001C                     	;# 
   324  001D                     	;# 
   325  001E                     	;# 
   326  001F                     	;# 
   327  0081                     	;# 
   328  0085                     	;# 
   329  0086                     	;# 
   330  0087                     	;# 
   331  0088                     	;# 
   332  0089                     	;# 
   333  008C                     	;# 
   334  008D                     	;# 
   335  008E                     	;# 
   336  008F                     	;# 
   337  0090                     	;# 
   338  0091                     	;# 
   339  0092                     	;# 
   340  0093                     	;# 
   341  0093                     	;# 
   342  0093                     	;# 
   343  0094                     	;# 
   344  0095                     	;# 
   345  0096                     	;# 
   346  0097                     	;# 
   347  0098                     	;# 
   348  0099                     	;# 
   349  009A                     	;# 
   350  009B                     	;# 
   351  009C                     	;# 
   352  009D                     	;# 
   353  009E                     	;# 
   354  009F                     	;# 
   355  0105                     	;# 
   356  0107                     	;# 
   357  0108                     	;# 
   358  0109                     	;# 
   359  010C                     	;# 
   360  010C                     	;# 
   361  010D                     	;# 
   362  010E                     	;# 
   363  010F                     	;# 
   364  0185                     	;# 
   365  0187                     	;# 
   366  0188                     	;# 
   367  0189                     	;# 
   368  018C                     	;# 
   369  018D                     	;# 
   370  0000                     	;# 
   371  0001                     	;# 
   372  0002                     	;# 
   373  0003                     	;# 
   374  0004                     	;# 
   375  0005                     	;# 
   376  0006                     	;# 
   377  0007                     	;# 
   378  0008                     	;# 
   379  0009                     	;# 
   380  000A                     	;# 
   381  000B                     	;# 
   382  000C                     	;# 
   383  000D                     	;# 
   384  000E                     	;# 
   385  000E                     	;# 
   386  000F                     	;# 
   387  0010                     	;# 
   388  0011                     	;# 
   389  0012                     	;# 
   390  0013                     	;# 
   391  0014                     	;# 
   392  0015                     	;# 
   393  0015                     	;# 
   394  0016                     	;# 
   395  0017                     	;# 
   396  0018                     	;# 
   397  0019                     	;# 
   398  001A                     	;# 
   399  001B                     	;# 
   400  001B                     	;# 
   401  001C                     	;# 
   402  001D                     	;# 
   403  001E                     	;# 
   404  001F                     	;# 
   405  0081                     	;# 
   406  0085                     	;# 
   407  0086                     	;# 
   408  0087                     	;# 
   409  0088                     	;# 
   410  0089                     	;# 
   411  008C                     	;# 
   412  008D                     	;# 
   413  008E                     	;# 
   414  008F                     	;# 
   415  0090                     	;# 
   416  0091                     	;# 
   417  0092                     	;# 
   418  0093                     	;# 
   419  0093                     	;# 
   420  0093                     	;# 
   421  0094                     	;# 
   422  0095                     	;# 
   423  0096                     	;# 
   424  0097                     	;# 
   425  0098                     	;# 
   426  0099                     	;# 
   427  009A                     	;# 
   428  009B                     	;# 
   429  009C                     	;# 
   430  009D                     	;# 
   431  009E                     	;# 
   432  009F                     	;# 
   433  0105                     	;# 
   434  0107                     	;# 
   435  0108                     	;# 
   436  0109                     	;# 
   437  010C                     	;# 
   438  010C                     	;# 
   439  010D                     	;# 
   440  010E                     	;# 
   441  010F                     	;# 
   442  0185                     	;# 
   443  0187                     	;# 
   444  0188                     	;# 
   445  0189                     	;# 
   446  018C                     	;# 
   447  018D                     	;# 
   448  0000                     	;# 
   449  0001                     	;# 
   450  0002                     	;# 
   451  0003                     	;# 
   452  0004                     	;# 
   453  0005                     	;# 
   454  0006                     	;# 
   455  0007                     	;# 
   456  0008                     	;# 
   457  0009                     	;# 
   458  000A                     	;# 
   459  000B                     	;# 
   460  000C                     	;# 
   461  000D                     	;# 
   462  000E                     	;# 
   463  000E                     	;# 
   464  000F                     	;# 
   465  0010                     	;# 
   466  0011                     	;# 
   467  0012                     	;# 
   468  0013                     	;# 
   469  0014                     	;# 
   470  0015                     	;# 
   471  0015                     	;# 
   472  0016                     	;# 
   473  0017                     	;# 
   474  0018                     	;# 
   475  0019                     	;# 
   476  001A                     	;# 
   477  001B                     	;# 
   478  001B                     	;# 
   479  001C                     	;# 
   480  001D                     	;# 
   481  001E                     	;# 
   482  001F                     	;# 
   483  0081                     	;# 
   484  0085                     	;# 
   485  0086                     	;# 
   486  0087                     	;# 
   487  0088                     	;# 
   488  0089                     	;# 
   489  008C                     	;# 
   490  008D                     	;# 
   491  008E                     	;# 
   492  008F                     	;# 
   493  0090                     	;# 
   494  0091                     	;# 
   495  0092                     	;# 
   496  0093                     	;# 
   497  0093                     	;# 
   498  0093                     	;# 
   499  0094                     	;# 
   500  0095                     	;# 
   501  0096                     	;# 
   502  0097                     	;# 
   503  0098                     	;# 
   504  0099                     	;# 
   505  009A                     	;# 
   506  009B                     	;# 
   507  009C                     	;# 
   508  009D                     	;# 
   509  009E                     	;# 
   510  009F                     	;# 
   511  0105                     	;# 
   512  0107                     	;# 
   513  0108                     	;# 
   514  0109                     	;# 
   515  010C                     	;# 
   516  010C                     	;# 
   517  010D                     	;# 
   518  010E                     	;# 
   519  010F                     	;# 
   520  0185                     	;# 
   521  0187                     	;# 
   522  0188                     	;# 
   523  0189                     	;# 
   524  018C                     	;# 
   525  018D                     	;# 
   526  0018                     _RCSTAbits	set	24
   527  0014                     _SSPCON	set	20
   528  001F                     _ADCON0bits	set	31
   529  0006                     _PORTBbits	set	6
   530  0015                     _CCPR1L	set	21
   531  0017                     _CCP1CONbits	set	23
   532  0009                     _PORTE	set	9
   533  0008                     _PORTD	set	8
   534  0007                     _PORTC	set	7
   535  0006                     _PORTB	set	6
   536  0013                     _SSPBUF	set	19
   537  0014                     _SSPCONbits	set	20
   538  000C                     _PIR1bits	set	12
   539  0001                     _TMR0	set	1
   540  0009                     _PORTEbits	set	9
   541  000B                     _INTCONbits	set	11
   542  0063                     _SSPIF	set	99
   543  005E                     _PEIE	set	94
   544  005F                     _GIE	set	95
   545  009F                     _ADCON1bits	set	159
   546  0099                     _SPBRG	set	153
   547  009A                     _SPBRGH	set	154
   548  0098                     _TXSTAbits	set	152
   549  008F                     _OSCCONbits	set	143
   550  0091                     _SSPCON2bits	set	145
   551  0094                     _SSPSTAT	set	148
   552  0093                     _SSPADD	set	147
   553  0091                     _SSPCON2	set	145
   554  009E                     _ADRESL	set	158
   555  0096                     _IOCBbits	set	150
   556  0095                     _WPUBbits	set	149
   557  0081                     _OPTION_REGbits	set	129
   558  0089                     _TRISEbits	set	137
   559  0088                     _TRISD	set	136
   560  0087                     _TRISCbits	set	135
   561  0086                     _TRISBbits	set	134
   562  0088                     _TRISDbits	set	136
   563  0094                     _SSPSTATbits	set	148
   564  0463                     _SSPIE	set	1123
   565  043C                     _TRISC4	set	1084
   566  043B                     _TRISC3	set	1083
   567  04A0                     _BF	set	1184
   568  0187                     _BAUDCTLbits	set	391
   569  0188                     _ANSELbits	set	392
   570  0189                     _ANSELH	set	393
   571  0188                     _ANSEL	set	392
   572                           
   573                           	psect	cinit
   574  000F                     start_initialization:	
   575                           ; #config settings
   576                           
   577  000F                     __initialization:
   578                           
   579                           ; Clear objects allocated to COMMON
   580  000F  01F6               	clrf	__pbssCOMMON& (0+127)
   581  0010  01F7               	clrf	(__pbssCOMMON+1)& (0+127)
   582  0011  01F8               	clrf	(__pbssCOMMON+2)& (0+127)
   583  0012  01F9               	clrf	(__pbssCOMMON+3)& (0+127)
   584                           
   585                           ; Clear objects allocated to BANK0
   586  0013  1283               	bcf	3,5	;RP0=0, select bank0
   587  0014  1303               	bcf	3,6	;RP1=0, select bank0
   588  0015  01D6               	clrf	__pbssBANK0& (0+127)
   589  0016  01D7               	clrf	(__pbssBANK0+1)& (0+127)
   590  0017  01D8               	clrf	(__pbssBANK0+2)& (0+127)
   591  0018  01D9               	clrf	(__pbssBANK0+3)& (0+127)
   592  0019  01DA               	clrf	(__pbssBANK0+4)& (0+127)
   593  001A  01DB               	clrf	(__pbssBANK0+5)& (0+127)
   594  001B                     end_of_initialization:	
   595                           ;End of C runtime variable initialization code
   596                           
   597  001B                     __end_of__initialization:
   598  001B  0183               	clrf	3
   599  001C  120A  118A  2D2B   	ljmp	_main	;jump to C main() function
   600                           
   601                           	psect	bssCOMMON
   602  0076                     __pbssCOMMON:
   603  0076                     _cuenta_total:
   604  0076                     	ds	1
   605  0077                     _motor_recibido:
   606  0077                     	ds	1
   607  0078                     _temperatura_aprox:
   608  0078                     	ds	1
   609  0079                     _conversion1:
   610  0079                     	ds	1
   611                           
   612                           	psect	bssBANK0
   613  0056                     __pbssBANK0:
   614  0056                     _cuenta1:
   615  0056                     	ds	1
   616  0057                     _BASURA:
   617  0057                     	ds	1
   618  0058                     _z:
   619  0058                     	ds	1
   620  0059                     _conversion_total:
   621  0059                     	ds	1
   622  005A                     _botonazo:
   623  005A                     	ds	1
   624  005B                     _antirrebote:
   625  005B                     	ds	1
   626                           
   627                           	psect	cstackCOMMON
   628  0070                     __pcstackCOMMON:
   629  0070                     ?_setup:
   630  0070                     ?_toggle_adc:	
   631                           ; 1 bytes @ 0x0
   632                           
   633  0070                     ?_temp:	
   634                           ; 1 bytes @ 0x0
   635                           
   636  0070                     ?_osc_config:	
   637                           ; 1 bytes @ 0x0
   638                           
   639  0070                     ?_ADC_config:	
   640                           ; 1 bytes @ 0x0
   641                           
   642  0070                     ?_I2C_Slave_Init:	
   643                           ; 1 bytes @ 0x0
   644                           
   645  0070                     ?_isr:	
   646                           ; 1 bytes @ 0x0
   647                           
   648  0070                     ??_isr:	
   649                           ; 1 bytes @ 0x0
   650                           
   651  0070                     ?_main:	
   652                           ; 1 bytes @ 0x0
   653                           
   654                           
   655                           ; 1 bytes @ 0x0
   656  0070                     	ds	4
   657  0074                     ??_toggle_adc:
   658  0074                     ??_osc_config:	
   659                           ; 1 bytes @ 0x4
   660                           
   661  0074                     ??_ADC_config:	
   662                           ; 1 bytes @ 0x4
   663                           
   664  0074                     ??_I2C_Slave_Init:	
   665                           ; 1 bytes @ 0x4
   666                           
   667  0074                     I2C_Slave_Init@address:	
   668                           ; 1 bytes @ 0x4
   669                           
   670  0074                     osc_config@freq:	
   671                           ; 1 bytes @ 0x4
   672                           
   673  0074                     ___fltol@sign1:	
   674                           ; 1 bytes @ 0x4
   675                           
   676                           
   677                           ; 1 bytes @ 0x4
   678  0074                     	ds	1
   679  0075                     ??_setup:
   680  0075                     ___fltol@exp1:	
   681                           ; 1 bytes @ 0x5
   682                           
   683                           
   684                           ; 1 bytes @ 0x5
   685  0075                     	ds	1
   686  0076                     ??_main:
   687                           
   688                           	psect	cstackBANK0
   689  0020                     __pcstackBANK0:	
   690                           ; 1 bytes @ 0x6
   691                           
   692  0020                     ?___xxtofl:
   693  0020                     ___xxtofl@val:	
   694                           ; 4 bytes @ 0x0
   695                           
   696                           
   697                           ; 4 bytes @ 0x0
   698  0020                     	ds	4
   699  0024                     ??___xxtofl:
   700                           
   701                           ; 1 bytes @ 0x4
   702  0024                     	ds	4
   703  0028                     ___xxtofl@sign:
   704                           
   705                           ; 1 bytes @ 0x8
   706  0028                     	ds	1
   707  0029                     ___xxtofl@exp:
   708                           
   709                           ; 1 bytes @ 0x9
   710  0029                     	ds	1
   711  002A                     ___xxtofl@arg:
   712                           
   713                           ; 4 bytes @ 0xA
   714  002A                     	ds	4
   715  002E                     ?___fldiv:
   716  002E                     ___fldiv@a:	
   717                           ; 4 bytes @ 0xE
   718                           
   719                           
   720                           ; 4 bytes @ 0xE
   721  002E                     	ds	4
   722  0032                     ___fldiv@b:
   723                           
   724                           ; 4 bytes @ 0x12
   725  0032                     	ds	4
   726  0036                     ??___fldiv:
   727                           
   728                           ; 1 bytes @ 0x16
   729  0036                     	ds	5
   730  003B                     ___fldiv@rem:
   731                           
   732                           ; 4 bytes @ 0x1B
   733  003B                     	ds	4
   734  003F                     ___fldiv@sign:
   735                           
   736                           ; 1 bytes @ 0x1F
   737  003F                     	ds	1
   738  0040                     ___fldiv@new_exp:
   739                           
   740                           ; 2 bytes @ 0x20
   741  0040                     	ds	2
   742  0042                     ___fldiv@grs:
   743                           
   744                           ; 4 bytes @ 0x22
   745  0042                     	ds	4
   746  0046                     ___fldiv@bexp:
   747                           
   748                           ; 1 bytes @ 0x26
   749  0046                     	ds	1
   750  0047                     ___fldiv@aexp:
   751                           
   752                           ; 1 bytes @ 0x27
   753  0047                     	ds	1
   754  0048                     ?___fltol:
   755  0048                     ___fltol@f1:	
   756                           ; 4 bytes @ 0x28
   757                           
   758                           
   759                           ; 4 bytes @ 0x28
   760  0048                     	ds	4
   761  004C                     ??___fltol:
   762                           
   763                           ; 1 bytes @ 0x2C
   764  004C                     	ds	5
   765  0051                     ??_temp:
   766                           
   767                           ; 1 bytes @ 0x31
   768  0051                     	ds	5
   769                           
   770                           	psect	maintext
   771  052B                     __pmaintext:	
   772 ;;
   773 ;;Main: autosize = 0, tempsize = 0, incstack = 0, save=0
   774 ;;
   775 ;; *************** function _main *****************
   776 ;; Defined at:
   777 ;;		line 166 in file "C:/Users/Andy Bonilla/Documents/GitHub/ED2/Proyecto1_ED2/PIC_motores.X/Main_motores.c"
   778 ;; Parameters:    Size  Location     Type
   779 ;;		None
   780 ;; Auto vars:     Size  Location     Type
   781 ;;		None
   782 ;; Return value:  Size  Location     Type
   783 ;;                  1    wreg      void 
   784 ;; Registers used:
   785 ;;		wreg, fsr0l, fsr0h, status,2, status,0, btemp+1, pclath, cstack
   786 ;; Tracked objects:
   787 ;;		On entry : B00/0
   788 ;;		On exit  : 0/0
   789 ;;		Unchanged: 0/0
   790 ;; Data sizes:     COMMON   BANK0   BANK1   BANK3   BANK2
   791 ;;      Params:         0       0       0       0       0
   792 ;;      Locals:         0       0       0       0       0
   793 ;;      Temps:          0       0       0       0       0
   794 ;;      Totals:         0       0       0       0       0
   795 ;;Total ram usage:        0 bytes
   796 ;; Hardware stack levels required when called: 3
   797 ;; This function calls:
   798 ;;		_setup
   799 ;;		_temp
   800 ;;		_toggle_adc
   801 ;; This function is called by:
   802 ;;		Startup code after reset
   803 ;; This function uses a non-reentrant model
   804 ;;
   805                           
   806                           
   807                           ;psect for function _main
   808  052B                     _main:
   809  052B                     l1759:	
   810                           ;incstack = 0
   811                           ; Regs used in _main: [wreg-fsr0h+status,2+status,0+btemp+1+pclath+cstack]
   812                           
   813                           
   814                           ;Main_motores.c: 168: setup();
   815  052B  120A  118A  243D  120A  118A  	fcall	_setup
   816  0530                     l120:	
   817                           ;Main_motores.c: 170: while(1)
   818                           
   819                           
   820                           ;Main_motores.c: 171: {;Main_motores.c: 175: toggle_adc();
   821  0530  120A  118A  2486  120A  118A  	fcall	_toggle_adc
   822  0535                     l1761:
   823                           
   824                           ;Main_motores.c: 177: temp();
   825  0535  120A  118A  23E8  120A  118A  	fcall	_temp
   826  053A  2D30               	goto	l120
   827  053B  120A  118A  280C   	ljmp	start
   828  053E                     __end_of_main:
   829                           
   830                           	psect	text1
   831  0486                     __ptext1:	
   832 ;; *************** function _toggle_adc *****************
   833 ;; Defined at:
   834 ;;		line 264 in file "C:/Users/Andy Bonilla/Documents/GitHub/ED2/Proyecto1_ED2/PIC_motores.X/Main_motores.c"
   835 ;; Parameters:    Size  Location     Type
   836 ;;		None
   837 ;; Auto vars:     Size  Location     Type
   838 ;;		None
   839 ;; Return value:  Size  Location     Type
   840 ;;                  1    wreg      void 
   841 ;; Registers used:
   842 ;;		wreg, fsr0l, fsr0h, status,2, status,0
   843 ;; Tracked objects:
   844 ;;		On entry : 0/0
   845 ;;		On exit  : 0/0
   846 ;;		Unchanged: 0/0
   847 ;; Data sizes:     COMMON   BANK0   BANK1   BANK3   BANK2
   848 ;;      Params:         0       0       0       0       0
   849 ;;      Locals:         0       0       0       0       0
   850 ;;      Temps:          1       0       0       0       0
   851 ;;      Totals:         1       0       0       0       0
   852 ;;Total ram usage:        1 bytes
   853 ;; Hardware stack levels used: 1
   854 ;; Hardware stack levels required when called: 1
   855 ;; This function calls:
   856 ;;		Nothing
   857 ;; This function is called by:
   858 ;;		_main
   859 ;; This function uses a non-reentrant model
   860 ;;
   861                           
   862                           
   863                           ;psect for function _toggle_adc
   864  0486                     _toggle_adc:
   865  0486                     l1567:	
   866                           ;incstack = 0
   867                           ; Regs used in _toggle_adc: [wreg-fsr0h+status,2+status,0]
   868                           
   869                           
   870                           ;Main_motores.c: 266: if (ADCON0bits.GO==0)
   871  0486  1283               	bcf	3,5	;RP0=0, select bank0
   872  0487  1303               	bcf	3,6	;RP1=0, select bank0
   873  0488  189F               	btfsc	31,1	;volatile
   874  0489  2C8B               	goto	u1321
   875  048A  2C8C               	goto	u1320
   876  048B                     u1321:
   877  048B  2CCD               	goto	l144
   878  048C                     u1320:
   879  048C  2CB8               	goto	l1589
   880  048D                     l1571:
   881                           
   882                           ;Main_motores.c: 271: conversion1=ADRESH<<8;
   883  048D  01F9               	clrf	_conversion1
   884  048E                     l1573:
   885                           
   886                           ;Main_motores.c: 272: conversion_total=conversion1+ADRESL;
   887  048E  1683               	bsf	3,5	;RP0=1, select bank1
   888  048F  1303               	bcf	3,6	;RP1=0, select bank1
   889  0490  081E               	movf	30,w	;volatile
   890  0491  00F4               	movwf	??_toggle_adc
   891  0492  0874               	movf	??_toggle_adc,w
   892  0493  1283               	bcf	3,5	;RP0=0, select bank0
   893  0494  1303               	bcf	3,6	;RP1=0, select bank0
   894  0495  00D9               	movwf	_conversion_total
   895  0496                     l1575:
   896                           
   897                           ;Main_motores.c: 273: _delay((unsigned long)((1)*(4000000/4000.0)));
   898  0496  30C7               	movlw	199
   899  0497  00F4               	movwf	??_toggle_adc
   900  0498                     u1697:
   901  0498  2C99               	nop2
   902  0499  0BF4               	decfsz	??_toggle_adc,f
   903  049A  2C98               	goto	u1697
   904  049B  2C9C               	nop2
   905  049C  2C9D               	nop2
   906  049D                     l1577:
   907                           
   908                           ;Main_motores.c: 274: ADCON0bits.CHS=1;
   909  049D  1283               	bcf	3,5	;RP0=0, select bank0
   910  049E  1303               	bcf	3,6	;RP1=0, select bank0
   911  049F  081F               	movf	31,w	;volatile
   912  04A0  39C3               	andlw	-61
   913  04A1  3804               	iorlw	4
   914  04A2  009F               	movwf	31	;volatile
   915                           
   916                           ;Main_motores.c: 275: break;
   917  04A3  2CC3               	goto	l1591
   918  04A4                     l1579:
   919                           
   920                           ;Main_motores.c: 277: cuenta1=ADRESH<<8;
   921  04A4  01D6               	clrf	_cuenta1
   922  04A5                     l1581:
   923                           
   924                           ;Main_motores.c: 278: cuenta_total=conversion1+ADRESL;
   925  04A5  1683               	bsf	3,5	;RP0=1, select bank1
   926  04A6  1303               	bcf	3,6	;RP1=0, select bank1
   927  04A7  081E               	movf	30,w	;volatile
   928  04A8  0779               	addwf	_conversion1,w
   929  04A9  00F4               	movwf	??_toggle_adc
   930  04AA  0874               	movf	??_toggle_adc,w
   931  04AB  00F6               	movwf	_cuenta_total
   932  04AC                     l1583:
   933                           
   934                           ;Main_motores.c: 279: _delay((unsigned long)((1)*(4000000/4000.0)));
   935  04AC  30C7               	movlw	199
   936  04AD  00F4               	movwf	??_toggle_adc
   937  04AE                     u1707:
   938  04AE  2CAF               	nop2
   939  04AF  0BF4               	decfsz	??_toggle_adc,f
   940  04B0  2CAE               	goto	u1707
   941  04B1  2CB2               	nop2
   942  04B2  2CB3               	nop2
   943  04B3                     l1585:
   944                           
   945                           ;Main_motores.c: 280: ADCON0bits.CHS=0;
   946  04B3  30C3               	movlw	-61
   947  04B4  1283               	bcf	3,5	;RP0=0, select bank0
   948  04B5  1303               	bcf	3,6	;RP1=0, select bank0
   949  04B6  059F               	andwf	31,f	;volatile
   950                           
   951                           ;Main_motores.c: 281: break;
   952  04B7  2CC3               	goto	l1591
   953  04B8                     l1589:
   954  04B8  0C1F               	rrf	31,w	;volatile
   955  04B9  00F4               	movwf	??_toggle_adc
   956  04BA  0C74               	rrf	??_toggle_adc,w
   957  04BB  390F               	andlw	15
   958                           
   959                           ; Switch size 1, requested type "simple"
   960                           ; Number of cases is 2, Range of values is 0 to 1
   961                           ; switch strategies available:
   962                           ; Name         Instructions Cycles
   963                           ; simple_byte            7     4 (average)
   964                           ; direct_byte           14     8 (fixed)
   965                           ; jumptable            260     6 (fixed)
   966                           ;	Chosen strategy is simple_byte
   967  04BC  3A00               	xorlw	0	; case 0
   968  04BD  1903               	skipnz
   969  04BE  2C8D               	goto	l1571
   970  04BF  3A01               	xorlw	1	; case 1
   971  04C0  1903               	skipnz
   972  04C1  2CA4               	goto	l1579
   973  04C2  2CC3               	goto	l1591
   974  04C3                     l1591:
   975                           
   976                           ;Main_motores.c: 284: _delay((unsigned long)((1)*(4000000/4000.0)));
   977  04C3  30C7               	movlw	199
   978  04C4  00F4               	movwf	??_toggle_adc
   979  04C5                     u1717:
   980  04C5  2CC6               	nop2
   981  04C6  0BF4               	decfsz	??_toggle_adc,f
   982  04C7  2CC5               	goto	u1717
   983  04C8  2CC9               	nop2
   984  04C9  2CCA               	nop2
   985  04CA                     l1593:
   986                           
   987                           ;Main_motores.c: 285: ADCON0bits.GO=1;
   988  04CA  1283               	bcf	3,5	;RP0=0, select bank0
   989  04CB  1303               	bcf	3,6	;RP1=0, select bank0
   990  04CC  149F               	bsf	31,1	;volatile
   991  04CD                     l144:
   992  04CD  0008               	return
   993  04CE                     __end_of_toggle_adc:
   994                           
   995                           	psect	text2
   996  03E8                     __ptext2:	
   997 ;; *************** function _temp *****************
   998 ;; Defined at:
   999 ;;		line 290 in file "C:/Users/Andy Bonilla/Documents/GitHub/ED2/Proyecto1_ED2/PIC_motores.X/Main_motores.c"
  1000 ;; Parameters:    Size  Location     Type
  1001 ;;		None
  1002 ;; Auto vars:     Size  Location     Type
  1003 ;;		None
  1004 ;; Return value:  Size  Location     Type
  1005 ;;                  1    wreg      void 
  1006 ;; Registers used:
  1007 ;;		wreg, status,2, status,0, btemp+1, pclath, cstack
  1008 ;; Tracked objects:
  1009 ;;		On entry : 0/0
  1010 ;;		On exit  : 0/0
  1011 ;;		Unchanged: 0/0
  1012 ;; Data sizes:     COMMON   BANK0   BANK1   BANK3   BANK2
  1013 ;;      Params:         0       0       0       0       0
  1014 ;;      Locals:         0       0       0       0       0
  1015 ;;      Temps:          0       5       0       0       0
  1016 ;;      Totals:         0       5       0       0       0
  1017 ;;Total ram usage:        5 bytes
  1018 ;; Hardware stack levels used: 1
  1019 ;; Hardware stack levels required when called: 2
  1020 ;; This function calls:
  1021 ;;		___fldiv
  1022 ;;		___fltol
  1023 ;;		___xxtofl
  1024 ;; This function is called by:
  1025 ;;		_main
  1026 ;; This function uses a non-reentrant model
  1027 ;;
  1028                           
  1029                           
  1030                           ;psect for function _temp
  1031  03E8                     _temp:
  1032  03E8                     l1751:	
  1033                           ;incstack = 0
  1034                           ; Regs used in _temp: [wreg+status,2+status,0+btemp+1+pclath+cstack]
  1035                           
  1036                           
  1037                           ;Main_motores.c: 292: temperatura_aprox=(conversion_total/2.046);
  1038  03E8  1283               	bcf	3,5	;RP0=0, select bank0
  1039  03E9  1303               	bcf	3,6	;RP1=0, select bank0
  1040  03EA  0859               	movf	_conversion_total,w
  1041  03EB  00D1               	movwf	??_temp
  1042  03EC  01D2               	clrf	??_temp+1
  1043  03ED  01D3               	clrf	??_temp+2
  1044  03EE  01D4               	clrf	??_temp+3
  1045  03EF  0854               	movf	??_temp+3,w
  1046  03F0  00A3               	movwf	___xxtofl@val+3
  1047  03F1  0853               	movf	??_temp+2,w
  1048  03F2  00A2               	movwf	___xxtofl@val+2
  1049  03F3  0852               	movf	??_temp+1,w
  1050  03F4  00A1               	movwf	___xxtofl@val+1
  1051  03F5  0851               	movf	??_temp,w
  1052  03F6  00A0               	movwf	___xxtofl@val
  1053  03F7  3000               	movlw	0
  1054  03F8  120A  118A  21FC  120A  118A  	fcall	___xxtofl
  1055  03FD  1283               	bcf	3,5	;RP0=0, select bank0
  1056  03FE  1303               	bcf	3,6	;RP1=0, select bank0
  1057  03FF  0823               	movf	?___xxtofl+3,w
  1058  0400  00B5               	movwf	___fldiv@b+3
  1059  0401  0822               	movf	?___xxtofl+2,w
  1060  0402  00B4               	movwf	___fldiv@b+2
  1061  0403  0821               	movf	?___xxtofl+1,w
  1062  0404  00B3               	movwf	___fldiv@b+1
  1063  0405  0820               	movf	?___xxtofl,w
  1064  0406  00B2               	movwf	___fldiv@b
  1065  0407  3040               	movlw	64
  1066  0408  00B1               	movwf	___fldiv@a+3
  1067  0409  3002               	movlw	2
  1068  040A  00B0               	movwf	___fldiv@a+2
  1069  040B  30F1               	movlw	241
  1070  040C  00AF               	movwf	___fldiv@a+1
  1071  040D  30AA               	movlw	170
  1072  040E  00AE               	movwf	___fldiv@a
  1073  040F  120A  118A  201F  120A  118A  	fcall	___fldiv
  1074  0414  1283               	bcf	3,5	;RP0=0, select bank0
  1075  0415  1303               	bcf	3,6	;RP1=0, select bank0
  1076  0416  0831               	movf	?___fldiv+3,w
  1077  0417  00CB               	movwf	___fltol@f1+3
  1078  0418  0830               	movf	?___fldiv+2,w
  1079  0419  00CA               	movwf	___fltol@f1+2
  1080  041A  082F               	movf	?___fldiv+1,w
  1081  041B  00C9               	movwf	___fltol@f1+1
  1082  041C  082E               	movf	?___fldiv,w
  1083  041D  00C8               	movwf	___fltol@f1
  1084  041E  120A  118A  236C  120A  118A  	fcall	___fltol
  1085  0423  1283               	bcf	3,5	;RP0=0, select bank0
  1086  0424  1303               	bcf	3,6	;RP1=0, select bank0
  1087  0425  0848               	movf	?___fltol,w
  1088  0426  00D5               	movwf	??_temp+4
  1089  0427  0855               	movf	??_temp+4,w
  1090  0428  00F8               	movwf	_temperatura_aprox
  1091  0429                     l1753:
  1092                           
  1093                           ;Main_motores.c: 294: if (temperatura_aprox>28 && temperatura_aprox <50)
  1094  0429  301D               	movlw	29
  1095  042A  0278               	subwf	_temperatura_aprox,w
  1096  042B  1C03               	skipc
  1097  042C  2C2E               	goto	u1671
  1098  042D  2C2F               	goto	u1670
  1099  042E                     u1671:
  1100  042E  2C39               	goto	l147
  1101  042F                     u1670:
  1102  042F                     l1755:
  1103  042F  3032               	movlw	50
  1104  0430  0278               	subwf	_temperatura_aprox,w
  1105  0431  1803               	skipnc
  1106  0432  2C34               	goto	u1681
  1107  0433  2C35               	goto	u1680
  1108  0434                     u1681:
  1109  0434  2C39               	goto	l147
  1110  0435                     u1680:
  1111  0435                     l1757:
  1112                           
  1113                           ;Main_motores.c: 295: TRISCbits.TRISC2=0;
  1114  0435  1683               	bsf	3,5	;RP0=1, select bank1
  1115  0436  1303               	bcf	3,6	;RP1=0, select bank1
  1116  0437  1107               	bcf	7,2	;volatile
  1117  0438  2C3C               	goto	l149
  1118  0439                     l147:
  1119                           
  1120                           ;Main_motores.c: 296: else;Main_motores.c: 297: TRISCbits.TRISC2=1;
  1121  0439  1683               	bsf	3,5	;RP0=1, select bank1
  1122  043A  1303               	bcf	3,6	;RP1=0, select bank1
  1123  043B  1507               	bsf	7,2	;volatile
  1124  043C                     l149:
  1125  043C  0008               	return
  1126  043D                     __end_of_temp:
  1127                           
  1128                           	psect	text3
  1129  01FC                     __ptext3:	
  1130 ;; *************** function ___xxtofl *****************
  1131 ;; Defined at:
  1132 ;;		line 10 in file "C:\Program Files\Microchip\xc8\v2.32\pic\sources\c90\common\xxtofl.c"
  1133 ;; Parameters:    Size  Location     Type
  1134 ;;  sign            1    wreg     unsigned char 
  1135 ;;  val             4    0[BANK0 ] long 
  1136 ;; Auto vars:     Size  Location     Type
  1137 ;;  sign            1    8[BANK0 ] unsigned char 
  1138 ;;  arg             4   10[BANK0 ] unsigned long 
  1139 ;;  exp             1    9[BANK0 ] unsigned char 
  1140 ;; Return value:  Size  Location     Type
  1141 ;;                  4    0[BANK0 ] unsigned char 
  1142 ;; Registers used:
  1143 ;;		wreg, status,2, status,0
  1144 ;; Tracked objects:
  1145 ;;		On entry : 0/0
  1146 ;;		On exit  : 0/0
  1147 ;;		Unchanged: 0/0
  1148 ;; Data sizes:     COMMON   BANK0   BANK1   BANK3   BANK2
  1149 ;;      Params:         0       4       0       0       0
  1150 ;;      Locals:         0       6       0       0       0
  1151 ;;      Temps:          0       4       0       0       0
  1152 ;;      Totals:         0      14       0       0       0
  1153 ;;Total ram usage:       14 bytes
  1154 ;; Hardware stack levels used: 1
  1155 ;; Hardware stack levels required when called: 1
  1156 ;; This function calls:
  1157 ;;		Nothing
  1158 ;; This function is called by:
  1159 ;;		_temp
  1160 ;; This function uses a non-reentrant model
  1161 ;;
  1162                           
  1163                           
  1164                           ;psect for function ___xxtofl
  1165  01FC                     ___xxtofl:
  1166                           
  1167                           ;incstack = 0
  1168                           ; Regs used in ___xxtofl: [wreg+status,2+status,0]
  1169                           ;___xxtofl@sign stored from wreg
  1170  01FC  1283               	bcf	3,5	;RP0=0, select bank0
  1171  01FD  1303               	bcf	3,6	;RP1=0, select bank0
  1172  01FE  00A8               	movwf	___xxtofl@sign
  1173  01FF                     l1707:
  1174  01FF  0828               	movf	___xxtofl@sign,w
  1175  0200  1903               	btfsc	3,2
  1176  0201  2A03               	goto	u1531
  1177  0202  2A04               	goto	u1530
  1178  0203                     u1531:
  1179  0203  2A18               	goto	l1713
  1180  0204                     u1530:
  1181  0204                     l1709:
  1182  0204  1FA3               	btfss	___xxtofl@val+3,7
  1183  0205  2A07               	goto	u1541
  1184  0206  2A08               	goto	u1540
  1185  0207                     u1541:
  1186  0207  2A18               	goto	l1713
  1187  0208                     u1540:
  1188  0208                     l1711:
  1189  0208  0920               	comf	___xxtofl@val,w
  1190  0209  00AA               	movwf	___xxtofl@arg
  1191  020A  0921               	comf	___xxtofl@val+1,w
  1192  020B  00AB               	movwf	___xxtofl@arg+1
  1193  020C  0922               	comf	___xxtofl@val+2,w
  1194  020D  00AC               	movwf	___xxtofl@arg+2
  1195  020E  0923               	comf	___xxtofl@val+3,w
  1196  020F  00AD               	movwf	___xxtofl@arg+3
  1197  0210  0AAA               	incf	___xxtofl@arg,f
  1198  0211  1903               	skipnz
  1199  0212  0AAB               	incf	___xxtofl@arg+1,f
  1200  0213  1903               	skipnz
  1201  0214  0AAC               	incf	___xxtofl@arg+2,f
  1202  0215  1903               	skipnz
  1203  0216  0AAD               	incf	___xxtofl@arg+3,f
  1204  0217  2A20               	goto	l756
  1205  0218                     l1713:
  1206  0218  0823               	movf	___xxtofl@val+3,w
  1207  0219  00AD               	movwf	___xxtofl@arg+3
  1208  021A  0822               	movf	___xxtofl@val+2,w
  1209  021B  00AC               	movwf	___xxtofl@arg+2
  1210  021C  0821               	movf	___xxtofl@val+1,w
  1211  021D  00AB               	movwf	___xxtofl@arg+1
  1212  021E  0820               	movf	___xxtofl@val,w
  1213  021F  00AA               	movwf	___xxtofl@arg
  1214  0220                     l756:
  1215  0220  0823               	movf	___xxtofl@val+3,w
  1216  0221  0422               	iorwf	___xxtofl@val+2,w
  1217  0222  0421               	iorwf	___xxtofl@val+1,w
  1218  0223  0420               	iorwf	___xxtofl@val,w
  1219  0224  1D03               	skipz
  1220  0225  2A27               	goto	u1551
  1221  0226  2A28               	goto	u1550
  1222  0227                     u1551:
  1223  0227  2A31               	goto	l1719
  1224  0228                     u1550:
  1225  0228                     l1715:
  1226  0228  3000               	movlw	0
  1227  0229  00A3               	movwf	?___xxtofl+3
  1228  022A  3000               	movlw	0
  1229  022B  00A2               	movwf	?___xxtofl+2
  1230  022C  3000               	movlw	0
  1231  022D  00A1               	movwf	?___xxtofl+1
  1232  022E  3000               	movlw	0
  1233  022F  00A0               	movwf	?___xxtofl
  1234  0230  2AB7               	goto	l758
  1235  0231                     l1719:
  1236  0231  3096               	movlw	150
  1237  0232  00A4               	movwf	??___xxtofl
  1238  0233  0824               	movf	??___xxtofl,w
  1239  0234  00A9               	movwf	___xxtofl@exp
  1240  0235  2A43               	goto	l1723
  1241  0236                     l1721:
  1242  0236  3001               	movlw	1
  1243  0237  00A4               	movwf	??___xxtofl
  1244  0238  0824               	movf	??___xxtofl,w
  1245  0239  07A9               	addwf	___xxtofl@exp,f
  1246  023A  3001               	movlw	1
  1247  023B                     u1565:
  1248  023B  1003               	clrc
  1249  023C  0CAD               	rrf	___xxtofl@arg+3,f
  1250  023D  0CAC               	rrf	___xxtofl@arg+2,f
  1251  023E  0CAB               	rrf	___xxtofl@arg+1,f
  1252  023F  0CAA               	rrf	___xxtofl@arg,f
  1253  0240  3EFF               	addlw	-1
  1254  0241  1D03               	skipz
  1255  0242  2A3B               	goto	u1565
  1256  0243                     l1723:
  1257  0243  30FE               	movlw	254
  1258  0244  052D               	andwf	___xxtofl@arg+3,w
  1259  0245  1D03               	btfss	3,2
  1260  0246  2A48               	goto	u1571
  1261  0247  2A49               	goto	u1570
  1262  0248                     u1571:
  1263  0248  2A36               	goto	l1721
  1264  0249                     u1570:
  1265  0249  2A65               	goto	l762
  1266  024A                     l1725:
  1267  024A  3001               	movlw	1
  1268  024B  00A4               	movwf	??___xxtofl
  1269  024C  0824               	movf	??___xxtofl,w
  1270  024D  07A9               	addwf	___xxtofl@exp,f
  1271  024E                     l1727:
  1272  024E  3001               	movlw	1
  1273  024F  07AA               	addwf	___xxtofl@arg,f
  1274  0250  3000               	movlw	0
  1275  0251  1803               	skipnc
  1276  0252  3001               	movlw	1
  1277  0253  07AB               	addwf	___xxtofl@arg+1,f
  1278  0254  3000               	movlw	0
  1279  0255  1803               	skipnc
  1280  0256  3001               	movlw	1
  1281  0257  07AC               	addwf	___xxtofl@arg+2,f
  1282  0258  3000               	movlw	0
  1283  0259  1803               	skipnc
  1284  025A  3001               	movlw	1
  1285  025B  07AD               	addwf	___xxtofl@arg+3,f
  1286  025C                     l1729:
  1287  025C  3001               	movlw	1
  1288  025D                     u1585:
  1289  025D  1003               	clrc
  1290  025E  0CAD               	rrf	___xxtofl@arg+3,f
  1291  025F  0CAC               	rrf	___xxtofl@arg+2,f
  1292  0260  0CAB               	rrf	___xxtofl@arg+1,f
  1293  0261  0CAA               	rrf	___xxtofl@arg,f
  1294  0262  3EFF               	addlw	-1
  1295  0263  1D03               	skipz
  1296  0264  2A5D               	goto	u1585
  1297  0265                     l762:
  1298  0265  30FF               	movlw	255
  1299  0266  052D               	andwf	___xxtofl@arg+3,w
  1300  0267  1D03               	btfss	3,2
  1301  0268  2A6A               	goto	u1591
  1302  0269  2A6B               	goto	u1590
  1303  026A                     u1591:
  1304  026A  2A4A               	goto	l1725
  1305  026B                     u1590:
  1306  026B  2A77               	goto	l1733
  1307  026C                     l1731:
  1308  026C  3001               	movlw	1
  1309  026D  02A9               	subwf	___xxtofl@exp,f
  1310  026E  3001               	movlw	1
  1311  026F  00A4               	movwf	??___xxtofl
  1312  0270                     u1605:
  1313  0270  1003               	clrc
  1314  0271  0DAA               	rlf	___xxtofl@arg,f
  1315  0272  0DAB               	rlf	___xxtofl@arg+1,f
  1316  0273  0DAC               	rlf	___xxtofl@arg+2,f
  1317  0274  0DAD               	rlf	___xxtofl@arg+3,f
  1318  0275  0BA4               	decfsz	??___xxtofl,f
  1319  0276  2A70               	goto	u1605
  1320  0277                     l1733:
  1321  0277  1BAC               	btfsc	___xxtofl@arg+2,7
  1322  0278  2A7A               	goto	u1611
  1323  0279  2A7B               	goto	u1610
  1324  027A                     u1611:
  1325  027A  2A81               	goto	l769
  1326  027B                     u1610:
  1327  027B                     l1735:
  1328  027B  3002               	movlw	2
  1329  027C  0229               	subwf	___xxtofl@exp,w
  1330  027D  1803               	skipnc
  1331  027E  2A80               	goto	u1621
  1332  027F  2A81               	goto	u1620
  1333  0280                     u1621:
  1334  0280  2A6C               	goto	l1731
  1335  0281                     u1620:
  1336  0281                     l769:
  1337  0281  1829               	btfsc	___xxtofl@exp,0
  1338  0282  2A84               	goto	u1631
  1339  0283  2A85               	goto	u1630
  1340  0284                     u1631:
  1341  0284  2A8D               	goto	l770
  1342  0285                     u1630:
  1343  0285                     l1737:
  1344  0285  30FF               	movlw	255
  1345  0286  05AA               	andwf	___xxtofl@arg,f
  1346  0287  30FF               	movlw	255
  1347  0288  05AB               	andwf	___xxtofl@arg+1,f
  1348  0289  307F               	movlw	127
  1349  028A  05AC               	andwf	___xxtofl@arg+2,f
  1350  028B  30FF               	movlw	255
  1351  028C  05AD               	andwf	___xxtofl@arg+3,f
  1352  028D                     l770:
  1353  028D  1003               	clrc
  1354  028E  0CA9               	rrf	___xxtofl@exp,f
  1355  028F                     l1739:
  1356  028F  0829               	movf	___xxtofl@exp,w
  1357  0290  00A4               	movwf	??___xxtofl
  1358  0291  01A5               	clrf	??___xxtofl+1
  1359  0292  01A6               	clrf	??___xxtofl+2
  1360  0293  01A7               	clrf	??___xxtofl+3
  1361  0294  3018               	movlw	24
  1362  0295                     u1645:
  1363  0295  1003               	clrc
  1364  0296  0DA4               	rlf	??___xxtofl,f
  1365  0297  0DA5               	rlf	??___xxtofl+1,f
  1366  0298  0DA6               	rlf	??___xxtofl+2,f
  1367  0299  0DA7               	rlf	??___xxtofl+3,f
  1368  029A                     u1640:
  1369  029A  3EFF               	addlw	-1
  1370  029B  1D03               	skipz
  1371  029C  2A95               	goto	u1645
  1372  029D  0824               	movf	??___xxtofl,w
  1373  029E  04AA               	iorwf	___xxtofl@arg,f
  1374  029F  0825               	movf	??___xxtofl+1,w
  1375  02A0  04AB               	iorwf	___xxtofl@arg+1,f
  1376  02A1  0826               	movf	??___xxtofl+2,w
  1377  02A2  04AC               	iorwf	___xxtofl@arg+2,f
  1378  02A3  0827               	movf	??___xxtofl+3,w
  1379  02A4  04AD               	iorwf	___xxtofl@arg+3,f
  1380  02A5                     l1741:
  1381  02A5  0828               	movf	___xxtofl@sign,w
  1382  02A6  1903               	btfsc	3,2
  1383  02A7  2AA9               	goto	u1651
  1384  02A8  2AAA               	goto	u1650
  1385  02A9                     u1651:
  1386  02A9  2AAF               	goto	l1747
  1387  02AA                     u1650:
  1388  02AA                     l1743:
  1389  02AA  1FA3               	btfss	___xxtofl@val+3,7
  1390  02AB  2AAD               	goto	u1661
  1391  02AC  2AAE               	goto	u1660
  1392  02AD                     u1661:
  1393  02AD  2AAF               	goto	l1747
  1394  02AE                     u1660:
  1395  02AE                     l1745:
  1396  02AE  17AD               	bsf	___xxtofl@arg+3,7
  1397  02AF                     l1747:
  1398  02AF  082D               	movf	___xxtofl@arg+3,w
  1399  02B0  00A3               	movwf	?___xxtofl+3
  1400  02B1  082C               	movf	___xxtofl@arg+2,w
  1401  02B2  00A2               	movwf	?___xxtofl+2
  1402  02B3  082B               	movf	___xxtofl@arg+1,w
  1403  02B4  00A1               	movwf	?___xxtofl+1
  1404  02B5  082A               	movf	___xxtofl@arg,w
  1405  02B6  00A0               	movwf	?___xxtofl
  1406  02B7                     l758:
  1407  02B7  0008               	return
  1408  02B8                     __end_of___xxtofl:
  1409                           
  1410                           	psect	text4
  1411  036C                     __ptext4:	
  1412 ;; *************** function ___fltol *****************
  1413 ;; Defined at:
  1414 ;;		line 43 in file "C:\Program Files\Microchip\xc8\v2.32\pic\sources\c90\common\fltol.c"
  1415 ;; Parameters:    Size  Location     Type
  1416 ;;  f1              4   40[BANK0 ] unsigned char 
  1417 ;; Auto vars:     Size  Location     Type
  1418 ;;  exp1            1    5[COMMON] unsigned char 
  1419 ;;  sign1           1    4[COMMON] unsigned char 
  1420 ;; Return value:  Size  Location     Type
  1421 ;;                  4   40[BANK0 ] long 
  1422 ;; Registers used:
  1423 ;;		wreg, status,2, status,0
  1424 ;; Tracked objects:
  1425 ;;		On entry : 0/0
  1426 ;;		On exit  : 0/0
  1427 ;;		Unchanged: 0/0
  1428 ;; Data sizes:     COMMON   BANK0   BANK1   BANK3   BANK2
  1429 ;;      Params:         0       4       0       0       0
  1430 ;;      Locals:         2       0       0       0       0
  1431 ;;      Temps:          0       5       0       0       0
  1432 ;;      Totals:         2       9       0       0       0
  1433 ;;Total ram usage:       11 bytes
  1434 ;; Hardware stack levels used: 1
  1435 ;; Hardware stack levels required when called: 1
  1436 ;; This function calls:
  1437 ;;		Nothing
  1438 ;; This function is called by:
  1439 ;;		_temp
  1440 ;; This function uses a non-reentrant model
  1441 ;;
  1442                           
  1443                           
  1444                           ;psect for function ___fltol
  1445  036C                     ___fltol:
  1446  036C                     l1345:	
  1447                           ;incstack = 0
  1448                           ; Regs used in ___fltol: [wreg+status,2+status,0]
  1449                           
  1450  036C  1003               	clrc
  1451  036D  1283               	bcf	3,5	;RP0=0, select bank0
  1452  036E  1303               	bcf	3,6	;RP1=0, select bank0
  1453  036F  0D4A               	rlf	___fltol@f1+2,w
  1454  0370  0D4B               	rlf	___fltol@f1+3,w
  1455  0371  00CC               	movwf	??___fltol
  1456  0372  084C               	movf	??___fltol,w
  1457  0373  00F5               	movwf	___fltol@exp1
  1458  0374  0875               	movf	___fltol@exp1,w
  1459  0375  1D03               	btfss	3,2
  1460  0376  2B78               	goto	u791
  1461  0377  2B79               	goto	u790
  1462  0378                     u791:
  1463  0378  2B82               	goto	l1351
  1464  0379                     u790:
  1465  0379                     l1347:
  1466  0379  3000               	movlw	0
  1467  037A  00CB               	movwf	?___fltol+3
  1468  037B  3000               	movlw	0
  1469  037C  00CA               	movwf	?___fltol+2
  1470  037D  3000               	movlw	0
  1471  037E  00C9               	movwf	?___fltol+1
  1472  037F  3000               	movlw	0
  1473  0380  00C8               	movwf	?___fltol
  1474  0381  2BE7               	goto	l509
  1475  0382                     l1351:
  1476  0382  0848               	movf	___fltol@f1,w
  1477  0383  00CC               	movwf	??___fltol
  1478  0384  0849               	movf	___fltol@f1+1,w
  1479  0385  00CD               	movwf	??___fltol+1
  1480  0386  084A               	movf	___fltol@f1+2,w
  1481  0387  00CE               	movwf	??___fltol+2
  1482  0388  084B               	movf	___fltol@f1+3,w
  1483  0389  00CF               	movwf	??___fltol+3
  1484  038A  301F               	movlw	31
  1485  038B                     u805:
  1486  038B  1003               	clrc
  1487  038C  0CCF               	rrf	??___fltol+3,f
  1488  038D  0CCE               	rrf	??___fltol+2,f
  1489  038E  0CCD               	rrf	??___fltol+1,f
  1490  038F  0CCC               	rrf	??___fltol,f
  1491  0390                     u800:
  1492  0390  3EFF               	addlw	-1
  1493  0391  1D03               	skipz
  1494  0392  2B8B               	goto	u805
  1495  0393  084C               	movf	??___fltol,w
  1496  0394  00D0               	movwf	??___fltol+4
  1497  0395  0850               	movf	??___fltol+4,w
  1498  0396  00F4               	movwf	___fltol@sign1
  1499  0397                     l1353:
  1500  0397  17CA               	bsf	___fltol@f1+2,7
  1501  0398                     l1355:
  1502  0398  30FF               	movlw	255
  1503  0399  05C8               	andwf	___fltol@f1,f
  1504  039A  30FF               	movlw	255
  1505  039B  05C9               	andwf	___fltol@f1+1,f
  1506  039C  30FF               	movlw	255
  1507  039D  05CA               	andwf	___fltol@f1+2,f
  1508  039E  3000               	movlw	0
  1509  039F  05CB               	andwf	___fltol@f1+3,f
  1510  03A0                     l1357:
  1511  03A0  3096               	movlw	150
  1512  03A1  02F5               	subwf	___fltol@exp1,f
  1513  03A2                     l1359:
  1514  03A2  1FF5               	btfss	___fltol@exp1,7
  1515  03A3  2BA5               	goto	u811
  1516  03A4  2BA6               	goto	u810
  1517  03A5                     u811:
  1518  03A5  2BC0               	goto	l1369
  1519  03A6                     u810:
  1520  03A6                     l1361:
  1521  03A6  0875               	movf	___fltol@exp1,w
  1522  03A7  3A80               	xorlw	128
  1523  03A8  3E97               	addlw	151
  1524  03A9  1803               	skipnc
  1525  03AA  2BAC               	goto	u821
  1526  03AB  2BAD               	goto	u820
  1527  03AC                     u821:
  1528  03AC  2BAE               	goto	l1367
  1529  03AD                     u820:
  1530  03AD  2B79               	goto	l1347
  1531  03AE                     l1367:
  1532  03AE  3001               	movlw	1
  1533  03AF                     u835:
  1534  03AF  1003               	clrc
  1535  03B0  0CCB               	rrf	___fltol@f1+3,f
  1536  03B1  0CCA               	rrf	___fltol@f1+2,f
  1537  03B2  0CC9               	rrf	___fltol@f1+1,f
  1538  03B3  0CC8               	rrf	___fltol@f1,f
  1539  03B4  3EFF               	addlw	-1
  1540  03B5  1D03               	skipz
  1541  03B6  2BAF               	goto	u835
  1542  03B7  3001               	movlw	1
  1543  03B8  00CC               	movwf	??___fltol
  1544  03B9  084C               	movf	??___fltol,w
  1545  03BA  07F5               	addwf	___fltol@exp1,f
  1546  03BB  1D03               	btfss	3,2
  1547  03BC  2BBE               	goto	u841
  1548  03BD  2BBF               	goto	u840
  1549  03BE                     u841:
  1550  03BE  2BAE               	goto	l1367
  1551  03BF                     u840:
  1552  03BF  2BD7               	goto	l1377
  1553  03C0                     l1369:
  1554  03C0  3020               	movlw	32
  1555  03C1  0275               	subwf	___fltol@exp1,w
  1556  03C2  1C03               	skipc
  1557  03C3  2BC5               	goto	u851
  1558  03C4  2BC6               	goto	u850
  1559  03C5                     u851:
  1560  03C5  2BD2               	goto	l516
  1561  03C6                     u850:
  1562  03C6  2B79               	goto	l1347
  1563  03C7                     l1375:
  1564  03C7  3001               	movlw	1
  1565  03C8  00CC               	movwf	??___fltol
  1566  03C9                     u865:
  1567  03C9  1003               	clrc
  1568  03CA  0DC8               	rlf	___fltol@f1,f
  1569  03CB  0DC9               	rlf	___fltol@f1+1,f
  1570  03CC  0DCA               	rlf	___fltol@f1+2,f
  1571  03CD  0DCB               	rlf	___fltol@f1+3,f
  1572  03CE  0BCC               	decfsz	??___fltol,f
  1573  03CF  2BC9               	goto	u865
  1574  03D0  3001               	movlw	1
  1575  03D1  02F5               	subwf	___fltol@exp1,f
  1576  03D2                     l516:
  1577  03D2  0875               	movf	___fltol@exp1,w
  1578  03D3  1D03               	btfss	3,2
  1579  03D4  2BD6               	goto	u871
  1580  03D5  2BD7               	goto	u870
  1581  03D6                     u871:
  1582  03D6  2BC7               	goto	l1375
  1583  03D7                     u870:
  1584  03D7                     l1377:
  1585  03D7  0874               	movf	___fltol@sign1,w
  1586  03D8  1903               	btfsc	3,2
  1587  03D9  2BDB               	goto	u881
  1588  03DA  2BDC               	goto	u880
  1589  03DB                     u881:
  1590  03DB  2BE7               	goto	l519
  1591  03DC                     u880:
  1592  03DC                     l1379:
  1593  03DC  09C8               	comf	___fltol@f1,f
  1594  03DD  09C9               	comf	___fltol@f1+1,f
  1595  03DE  09CA               	comf	___fltol@f1+2,f
  1596  03DF  09CB               	comf	___fltol@f1+3,f
  1597  03E0  0AC8               	incf	___fltol@f1,f
  1598  03E1  1903               	skipnz
  1599  03E2  0AC9               	incf	___fltol@f1+1,f
  1600  03E3  1903               	skipnz
  1601  03E4  0ACA               	incf	___fltol@f1+2,f
  1602  03E5  1903               	skipnz
  1603  03E6  0ACB               	incf	___fltol@f1+3,f
  1604  03E7                     l519:
  1605  03E7                     l509:
  1606  03E7  0008               	return
  1607  03E8                     __end_of___fltol:
  1608                           
  1609                           	psect	text5
  1610  001F                     __ptext5:	
  1611 ;; *************** function ___fldiv *****************
  1612 ;; Defined at:
  1613 ;;		line 8 in file "C:\Program Files\Microchip\xc8\v2.32\pic\sources\c90\common\sprcdiv.c"
  1614 ;; Parameters:    Size  Location     Type
  1615 ;;  a               4   14[BANK0 ] long 
  1616 ;;  b               4   18[BANK0 ] long 
  1617 ;; Auto vars:     Size  Location     Type
  1618 ;;  grs             4   34[BANK0 ] unsigned long 
  1619 ;;  rem             4   27[BANK0 ] unsigned long 
  1620 ;;  new_exp         2   32[BANK0 ] int 
  1621 ;;  aexp            1   39[BANK0 ] unsigned char 
  1622 ;;  bexp            1   38[BANK0 ] unsigned char 
  1623 ;;  sign            1   31[BANK0 ] unsigned char 
  1624 ;; Return value:  Size  Location     Type
  1625 ;;                  4   14[BANK0 ] unsigned char 
  1626 ;; Registers used:
  1627 ;;		wreg, status,2, status,0, btemp+1
  1628 ;; Tracked objects:
  1629 ;;		On entry : 0/0
  1630 ;;		On exit  : 0/0
  1631 ;;		Unchanged: 0/0
  1632 ;; Data sizes:     COMMON   BANK0   BANK1   BANK3   BANK2
  1633 ;;      Params:         0       8       0       0       0
  1634 ;;      Locals:         0      13       0       0       0
  1635 ;;      Temps:          0       5       0       0       0
  1636 ;;      Totals:         0      26       0       0       0
  1637 ;;Total ram usage:       26 bytes
  1638 ;; Hardware stack levels used: 1
  1639 ;; Hardware stack levels required when called: 1
  1640 ;; This function calls:
  1641 ;;		Nothing
  1642 ;; This function is called by:
  1643 ;;		_temp
  1644 ;; This function uses a non-reentrant model
  1645 ;;
  1646                           
  1647                           
  1648                           ;psect for function ___fldiv
  1649  001F                     ___fldiv:
  1650  001F                     l1381:	
  1651                           ;incstack = 0
  1652                           ; Regs used in ___fldiv: [wreg+status,2+status,0+btemp+1]
  1653                           
  1654  001F  1283               	bcf	3,5	;RP0=0, select bank0
  1655  0020  1303               	bcf	3,6	;RP1=0, select bank0
  1656  0021  0835               	movf	___fldiv@b+3,w
  1657  0022  3980               	andlw	128
  1658  0023  00B6               	movwf	??___fldiv
  1659  0024  0836               	movf	??___fldiv,w
  1660  0025  00BF               	movwf	___fldiv@sign
  1661  0026                     l1383:
  1662  0026  0835               	movf	___fldiv@b+3,w
  1663  0027  00B6               	movwf	??___fldiv
  1664  0028  0736               	addwf	??___fldiv,w
  1665  0029  00B7               	movwf	??___fldiv+1
  1666  002A  0837               	movf	??___fldiv+1,w
  1667  002B  00C6               	movwf	___fldiv@bexp
  1668  002C                     l1385:
  1669  002C  1FB4               	btfss	___fldiv@b+2,7
  1670  002D  282F               	goto	u891
  1671  002E  2830               	goto	u890
  1672  002F                     u891:
  1673  002F  2831               	goto	l1389
  1674  0030                     u890:
  1675  0030                     l1387:
  1676  0030  1446               	bsf	___fldiv@bexp,0
  1677  0031                     l1389:
  1678  0031  0846               	movf	___fldiv@bexp,w
  1679  0032  1903               	btfsc	3,2
  1680  0033  2835               	goto	u901
  1681  0034  2836               	goto	u900
  1682  0035                     u901:
  1683  0035  2846               	goto	l1399
  1684  0036                     u900:
  1685  0036                     l1391:
  1686  0036  0A46               	incf	___fldiv@bexp,w
  1687  0037  1D03               	btfss	3,2
  1688  0038  283A               	goto	u911
  1689  0039  283B               	goto	u910
  1690  003A                     u911:
  1691  003A  2843               	goto	l1395
  1692  003B                     u910:
  1693  003B                     l1393:
  1694  003B  3000               	movlw	0
  1695  003C  00B5               	movwf	___fldiv@b+3
  1696  003D  3000               	movlw	0
  1697  003E  00B4               	movwf	___fldiv@b+2
  1698  003F  3000               	movlw	0
  1699  0040  00B3               	movwf	___fldiv@b+1
  1700  0041  3000               	movlw	0
  1701  0042  00B2               	movwf	___fldiv@b
  1702  0043                     l1395:
  1703  0043  17B4               	bsf	___fldiv@b+2,7
  1704  0044                     l1397:
  1705  0044  01B5               	clrf	___fldiv@b+3
  1706  0045  284E               	goto	l1401
  1707  0046                     l1399:
  1708  0046  3000               	movlw	0
  1709  0047  00B5               	movwf	___fldiv@b+3
  1710  0048  3000               	movlw	0
  1711  0049  00B4               	movwf	___fldiv@b+2
  1712  004A  3000               	movlw	0
  1713  004B  00B3               	movwf	___fldiv@b+1
  1714  004C  3000               	movlw	0
  1715  004D  00B2               	movwf	___fldiv@b
  1716  004E                     l1401:
  1717  004E  0831               	movf	___fldiv@a+3,w
  1718  004F  3980               	andlw	128
  1719  0050  00B6               	movwf	??___fldiv
  1720  0051  0836               	movf	??___fldiv,w
  1721  0052  06BF               	xorwf	___fldiv@sign,f
  1722  0053                     l1403:
  1723  0053  0831               	movf	___fldiv@a+3,w
  1724  0054  00B6               	movwf	??___fldiv
  1725  0055  0736               	addwf	??___fldiv,w
  1726  0056  00B7               	movwf	??___fldiv+1
  1727  0057  0837               	movf	??___fldiv+1,w
  1728  0058  00C7               	movwf	___fldiv@aexp
  1729  0059                     l1405:
  1730  0059  1FB0               	btfss	___fldiv@a+2,7
  1731  005A  285C               	goto	u921
  1732  005B  285D               	goto	u920
  1733  005C                     u921:
  1734  005C  285E               	goto	l1409
  1735  005D                     u920:
  1736  005D                     l1407:
  1737  005D  1447               	bsf	___fldiv@aexp,0
  1738  005E                     l1409:
  1739  005E  0847               	movf	___fldiv@aexp,w
  1740  005F  1903               	btfsc	3,2
  1741  0060  2862               	goto	u931
  1742  0061  2863               	goto	u930
  1743  0062                     u931:
  1744  0062  2873               	goto	l1419
  1745  0063                     u930:
  1746  0063                     l1411:
  1747  0063  0A47               	incf	___fldiv@aexp,w
  1748  0064  1D03               	btfss	3,2
  1749  0065  2867               	goto	u941
  1750  0066  2868               	goto	u940
  1751  0067                     u941:
  1752  0067  2870               	goto	l1415
  1753  0068                     u940:
  1754  0068                     l1413:
  1755  0068  3000               	movlw	0
  1756  0069  00B1               	movwf	___fldiv@a+3
  1757  006A  3000               	movlw	0
  1758  006B  00B0               	movwf	___fldiv@a+2
  1759  006C  3000               	movlw	0
  1760  006D  00AF               	movwf	___fldiv@a+1
  1761  006E  3000               	movlw	0
  1762  006F  00AE               	movwf	___fldiv@a
  1763  0070                     l1415:
  1764  0070  17B0               	bsf	___fldiv@a+2,7
  1765  0071                     l1417:
  1766  0071  01B1               	clrf	___fldiv@a+3
  1767  0072  287B               	goto	l672
  1768  0073                     l1419:
  1769  0073  3000               	movlw	0
  1770  0074  00B1               	movwf	___fldiv@a+3
  1771  0075  3000               	movlw	0
  1772  0076  00B0               	movwf	___fldiv@a+2
  1773  0077  3000               	movlw	0
  1774  0078  00AF               	movwf	___fldiv@a+1
  1775  0079  3000               	movlw	0
  1776  007A  00AE               	movwf	___fldiv@a
  1777  007B                     l672:
  1778  007B  0831               	movf	___fldiv@a+3,w
  1779  007C  0430               	iorwf	___fldiv@a+2,w
  1780  007D  042F               	iorwf	___fldiv@a+1,w
  1781  007E  042E               	iorwf	___fldiv@a,w
  1782  007F  1D03               	skipz
  1783  0080  2882               	goto	u951
  1784  0081  2883               	goto	u950
  1785  0082                     u951:
  1786  0082  289C               	goto	l1429
  1787  0083                     u950:
  1788  0083                     l1421:
  1789  0083  3000               	movlw	0
  1790  0084  00B5               	movwf	___fldiv@b+3
  1791  0085  3000               	movlw	0
  1792  0086  00B4               	movwf	___fldiv@b+2
  1793  0087  3000               	movlw	0
  1794  0088  00B3               	movwf	___fldiv@b+1
  1795  0089  3000               	movlw	0
  1796  008A  00B2               	movwf	___fldiv@b
  1797  008B  3080               	movlw	128
  1798  008C  04B4               	iorwf	___fldiv@b+2,f
  1799  008D  307F               	movlw	127
  1800  008E  04B5               	iorwf	___fldiv@b+3,f
  1801  008F                     l1423:
  1802  008F  083F               	movf	___fldiv@sign,w
  1803  0090  00B6               	movwf	??___fldiv
  1804  0091  0836               	movf	??___fldiv,w
  1805  0092  04B5               	iorwf	___fldiv@b+3,f
  1806  0093                     l1425:
  1807  0093  0835               	movf	___fldiv@b+3,w
  1808  0094  00B1               	movwf	?___fldiv+3
  1809  0095  0834               	movf	___fldiv@b+2,w
  1810  0096  00B0               	movwf	?___fldiv+2
  1811  0097  0833               	movf	___fldiv@b+1,w
  1812  0098  00AF               	movwf	?___fldiv+1
  1813  0099  0832               	movf	___fldiv@b,w
  1814  009A  00AE               	movwf	?___fldiv
  1815  009B  29FB               	goto	l674
  1816  009C                     l1429:
  1817  009C  0846               	movf	___fldiv@bexp,w
  1818  009D  1D03               	btfss	3,2
  1819  009E  28A0               	goto	u961
  1820  009F  28A1               	goto	u960
  1821  00A0                     u961:
  1822  00A0  28AA               	goto	l1435
  1823  00A1                     u960:
  1824  00A1                     l1431:
  1825  00A1  3000               	movlw	0
  1826  00A2  00B1               	movwf	?___fldiv+3
  1827  00A3  3000               	movlw	0
  1828  00A4  00B0               	movwf	?___fldiv+2
  1829  00A5  3000               	movlw	0
  1830  00A6  00AF               	movwf	?___fldiv+1
  1831  00A7  3000               	movlw	0
  1832  00A8  00AE               	movwf	?___fldiv
  1833  00A9  29FB               	goto	l674
  1834  00AA                     l1435:
  1835  00AA  0846               	movf	___fldiv@bexp,w
  1836  00AB  00B6               	movwf	??___fldiv
  1837  00AC  01B7               	clrf	??___fldiv+1
  1838  00AD  0837               	movf	??___fldiv+1,w
  1839  00AE  00B9               	movwf	??___fldiv+3
  1840  00AF  0847               	movf	___fldiv@aexp,w
  1841  00B0  0236               	subwf	??___fldiv,w
  1842  00B1  00B8               	movwf	??___fldiv+2
  1843  00B2  1C03               	skipc
  1844  00B3  03B9               	decf	??___fldiv+3,f
  1845  00B4  0838               	movf	??___fldiv+2,w
  1846  00B5  3E7F               	addlw	127
  1847  00B6  00C0               	movwf	___fldiv@new_exp
  1848  00B7  0839               	movf	??___fldiv+3,w
  1849  00B8  1803               	skipnc
  1850  00B9  3E01               	addlw	1
  1851  00BA  3E00               	addlw	0
  1852  00BB  00C1               	movwf	___fldiv@new_exp+1
  1853  00BC                     l1437:
  1854  00BC  0835               	movf	___fldiv@b+3,w
  1855  00BD  00BE               	movwf	___fldiv@rem+3
  1856  00BE  0834               	movf	___fldiv@b+2,w
  1857  00BF  00BD               	movwf	___fldiv@rem+2
  1858  00C0  0833               	movf	___fldiv@b+1,w
  1859  00C1  00BC               	movwf	___fldiv@rem+1
  1860  00C2  0832               	movf	___fldiv@b,w
  1861  00C3  00BB               	movwf	___fldiv@rem
  1862  00C4                     l1439:
  1863  00C4  3000               	movlw	0
  1864  00C5  00B5               	movwf	___fldiv@b+3
  1865  00C6  3000               	movlw	0
  1866  00C7  00B4               	movwf	___fldiv@b+2
  1867  00C8  3000               	movlw	0
  1868  00C9  00B3               	movwf	___fldiv@b+1
  1869  00CA  3000               	movlw	0
  1870  00CB  00B2               	movwf	___fldiv@b
  1871  00CC                     l1441:
  1872  00CC  3000               	movlw	0
  1873  00CD  00C5               	movwf	___fldiv@grs+3
  1874  00CE  3000               	movlw	0
  1875  00CF  00C4               	movwf	___fldiv@grs+2
  1876  00D0  3000               	movlw	0
  1877  00D1  00C3               	movwf	___fldiv@grs+1
  1878  00D2  3000               	movlw	0
  1879  00D3  00C2               	movwf	___fldiv@grs
  1880  00D4                     l1443:
  1881  00D4  01C7               	clrf	___fldiv@aexp
  1882  00D5  2920               	goto	l1463
  1883  00D6                     l1445:
  1884  00D6  0847               	movf	___fldiv@aexp,w
  1885  00D7  1903               	btfsc	3,2
  1886  00D8  28DA               	goto	u971
  1887  00D9  28DB               	goto	u970
  1888  00DA                     u971:
  1889  00DA  28FB               	goto	l1455
  1890  00DB                     u970:
  1891  00DB                     l1447:
  1892  00DB  3001               	movlw	1
  1893  00DC  00B6               	movwf	??___fldiv
  1894  00DD                     u985:
  1895  00DD  1003               	clrc
  1896  00DE  0DBB               	rlf	___fldiv@rem,f
  1897  00DF  0DBC               	rlf	___fldiv@rem+1,f
  1898  00E0  0DBD               	rlf	___fldiv@rem+2,f
  1899  00E1  0DBE               	rlf	___fldiv@rem+3,f
  1900  00E2  0BB6               	decfsz	??___fldiv,f
  1901  00E3  28DD               	goto	u985
  1902  00E4  3001               	movlw	1
  1903  00E5  00B6               	movwf	??___fldiv
  1904  00E6                     u995:
  1905  00E6  1003               	clrc
  1906  00E7  0DB2               	rlf	___fldiv@b,f
  1907  00E8  0DB3               	rlf	___fldiv@b+1,f
  1908  00E9  0DB4               	rlf	___fldiv@b+2,f
  1909  00EA  0DB5               	rlf	___fldiv@b+3,f
  1910  00EB  0BB6               	decfsz	??___fldiv,f
  1911  00EC  28E6               	goto	u995
  1912  00ED                     l1449:
  1913  00ED  1FC5               	btfss	___fldiv@grs+3,7
  1914  00EE  28F0               	goto	u1001
  1915  00EF  28F1               	goto	u1000
  1916  00F0                     u1001:
  1917  00F0  28F2               	goto	l1453
  1918  00F1                     u1000:
  1919  00F1                     l1451:
  1920  00F1  1432               	bsf	___fldiv@b,0
  1921  00F2                     l1453:
  1922  00F2  3001               	movlw	1
  1923  00F3  00B6               	movwf	??___fldiv
  1924  00F4                     u1015:
  1925  00F4  1003               	clrc
  1926  00F5  0DC2               	rlf	___fldiv@grs,f
  1927  00F6  0DC3               	rlf	___fldiv@grs+1,f
  1928  00F7  0DC4               	rlf	___fldiv@grs+2,f
  1929  00F8  0DC5               	rlf	___fldiv@grs+3,f
  1930  00F9  0BB6               	decfsz	??___fldiv,f
  1931  00FA  28F4               	goto	u1015
  1932  00FB                     l1455:
  1933  00FB  0831               	movf	___fldiv@a+3,w
  1934  00FC  023E               	subwf	___fldiv@rem+3,w
  1935  00FD  1D03               	skipz
  1936  00FE  2909               	goto	u1025
  1937  00FF  0830               	movf	___fldiv@a+2,w
  1938  0100  023D               	subwf	___fldiv@rem+2,w
  1939  0101  1D03               	skipz
  1940  0102  2909               	goto	u1025
  1941  0103  082F               	movf	___fldiv@a+1,w
  1942  0104  023C               	subwf	___fldiv@rem+1,w
  1943  0105  1D03               	skipz
  1944  0106  2909               	goto	u1025
  1945  0107  082E               	movf	___fldiv@a,w
  1946  0108  023B               	subwf	___fldiv@rem,w
  1947  0109                     u1025:
  1948  0109  1C03               	skipc
  1949  010A  290C               	goto	u1021
  1950  010B  290D               	goto	u1020
  1951  010C                     u1021:
  1952  010C  291C               	goto	l1461
  1953  010D                     u1020:
  1954  010D                     l1457:
  1955  010D  1745               	bsf	___fldiv@grs+3,6
  1956  010E                     l1459:
  1957  010E  082E               	movf	___fldiv@a,w
  1958  010F  02BB               	subwf	___fldiv@rem,f
  1959  0110  082F               	movf	___fldiv@a+1,w
  1960  0111  1C03               	skipc
  1961  0112  0F2F               	incfsz	___fldiv@a+1,w
  1962  0113  02BC               	subwf	___fldiv@rem+1,f
  1963  0114  0830               	movf	___fldiv@a+2,w
  1964  0115  1C03               	skipc
  1965  0116  0F30               	incfsz	___fldiv@a+2,w
  1966  0117  02BD               	subwf	___fldiv@rem+2,f
  1967  0118  0831               	movf	___fldiv@a+3,w
  1968  0119  1C03               	skipc
  1969  011A  0F31               	incfsz	___fldiv@a+3,w
  1970  011B  02BE               	subwf	___fldiv@rem+3,f
  1971  011C                     l1461:
  1972  011C  3001               	movlw	1
  1973  011D  00B6               	movwf	??___fldiv
  1974  011E  0836               	movf	??___fldiv,w
  1975  011F  07C7               	addwf	___fldiv@aexp,f
  1976  0120                     l1463:
  1977  0120  301A               	movlw	26
  1978  0121  0247               	subwf	___fldiv@aexp,w
  1979  0122  1C03               	skipc
  1980  0123  2925               	goto	u1031
  1981  0124  2926               	goto	u1030
  1982  0125                     u1031:
  1983  0125  28D6               	goto	l1445
  1984  0126                     u1030:
  1985  0126                     l1465:
  1986  0126  083E               	movf	___fldiv@rem+3,w
  1987  0127  043D               	iorwf	___fldiv@rem+2,w
  1988  0128  043C               	iorwf	___fldiv@rem+1,w
  1989  0129  043B               	iorwf	___fldiv@rem,w
  1990  012A  1903               	skipnz
  1991  012B  292D               	goto	u1041
  1992  012C  292E               	goto	u1040
  1993  012D                     u1041:
  1994  012D  294D               	goto	l1479
  1995  012E                     u1040:
  1996  012E                     l1467:
  1997  012E  1442               	bsf	___fldiv@grs,0
  1998  012F  294D               	goto	l1479
  1999  0130                     l1469:
  2000  0130  3001               	movlw	1
  2001  0131  00B6               	movwf	??___fldiv
  2002  0132                     u1055:
  2003  0132  1003               	clrc
  2004  0133  0DB2               	rlf	___fldiv@b,f
  2005  0134  0DB3               	rlf	___fldiv@b+1,f
  2006  0135  0DB4               	rlf	___fldiv@b+2,f
  2007  0136  0DB5               	rlf	___fldiv@b+3,f
  2008  0137  0BB6               	decfsz	??___fldiv,f
  2009  0138  2932               	goto	u1055
  2010  0139                     l1471:
  2011  0139  1FC5               	btfss	___fldiv@grs+3,7
  2012  013A  293C               	goto	u1061
  2013  013B  293D               	goto	u1060
  2014  013C                     u1061:
  2015  013C  293E               	goto	l1475
  2016  013D                     u1060:
  2017  013D                     l1473:
  2018  013D  1432               	bsf	___fldiv@b,0
  2019  013E                     l1475:
  2020  013E  3001               	movlw	1
  2021  013F  00B6               	movwf	??___fldiv
  2022  0140                     u1075:
  2023  0140  1003               	clrc
  2024  0141  0DC2               	rlf	___fldiv@grs,f
  2025  0142  0DC3               	rlf	___fldiv@grs+1,f
  2026  0143  0DC4               	rlf	___fldiv@grs+2,f
  2027  0144  0DC5               	rlf	___fldiv@grs+3,f
  2028  0145  0BB6               	decfsz	??___fldiv,f
  2029  0146  2940               	goto	u1075
  2030  0147                     l1477:
  2031  0147  30FF               	movlw	255
  2032  0148  07C0               	addwf	___fldiv@new_exp,f
  2033  0149  1803               	skipnc
  2034  014A  0AC1               	incf	___fldiv@new_exp+1,f
  2035  014B  30FF               	movlw	255
  2036  014C  07C1               	addwf	___fldiv@new_exp+1,f
  2037  014D                     l1479:
  2038  014D  1FB4               	btfss	___fldiv@b+2,7
  2039  014E  2950               	goto	u1081
  2040  014F  2951               	goto	u1080
  2041  0150                     u1081:
  2042  0150  2930               	goto	l1469
  2043  0151                     u1080:
  2044  0151                     l1481:
  2045  0151  01C7               	clrf	___fldiv@aexp
  2046  0152                     l1483:
  2047  0152  1FC5               	btfss	___fldiv@grs+3,7
  2048  0153  2955               	goto	u1091
  2049  0154  2956               	goto	u1090
  2050  0155                     u1091:
  2051  0155  2972               	goto	l1491
  2052  0156                     u1090:
  2053  0156                     l1485:
  2054  0156  30FF               	movlw	255
  2055  0157  0542               	andwf	___fldiv@grs,w
  2056  0158  00B6               	movwf	??___fldiv
  2057  0159  30FF               	movlw	255
  2058  015A  0543               	andwf	___fldiv@grs+1,w
  2059  015B  00B7               	movwf	??___fldiv+1
  2060  015C  30FF               	movlw	255
  2061  015D  0544               	andwf	___fldiv@grs+2,w
  2062  015E  00B8               	movwf	??___fldiv+2
  2063  015F  307F               	movlw	127
  2064  0160  0545               	andwf	___fldiv@grs+3,w
  2065  0161  00B9               	movwf	??___fldiv+3
  2066  0162  0839               	movf	??___fldiv+3,w
  2067  0163  0438               	iorwf	??___fldiv+2,w
  2068  0164  0437               	iorwf	??___fldiv+1,w
  2069  0165  0436               	iorwf	??___fldiv,w
  2070  0166  1903               	skipnz
  2071  0167  2969               	goto	u1101
  2072  0168  296A               	goto	u1100
  2073  0169                     u1101:
  2074  0169  296D               	goto	l688
  2075  016A                     u1100:
  2076  016A                     l1487:
  2077  016A  01C7               	clrf	___fldiv@aexp
  2078  016B  0AC7               	incf	___fldiv@aexp,f
  2079  016C  2972               	goto	l1491
  2080  016D                     l688:
  2081  016D  1C32               	btfss	___fldiv@b,0
  2082  016E  2970               	goto	u1111
  2083  016F  2971               	goto	u1110
  2084  0170                     u1111:
  2085  0170  2972               	goto	l1491
  2086  0171                     u1110:
  2087  0171  296A               	goto	l1487
  2088  0172                     l1491:
  2089  0172  0847               	movf	___fldiv@aexp,w
  2090  0173  1903               	btfsc	3,2
  2091  0174  2976               	goto	u1121
  2092  0175  2977               	goto	u1120
  2093  0176                     u1121:
  2094  0176  29A8               	goto	l1501
  2095  0177                     u1120:
  2096  0177                     l1493:
  2097  0177  3001               	movlw	1
  2098  0178  07B2               	addwf	___fldiv@b,f
  2099  0179  3000               	movlw	0
  2100  017A  1803               	skipnc
  2101  017B  3001               	movlw	1
  2102  017C  07B3               	addwf	___fldiv@b+1,f
  2103  017D  3000               	movlw	0
  2104  017E  1803               	skipnc
  2105  017F  3001               	movlw	1
  2106  0180  07B4               	addwf	___fldiv@b+2,f
  2107  0181  3000               	movlw	0
  2108  0182  1803               	skipnc
  2109  0183  3001               	movlw	1
  2110  0184  07B5               	addwf	___fldiv@b+3,f
  2111  0185                     l1495:
  2112  0185  1C35               	btfss	___fldiv@b+3,0
  2113  0186  2988               	goto	u1131
  2114  0187  2989               	goto	u1130
  2115  0188                     u1131:
  2116  0188  29A8               	goto	l1501
  2117  0189                     u1130:
  2118  0189                     l1497:
  2119  0189  0832               	movf	___fldiv@b,w
  2120  018A  00B6               	movwf	??___fldiv
  2121  018B  0833               	movf	___fldiv@b+1,w
  2122  018C  00B7               	movwf	??___fldiv+1
  2123  018D  0834               	movf	___fldiv@b+2,w
  2124  018E  00B8               	movwf	??___fldiv+2
  2125  018F  0835               	movf	___fldiv@b+3,w
  2126  0190  00B9               	movwf	??___fldiv+3
  2127  0191  3001               	movlw	1
  2128  0192  00BA               	movwf	??___fldiv+4
  2129  0193                     u1145:
  2130  0193  0D39               	rlf	??___fldiv+3,w
  2131  0194  0CB9               	rrf	??___fldiv+3,f
  2132  0195  0CB8               	rrf	??___fldiv+2,f
  2133  0196  0CB7               	rrf	??___fldiv+1,f
  2134  0197  0CB6               	rrf	??___fldiv,f
  2135  0198                     u1140:
  2136  0198  0BBA               	decfsz	??___fldiv+4,f
  2137  0199  2993               	goto	u1145
  2138  019A  0839               	movf	??___fldiv+3,w
  2139  019B  00B5               	movwf	___fldiv@b+3
  2140  019C  0838               	movf	??___fldiv+2,w
  2141  019D  00B4               	movwf	___fldiv@b+2
  2142  019E  0837               	movf	??___fldiv+1,w
  2143  019F  00B3               	movwf	___fldiv@b+1
  2144  01A0  0836               	movf	??___fldiv,w
  2145  01A1  00B2               	movwf	___fldiv@b
  2146  01A2                     l1499:
  2147  01A2  3001               	movlw	1
  2148  01A3  07C0               	addwf	___fldiv@new_exp,f
  2149  01A4  1803               	skipnc
  2150  01A5  0AC1               	incf	___fldiv@new_exp+1,f
  2151  01A6  3000               	movlw	0
  2152  01A7  07C1               	addwf	___fldiv@new_exp+1,f
  2153  01A8                     l1501:
  2154  01A8  0841               	movf	___fldiv@new_exp+1,w
  2155  01A9  3A80               	xorlw	128
  2156  01AA  00FF               	movwf	btemp+1
  2157  01AB  3080               	movlw	128
  2158  01AC  027F               	subwf	btemp+1,w
  2159  01AD  1D03               	skipz
  2160  01AE  29B1               	goto	u1155
  2161  01AF  30FF               	movlw	255
  2162  01B0  0240               	subwf	___fldiv@new_exp,w
  2163  01B1                     u1155:
  2164  01B1  1C03               	skipc
  2165  01B2  29B4               	goto	u1151
  2166  01B3  29B5               	goto	u1150
  2167  01B4                     u1151:
  2168  01B4  29C3               	goto	l1505
  2169  01B5                     u1150:
  2170  01B5                     l1503:
  2171  01B5  30FF               	movlw	255
  2172  01B6  1283               	bcf	3,5	;RP0=0, select bank0
  2173  01B7  1303               	bcf	3,6	;RP1=0, select bank0
  2174  01B8  00C0               	movwf	___fldiv@new_exp
  2175  01B9  3000               	movlw	0
  2176  01BA  00C1               	movwf	___fldiv@new_exp+1
  2177  01BB  3000               	movlw	0
  2178  01BC  00B5               	movwf	___fldiv@b+3
  2179  01BD  3000               	movlw	0
  2180  01BE  00B4               	movwf	___fldiv@b+2
  2181  01BF  3000               	movlw	0
  2182  01C0  00B3               	movwf	___fldiv@b+1
  2183  01C1  3000               	movlw	0
  2184  01C2  00B2               	movwf	___fldiv@b
  2185  01C3                     l1505:
  2186  01C3  1283               	bcf	3,5	;RP0=0, select bank0
  2187  01C4  1303               	bcf	3,6	;RP1=0, select bank0
  2188  01C5  0841               	movf	___fldiv@new_exp+1,w
  2189  01C6  3A80               	xorlw	128
  2190  01C7  00FF               	movwf	btemp+1
  2191  01C8  3080               	movlw	128
  2192  01C9  027F               	subwf	btemp+1,w
  2193  01CA  1D03               	skipz
  2194  01CB  29CE               	goto	u1165
  2195  01CC  3001               	movlw	1
  2196  01CD  0240               	subwf	___fldiv@new_exp,w
  2197  01CE                     u1165:
  2198  01CE  1803               	skipnc
  2199  01CF  29D1               	goto	u1161
  2200  01D0  29D2               	goto	u1160
  2201  01D1                     u1161:
  2202  01D1  29DF               	goto	l694
  2203  01D2                     u1160:
  2204  01D2                     l1507:
  2205  01D2  1283               	bcf	3,5	;RP0=0, select bank0
  2206  01D3  1303               	bcf	3,6	;RP1=0, select bank0
  2207  01D4  01C0               	clrf	___fldiv@new_exp
  2208  01D5  01C1               	clrf	___fldiv@new_exp+1
  2209  01D6                     l1509:
  2210  01D6  3000               	movlw	0
  2211  01D7  00B5               	movwf	___fldiv@b+3
  2212  01D8  3000               	movlw	0
  2213  01D9  00B4               	movwf	___fldiv@b+2
  2214  01DA  3000               	movlw	0
  2215  01DB  00B3               	movwf	___fldiv@b+1
  2216  01DC  3000               	movlw	0
  2217  01DD  00B2               	movwf	___fldiv@b
  2218  01DE                     l1511:
  2219  01DE  01BF               	clrf	___fldiv@sign
  2220  01DF                     l694:
  2221  01DF  1283               	bcf	3,5	;RP0=0, select bank0
  2222  01E0  1303               	bcf	3,6	;RP1=0, select bank0
  2223  01E1  0840               	movf	___fldiv@new_exp,w
  2224  01E2  00B6               	movwf	??___fldiv
  2225  01E3  0836               	movf	??___fldiv,w
  2226  01E4  00C6               	movwf	___fldiv@bexp
  2227  01E5                     l1513:
  2228  01E5  1C46               	btfss	___fldiv@bexp,0
  2229  01E6  29E8               	goto	u1171
  2230  01E7  29E9               	goto	u1170
  2231  01E8                     u1171:
  2232  01E8  29EB               	goto	l1517
  2233  01E9                     u1170:
  2234  01E9                     l1515:
  2235  01E9  17B4               	bsf	___fldiv@b+2,7
  2236  01EA  29EF               	goto	l696
  2237  01EB                     l1517:
  2238  01EB  307F               	movlw	127
  2239  01EC  00B6               	movwf	??___fldiv
  2240  01ED  0836               	movf	??___fldiv,w
  2241  01EE  05B4               	andwf	___fldiv@b+2,f
  2242  01EF                     l696:
  2243  01EF  0846               	movf	___fldiv@bexp,w
  2244  01F0  00B6               	movwf	??___fldiv
  2245  01F1  1003               	clrc
  2246  01F2  0C36               	rrf	??___fldiv,w
  2247  01F3  00B7               	movwf	??___fldiv+1
  2248  01F4  0837               	movf	??___fldiv+1,w
  2249  01F5  00B5               	movwf	___fldiv@b+3
  2250  01F6  083F               	movf	___fldiv@sign,w
  2251  01F7  00B6               	movwf	??___fldiv
  2252  01F8  0836               	movf	??___fldiv,w
  2253  01F9  04B5               	iorwf	___fldiv@b+3,f
  2254  01FA  2893               	goto	l1425
  2255  01FB                     l674:
  2256  01FB  0008               	return
  2257  01FC                     __end_of___fldiv:
  2258                           
  2259                           	psect	text6
  2260  043D                     __ptext6:	
  2261 ;; *************** function _setup *****************
  2262 ;; Defined at:
  2263 ;;		line 183 in file "C:/Users/Andy Bonilla/Documents/GitHub/ED2/Proyecto1_ED2/PIC_motores.X/Main_motores.c"
  2264 ;; Parameters:    Size  Location     Type
  2265 ;;		None
  2266 ;; Auto vars:     Size  Location     Type
  2267 ;;		None
  2268 ;; Return value:  Size  Location     Type
  2269 ;;                  1    wreg      void 
  2270 ;; Registers used:
  2271 ;;		wreg, fsr0l, fsr0h, status,2, status,0, pclath, cstack
  2272 ;; Tracked objects:
  2273 ;;		On entry : 0/0
  2274 ;;		On exit  : 0/0
  2275 ;;		Unchanged: 0/0
  2276 ;; Data sizes:     COMMON   BANK0   BANK1   BANK3   BANK2
  2277 ;;      Params:         0       0       0       0       0
  2278 ;;      Locals:         0       0       0       0       0
  2279 ;;      Temps:          0       0       0       0       0
  2280 ;;      Totals:         0       0       0       0       0
  2281 ;;Total ram usage:        0 bytes
  2282 ;; Hardware stack levels used: 1
  2283 ;; Hardware stack levels required when called: 2
  2284 ;; This function calls:
  2285 ;;		_ADC_config
  2286 ;;		_I2C_Slave_Init
  2287 ;;		_osc_config
  2288 ;; This function is called by:
  2289 ;;		_main
  2290 ;; This function uses a non-reentrant model
  2291 ;;
  2292                           
  2293                           
  2294                           ;psect for function _setup
  2295  043D                     _setup:
  2296  043D                     l1095:	
  2297                           ;incstack = 0
  2298                           ; Regs used in _setup: [wreg-fsr0h+status,2+status,0+pclath+cstack]
  2299                           
  2300                           
  2301                           ;Main_motores.c: 186: ANSEL=0;
  2302  043D  1683               	bsf	3,5	;RP0=1, select bank3
  2303  043E  1703               	bsf	3,6	;RP1=1, select bank3
  2304  043F  0188               	clrf	8	;volatile
  2305                           
  2306                           ;Main_motores.c: 187: ANSELH=0;
  2307  0440  0189               	clrf	9	;volatile
  2308  0441                     l1097:
  2309                           
  2310                           ;Main_motores.c: 188: ANSELbits.ANS0=1;
  2311  0441  1408               	bsf	8,0	;volatile
  2312  0442                     l1099:
  2313                           
  2314                           ;Main_motores.c: 189: ANSELbits.ANS1=1;
  2315  0442  1488               	bsf	8,1	;volatile
  2316  0443                     l1101:
  2317                           
  2318                           ;Main_motores.c: 191: TRISDbits.TRISD0=0;
  2319  0443  1683               	bsf	3,5	;RP0=1, select bank1
  2320  0444  1303               	bcf	3,6	;RP1=0, select bank1
  2321  0445  1008               	bcf	8,0	;volatile
  2322  0446                     l1103:
  2323                           
  2324                           ;Main_motores.c: 192: TRISBbits.TRISB1=1;
  2325  0446  1486               	bsf	6,1	;volatile
  2326  0447                     l1105:
  2327                           
  2328                           ;Main_motores.c: 193: TRISCbits.TRISC2=0;
  2329  0447  1107               	bcf	7,2	;volatile
  2330                           
  2331                           ;Main_motores.c: 194: TRISD=0;
  2332  0448  0188               	clrf	8	;volatile
  2333  0449                     l1107:
  2334                           
  2335                           ;Main_motores.c: 195: TRISEbits.TRISE0=0;
  2336  0449  1009               	bcf	9,0	;volatile
  2337                           
  2338                           ;Main_motores.c: 198: PORTB=0;
  2339  044A  1283               	bcf	3,5	;RP0=0, select bank0
  2340  044B  1303               	bcf	3,6	;RP1=0, select bank0
  2341  044C  0186               	clrf	6	;volatile
  2342                           
  2343                           ;Main_motores.c: 199: PORTC=0;
  2344  044D  0187               	clrf	7	;volatile
  2345                           
  2346                           ;Main_motores.c: 200: PORTD=0;
  2347  044E  0188               	clrf	8	;volatile
  2348                           
  2349                           ;Main_motores.c: 201: PORTE=0;
  2350  044F  0189               	clrf	9	;volatile
  2351  0450                     l1109:
  2352                           
  2353                           ;Main_motores.c: 203: osc_config(4);
  2354  0450  3004               	movlw	4
  2355  0451  120A  118A  24CE  120A  118A  	fcall	_osc_config
  2356  0456                     l1111:
  2357                           
  2358                           ;Main_motores.c: 205: ADC_config();
  2359  0456  120A  118A  2517  120A  118A  	fcall	_ADC_config
  2360  045B                     l1113:
  2361                           
  2362                           ;Main_motores.c: 207: OPTION_REGbits.T0CS = 0;
  2363  045B  1683               	bsf	3,5	;RP0=1, select bank1
  2364  045C  1303               	bcf	3,6	;RP1=0, select bank1
  2365  045D  1281               	bcf	1,5	;volatile
  2366  045E                     l1115:
  2367                           
  2368                           ;Main_motores.c: 208: OPTION_REGbits.PSA = 0;
  2369  045E  1181               	bcf	1,3	;volatile
  2370  045F                     l1117:
  2371                           
  2372                           ;Main_motores.c: 209: OPTION_REGbits.PS = 0b111;
  2373  045F  3007               	movlw	7
  2374  0460  0481               	iorwf	1,f	;volatile
  2375  0461                     l1119:
  2376                           
  2377                           ;Main_motores.c: 210: TMR0 = 78;
  2378  0461  304E               	movlw	78
  2379  0462  1283               	bcf	3,5	;RP0=0, select bank0
  2380  0463  1303               	bcf	3,6	;RP1=0, select bank0
  2381  0464  0081               	movwf	1	;volatile
  2382  0465                     l1121:
  2383                           
  2384                           ;Main_motores.c: 212: TRISCbits.TRISC2=1;
  2385  0465  1683               	bsf	3,5	;RP0=1, select bank1
  2386  0466  1303               	bcf	3,6	;RP1=0, select bank1
  2387  0467  1507               	bsf	7,2	;volatile
  2388  0468                     l1123:
  2389                           
  2390                           ;Main_motores.c: 213: CCP1CONbits.P1M = 0;
  2391  0468  303F               	movlw	-193
  2392  0469  1283               	bcf	3,5	;RP0=0, select bank0
  2393  046A  1303               	bcf	3,6	;RP1=0, select bank0
  2394  046B  0597               	andwf	23,f	;volatile
  2395  046C                     l1125:
  2396                           
  2397                           ;Main_motores.c: 214: CCP1CONbits.CCP1M = 0b1100;
  2398  046C  0817               	movf	23,w	;volatile
  2399  046D  39F0               	andlw	-16
  2400  046E  380C               	iorlw	12
  2401  046F  0097               	movwf	23	;volatile
  2402  0470                     l1127:
  2403                           
  2404                           ;Main_motores.c: 215: CCPR1L = 0x0f ;
  2405  0470  300F               	movlw	15
  2406  0471  0095               	movwf	21	;volatile
  2407  0472                     l1129:
  2408                           
  2409                           ;Main_motores.c: 216: CCP1CONbits.DC1B = 0;
  2410  0472  30CF               	movlw	-49
  2411  0473  0597               	andwf	23,f	;volatile
  2412  0474                     l1131:
  2413                           
  2414                           ;Main_motores.c: 219: OPTION_REGbits.nRBPU=0;
  2415  0474  1683               	bsf	3,5	;RP0=1, select bank1
  2416  0475  1303               	bcf	3,6	;RP1=0, select bank1
  2417  0476  1381               	bcf	1,7	;volatile
  2418  0477                     l1133:
  2419                           
  2420                           ;Main_motores.c: 220: WPUBbits.WPUB1=1;
  2421  0477  1495               	bsf	21,1	;volatile
  2422  0478                     l1135:
  2423                           
  2424                           ;Main_motores.c: 222: I2C_Slave_Init(0x60);
  2425  0478  3060               	movlw	96
  2426  0479  120A  118A  24FD  120A  118A  	fcall	_I2C_Slave_Init
  2427  047E                     l1137:
  2428                           
  2429                           ;Main_motores.c: 224: INTCONbits.GIE=1;
  2430  047E  178B               	bsf	11,7	;volatile
  2431  047F                     l1139:
  2432                           
  2433                           ;Main_motores.c: 225: INTCONbits.PEIE = 1;
  2434  047F  170B               	bsf	11,6	;volatile
  2435  0480                     l1141:
  2436                           
  2437                           ;Main_motores.c: 226: INTCONbits.RBIE=1;
  2438  0480  158B               	bsf	11,3	;volatile
  2439  0481                     l1143:
  2440                           
  2441                           ;Main_motores.c: 227: INTCONbits.RBIF=0;
  2442  0481  100B               	bcf	11,0	;volatile
  2443  0482                     l1145:
  2444                           
  2445                           ;Main_motores.c: 228: IOCBbits.IOCB1=1;
  2446  0482  1683               	bsf	3,5	;RP0=1, select bank1
  2447  0483  1303               	bcf	3,6	;RP1=0, select bank1
  2448  0484  1496               	bsf	22,1	;volatile
  2449  0485                     l126:
  2450  0485  0008               	return
  2451  0486                     __end_of_setup:
  2452                           
  2453                           	psect	text7
  2454  04CE                     __ptext7:	
  2455 ;; *************** function _osc_config *****************
  2456 ;; Defined at:
  2457 ;;		line 16 in file "C:/Users/Andy Bonilla/Documents/GitHub/ED2/Proyecto1_ED2/PIC_motores.X/Osc_config.c"
  2458 ;; Parameters:    Size  Location     Type
  2459 ;;  freq            1    wreg     unsigned char 
  2460 ;; Auto vars:     Size  Location     Type
  2461 ;;  freq            1    4[COMMON] unsigned char 
  2462 ;; Return value:  Size  Location     Type
  2463 ;;                  1    wreg      void 
  2464 ;; Registers used:
  2465 ;;		wreg, fsr0l, fsr0h, status,2, status,0
  2466 ;; Tracked objects:
  2467 ;;		On entry : 0/0
  2468 ;;		On exit  : 0/0
  2469 ;;		Unchanged: 0/0
  2470 ;; Data sizes:     COMMON   BANK0   BANK1   BANK3   BANK2
  2471 ;;      Params:         0       0       0       0       0
  2472 ;;      Locals:         1       0       0       0       0
  2473 ;;      Temps:          0       0       0       0       0
  2474 ;;      Totals:         1       0       0       0       0
  2475 ;;Total ram usage:        1 bytes
  2476 ;; Hardware stack levels used: 1
  2477 ;; Hardware stack levels required when called: 1
  2478 ;; This function calls:
  2479 ;;		Nothing
  2480 ;; This function is called by:
  2481 ;;		_setup
  2482 ;; This function uses a non-reentrant model
  2483 ;;
  2484                           
  2485                           
  2486                           ;psect for function _osc_config
  2487  04CE                     _osc_config:
  2488                           
  2489                           ;incstack = 0
  2490                           ; Regs used in _osc_config: [wreg-fsr0h+status,2+status,0]
  2491                           ;osc_config@freq stored from wreg
  2492  04CE  00F4               	movwf	osc_config@freq
  2493  04CF                     l829:
  2494                           
  2495                           ;Osc_config.c: 18: switch(freq)
  2496  04CF  2CEE               	goto	l849
  2497  04D0                     l831:
  2498                           
  2499                           ;Osc_config.c: 21: OSCCONbits.IRCF=0b100;
  2500  04D0  1683               	bsf	3,5	;RP0=1, select bank1
  2501  04D1  1303               	bcf	3,6	;RP1=0, select bank1
  2502  04D2  080F               	movf	15,w	;volatile
  2503  04D3  398F               	andlw	-113
  2504  04D4  3840               	iorlw	64
  2505  04D5  008F               	movwf	15	;volatile
  2506  04D6                     l833:
  2507                           
  2508                           ;Osc_config.c: 22: OSCCONbits.SCS=1;
  2509  04D6  140F               	bsf	15,0	;volatile
  2510                           
  2511                           ;Osc_config.c: 23: break;
  2512  04D7  2CFC               	goto	l215
  2513  04D8                     l835:
  2514                           
  2515                           ;Osc_config.c: 26: OSCCONbits.IRCF=0b101;
  2516  04D8  1683               	bsf	3,5	;RP0=1, select bank1
  2517  04D9  1303               	bcf	3,6	;RP1=0, select bank1
  2518  04DA  080F               	movf	15,w	;volatile
  2519  04DB  398F               	andlw	-113
  2520  04DC  3850               	iorlw	80
  2521  04DD  008F               	movwf	15	;volatile
  2522  04DE                     l837:
  2523                           
  2524                           ;Osc_config.c: 27: OSCCONbits.SCS=1;
  2525  04DE  140F               	bsf	15,0	;volatile
  2526                           
  2527                           ;Osc_config.c: 28: break;
  2528  04DF  2CFC               	goto	l215
  2529  04E0                     l839:
  2530                           
  2531                           ;Osc_config.c: 31: OSCCONbits.IRCF=0b110;
  2532  04E0  1683               	bsf	3,5	;RP0=1, select bank1
  2533  04E1  1303               	bcf	3,6	;RP1=0, select bank1
  2534  04E2  080F               	movf	15,w	;volatile
  2535  04E3  398F               	andlw	-113
  2536  04E4  3860               	iorlw	96
  2537  04E5  008F               	movwf	15	;volatile
  2538  04E6                     l841:
  2539                           
  2540                           ;Osc_config.c: 32: OSCCONbits.SCS=1;
  2541  04E6  140F               	bsf	15,0	;volatile
  2542                           
  2543                           ;Osc_config.c: 33: break;
  2544  04E7  2CFC               	goto	l215
  2545  04E8                     l843:
  2546                           
  2547                           ;Osc_config.c: 36: OSCCONbits.IRCF=0b111;
  2548  04E8  3070               	movlw	112
  2549  04E9  1683               	bsf	3,5	;RP0=1, select bank1
  2550  04EA  1303               	bcf	3,6	;RP1=0, select bank1
  2551  04EB  048F               	iorwf	15,f	;volatile
  2552  04EC                     l845:
  2553                           
  2554                           ;Osc_config.c: 37: OSCCONbits.SCS=1;
  2555  04EC  140F               	bsf	15,0	;volatile
  2556                           
  2557                           ;Osc_config.c: 38: break;
  2558  04ED  2CFC               	goto	l215
  2559  04EE                     l849:
  2560  04EE  0874               	movf	osc_config@freq,w
  2561                           
  2562                           ; Switch size 1, requested type "simple"
  2563                           ; Number of cases is 4, Range of values is 1 to 8
  2564                           ; switch strategies available:
  2565                           ; Name         Instructions Cycles
  2566                           ; simple_byte           13     7 (average)
  2567                           ; direct_byte           35    11 (fixed)
  2568                           ; jumptable            263     9 (fixed)
  2569                           ;	Chosen strategy is simple_byte
  2570  04EF  3A01               	xorlw	1	; case 1
  2571  04F0  1903               	skipnz
  2572  04F1  2CD0               	goto	l831
  2573  04F2  3A03               	xorlw	3	; case 2
  2574  04F3  1903               	skipnz
  2575  04F4  2CD8               	goto	l835
  2576  04F5  3A06               	xorlw	6	; case 4
  2577  04F6  1903               	skipnz
  2578  04F7  2CE0               	goto	l839
  2579  04F8  3A0C               	xorlw	12	; case 8
  2580  04F9  1903               	skipnz
  2581  04FA  2CE8               	goto	l843
  2582  04FB  2CFC               	goto	l215
  2583  04FC                     l215:
  2584  04FC  0008               	return
  2585  04FD                     __end_of_osc_config:
  2586                           
  2587                           	psect	text8
  2588  04FD                     __ptext8:	
  2589 ;; *************** function _I2C_Slave_Init *****************
  2590 ;; Defined at:
  2591 ;;		line 93 in file "C:/Users/Andy Bonilla/Documents/GitHub/ED2/Proyecto1_ED2/PIC_motores.X/I2C.c"
  2592 ;; Parameters:    Size  Location     Type
  2593 ;;  address         1    wreg     unsigned char 
  2594 ;; Auto vars:     Size  Location     Type
  2595 ;;  address         1    4[COMMON] unsigned char 
  2596 ;; Return value:  Size  Location     Type
  2597 ;;                  1    wreg      void 
  2598 ;; Registers used:
  2599 ;;		wreg
  2600 ;; Tracked objects:
  2601 ;;		On entry : 0/0
  2602 ;;		On exit  : 0/0
  2603 ;;		Unchanged: 0/0
  2604 ;; Data sizes:     COMMON   BANK0   BANK1   BANK3   BANK2
  2605 ;;      Params:         0       0       0       0       0
  2606 ;;      Locals:         1       0       0       0       0
  2607 ;;      Temps:          0       0       0       0       0
  2608 ;;      Totals:         1       0       0       0       0
  2609 ;;Total ram usage:        1 bytes
  2610 ;; Hardware stack levels used: 1
  2611 ;; Hardware stack levels required when called: 1
  2612 ;; This function calls:
  2613 ;;		Nothing
  2614 ;; This function is called by:
  2615 ;;		_setup
  2616 ;; This function uses a non-reentrant model
  2617 ;;
  2618                           
  2619                           
  2620                           ;psect for function _I2C_Slave_Init
  2621  04FD                     _I2C_Slave_Init:
  2622                           
  2623                           ;incstack = 0
  2624                           ; Regs used in _I2C_Slave_Init: [wreg]
  2625                           ;I2C_Slave_Init@address stored from wreg
  2626  04FD  00F4               	movwf	I2C_Slave_Init@address
  2627  04FE                     l859:
  2628                           
  2629                           ;I2C.c: 95: SSPADD = address;
  2630  04FE  0874               	movf	I2C_Slave_Init@address,w
  2631  04FF  1683               	bsf	3,5	;RP0=1, select bank1
  2632  0500  1303               	bcf	3,6	;RP1=0, select bank1
  2633  0501  0093               	movwf	19	;volatile
  2634                           
  2635                           ;I2C.c: 96: SSPCON = 0x36;
  2636  0502  3036               	movlw	54
  2637  0503  1283               	bcf	3,5	;RP0=0, select bank0
  2638  0504  1303               	bcf	3,6	;RP1=0, select bank0
  2639  0505  0094               	movwf	20	;volatile
  2640                           
  2641                           ;I2C.c: 97: SSPSTAT = 0x80;
  2642  0506  3080               	movlw	128
  2643  0507  1683               	bsf	3,5	;RP0=1, select bank1
  2644  0508  1303               	bcf	3,6	;RP1=0, select bank1
  2645  0509  0094               	movwf	20	;volatile
  2646                           
  2647                           ;I2C.c: 98: SSPCON2 = 0x01;
  2648  050A  3001               	movlw	1
  2649  050B  0091               	movwf	17	;volatile
  2650  050C                     l861:
  2651                           
  2652                           ;I2C.c: 99: TRISC3 = 1;
  2653  050C  1587               	bsf	7,3	;volatile
  2654  050D                     l863:
  2655                           
  2656                           ;I2C.c: 100: TRISC4 = 1;
  2657  050D  1607               	bsf	7,4	;volatile
  2658  050E                     l865:
  2659                           
  2660                           ;I2C.c: 101: GIE = 1;
  2661  050E  178B               	bsf	11,7	;volatile
  2662  050F                     l867:
  2663                           
  2664                           ;I2C.c: 102: PEIE = 1;
  2665  050F  170B               	bsf	11,6	;volatile
  2666  0510                     l869:
  2667                           
  2668                           ;I2C.c: 103: SSPIF = 0;
  2669  0510  1283               	bcf	3,5	;RP0=0, select bank0
  2670  0511  1303               	bcf	3,6	;RP1=0, select bank0
  2671  0512  118C               	bcf	12,3	;volatile
  2672  0513                     l871:
  2673                           
  2674                           ;I2C.c: 104: SSPIE = 1;
  2675  0513  1683               	bsf	3,5	;RP0=1, select bank1
  2676  0514  1303               	bcf	3,6	;RP1=0, select bank1
  2677  0515  158C               	bsf	12,3	;volatile
  2678  0516                     l204:
  2679  0516  0008               	return
  2680  0517                     __end_of_I2C_Slave_Init:
  2681                           
  2682                           	psect	text9
  2683  0517                     __ptext9:	
  2684 ;; *************** function _ADC_config *****************
  2685 ;; Defined at:
  2686 ;;		line 22 in file "C:/Users/Andy Bonilla/Documents/GitHub/ED2/Proyecto1_ED2/PIC_motores.X/ADC_CONFIG.c"
  2687 ;; Parameters:    Size  Location     Type
  2688 ;;		None
  2689 ;; Auto vars:     Size  Location     Type
  2690 ;;		None
  2691 ;; Return value:  Size  Location     Type
  2692 ;;                  1    wreg      void 
  2693 ;; Registers used:
  2694 ;;		wreg, status,2, status,0
  2695 ;; Tracked objects:
  2696 ;;		On entry : 0/0
  2697 ;;		On exit  : 0/0
  2698 ;;		Unchanged: 0/0
  2699 ;; Data sizes:     COMMON   BANK0   BANK1   BANK3   BANK2
  2700 ;;      Params:         0       0       0       0       0
  2701 ;;      Locals:         0       0       0       0       0
  2702 ;;      Temps:          1       0       0       0       0
  2703 ;;      Totals:         1       0       0       0       0
  2704 ;;Total ram usage:        1 bytes
  2705 ;; Hardware stack levels used: 1
  2706 ;; Hardware stack levels required when called: 1
  2707 ;; This function calls:
  2708 ;;		Nothing
  2709 ;; This function is called by:
  2710 ;;		_setup
  2711 ;; This function uses a non-reentrant model
  2712 ;;
  2713                           
  2714                           
  2715                           ;psect for function _ADC_config
  2716  0517                     _ADC_config:
  2717  0517                     l851:	
  2718                           ;incstack = 0
  2719                           ; Regs used in _ADC_config: [wreg+status,2+status,0]
  2720                           
  2721                           
  2722                           ;ADC_CONFIG.c: 25: ADCON1bits.ADFM = 1 ;
  2723  0517  1683               	bsf	3,5	;RP0=1, select bank1
  2724  0518  1303               	bcf	3,6	;RP1=0, select bank1
  2725  0519  179F               	bsf	31,7	;volatile
  2726                           
  2727                           ;ADC_CONFIG.c: 26: ADCON1bits.VCFG0 = 0 ;
  2728  051A  121F               	bcf	31,4	;volatile
  2729                           
  2730                           ;ADC_CONFIG.c: 27: ADCON1bits.VCFG1 = 0 ;
  2731  051B  129F               	bcf	31,5	;volatile
  2732  051C                     l853:
  2733                           
  2734                           ;ADC_CONFIG.c: 29: ADCON0bits.ADCS = 0b00;
  2735  051C  303F               	movlw	-193
  2736  051D  1283               	bcf	3,5	;RP0=0, select bank0
  2737  051E  1303               	bcf	3,6	;RP1=0, select bank0
  2738  051F  059F               	andwf	31,f	;volatile
  2739                           
  2740                           ;ADC_CONFIG.c: 30: ADCON0bits.CHS = 0;
  2741  0520  30C3               	movlw	-61
  2742  0521  059F               	andwf	31,f	;volatile
  2743  0522                     l855:
  2744                           
  2745                           ;ADC_CONFIG.c: 31: _delay((unsigned long)((100)*(8000000/4000000.0)));
  2746  0522  3042               	movlw	66
  2747  0523  00F4               	movwf	??_ADC_config
  2748  0524                     u1727:
  2749  0524  0BF4               	decfsz	??_ADC_config,f
  2750  0525  2D24               	goto	u1727
  2751  0526  0000               	nop
  2752  0527                     l857:
  2753                           
  2754                           ;ADC_CONFIG.c: 32: ADCON0bits.ADON = 1 ;
  2755  0527  1283               	bcf	3,5	;RP0=0, select bank0
  2756  0528  1303               	bcf	3,6	;RP1=0, select bank0
  2757  0529  141F               	bsf	31,0	;volatile
  2758  052A                     l237:
  2759  052A  0008               	return
  2760  052B                     __end_of_ADC_config:
  2761                           
  2762                           	psect	text10
  2763  02B8                     __ptext10:	
  2764 ;; *************** function _isr *****************
  2765 ;; Defined at:
  2766 ;;		line 64 in file "C:/Users/Andy Bonilla/Documents/GitHub/ED2/Proyecto1_ED2/PIC_motores.X/Main_motores.c"
  2767 ;; Parameters:    Size  Location     Type
  2768 ;;		None
  2769 ;; Auto vars:     Size  Location     Type
  2770 ;;		None
  2771 ;; Return value:  Size  Location     Type
  2772 ;;                  1    wreg      void 
  2773 ;; Registers used:
  2774 ;;		wreg, status,2, status,0
  2775 ;; Tracked objects:
  2776 ;;		On entry : 0/0
  2777 ;;		On exit  : 0/0
  2778 ;;		Unchanged: 0/0
  2779 ;; Data sizes:     COMMON   BANK0   BANK1   BANK3   BANK2
  2780 ;;      Params:         0       0       0       0       0
  2781 ;;      Locals:         0       0       0       0       0
  2782 ;;      Temps:          4       0       0       0       0
  2783 ;;      Totals:         4       0       0       0       0
  2784 ;;Total ram usage:        4 bytes
  2785 ;; Hardware stack levels used: 1
  2786 ;; This function calls:
  2787 ;;		Nothing
  2788 ;; This function is called by:
  2789 ;;		Interrupt level 1
  2790 ;; This function uses a non-reentrant model
  2791 ;;
  2792                           
  2793                           
  2794                           ;psect for function _isr
  2795  02B8                     _isr:
  2796  02B8                     i1l1603:
  2797                           
  2798                           ;Main_motores.c: 68: if (INTCONbits.T0IF)
  2799  02B8  1D0B               	btfss	11,2	;volatile
  2800  02B9  2ABB               	goto	u135_21
  2801  02BA  2ABC               	goto	u135_20
  2802  02BB                     u135_21:
  2803  02BB  2B07               	goto	i1l1635
  2804  02BC                     u135_20:
  2805  02BC                     i1l1605:
  2806                           
  2807                           ;Main_motores.c: 69: {;Main_motores.c: 70: if (cuenta_total >0 && cuenta_total<85)
  2808  02BC  0876               	movf	_cuenta_total,w
  2809  02BD  1903               	btfsc	3,2
  2810  02BE  2AC0               	goto	u136_21
  2811  02BF  2AC1               	goto	u136_20
  2812  02C0                     u136_21:
  2813  02C0  2ADA               	goto	i1l1617
  2814  02C1                     u136_20:
  2815  02C1                     i1l1607:
  2816  02C1  3055               	movlw	85
  2817  02C2  0276               	subwf	_cuenta_total,w
  2818  02C3  1803               	skipnc
  2819  02C4  2AC6               	goto	u137_21
  2820  02C5  2AC7               	goto	u137_20
  2821  02C6                     u137_21:
  2822  02C6  2ADA               	goto	i1l1617
  2823  02C7                     u137_20:
  2824  02C7                     i1l1609:
  2825                           
  2826                           ;Main_motores.c: 71: {;Main_motores.c: 75: PORTEbits.RE0=1;
  2827  02C7  1283               	bcf	3,5	;RP0=0, select bank0
  2828  02C8  1303               	bcf	3,6	;RP1=0, select bank0
  2829  02C9  1409               	bsf	9,0	;volatile
  2830  02CA                     i1l1611:
  2831                           
  2832                           ;Main_motores.c: 76: _delay((unsigned long)((2)*(4000000/4000.0)));
  2833  02CA  3003               	movlw	3
  2834  02CB  00F1               	movwf	??_isr+1
  2835  02CC  3097               	movlw	151
  2836  02CD  00F0               	movwf	??_isr
  2837  02CE                     u173_27:
  2838  02CE  0BF0               	decfsz	??_isr,f
  2839  02CF  2ACE               	goto	u173_27
  2840  02D0  0BF1               	decfsz	??_isr+1,f
  2841  02D1  2ACE               	goto	u173_27
  2842  02D2  2AD3               	nop2
  2843  02D3                     i1l1613:
  2844                           
  2845                           ;Main_motores.c: 77: PORTEbits.RE0=0;
  2846  02D3  1283               	bcf	3,5	;RP0=0, select bank0
  2847  02D4  1303               	bcf	3,6	;RP1=0, select bank0
  2848  02D5  1009               	bcf	9,0	;volatile
  2849                           
  2850                           ;Main_motores.c: 81: TMR0 = 115;
  2851  02D6  3073               	movlw	115
  2852  02D7  0081               	movwf	1	;volatile
  2853  02D8                     i1l1615:
  2854                           
  2855                           ;Main_motores.c: 82: INTCONbits.T0IF = 0;
  2856  02D8  110B               	bcf	11,2	;volatile
  2857                           
  2858                           ;Main_motores.c: 83: }
  2859  02D9  2B07               	goto	i1l1635
  2860  02DA                     i1l1617:
  2861                           
  2862                           ;Main_motores.c: 84: else if (cuenta_total >85 && cuenta_total<170)
  2863  02DA  3056               	movlw	86
  2864  02DB  0276               	subwf	_cuenta_total,w
  2865  02DC  1C03               	skipc
  2866  02DD  2ADF               	goto	u138_21
  2867  02DE  2AE0               	goto	u138_20
  2868  02DF                     u138_21:
  2869  02DF  2AF7               	goto	i1l100
  2870  02E0                     u138_20:
  2871  02E0                     i1l1619:
  2872  02E0  30AA               	movlw	170
  2873  02E1  0276               	subwf	_cuenta_total,w
  2874  02E2  1803               	skipnc
  2875  02E3  2AE5               	goto	u139_21
  2876  02E4  2AE6               	goto	u139_20
  2877  02E5                     u139_21:
  2878  02E5  2AF7               	goto	i1l100
  2879  02E6                     u139_20:
  2880  02E6                     i1l1621:
  2881                           
  2882                           ;Main_motores.c: 85: {;Main_motores.c: 89: PORTEbits.RE0=1;
  2883  02E6  1283               	bcf	3,5	;RP0=0, select bank0
  2884  02E7  1303               	bcf	3,6	;RP1=0, select bank0
  2885  02E8  1409               	bsf	9,0	;volatile
  2886  02E9                     i1l1623:
  2887                           
  2888                           ;Main_motores.c: 90: _delay((unsigned long)((1.5)*(4000000/4000.0)));
  2889  02E9  30D6               	movlw	214
  2890  02EA  00F0               	movwf	??_isr
  2891  02EB                     u174_27:
  2892  02EB  2AEC               	nop2
  2893  02EC  2AED               	nop2
  2894  02ED  0BF0               	decfsz	??_isr,f
  2895  02EE  2AEB               	goto	u174_27
  2896  02EF  0000               	nop
  2897  02F0                     i1l1625:
  2898                           
  2899                           ;Main_motores.c: 91: PORTEbits.RE0=0;
  2900  02F0  1283               	bcf	3,5	;RP0=0, select bank0
  2901  02F1  1303               	bcf	3,6	;RP1=0, select bank0
  2902  02F2  1009               	bcf	9,0	;volatile
  2903                           
  2904                           ;Main_motores.c: 95: TMR0 = 111;
  2905  02F3  306F               	movlw	111
  2906  02F4  0081               	movwf	1	;volatile
  2907  02F5                     i1l1627:
  2908                           
  2909                           ;Main_motores.c: 96: INTCONbits.T0IF=0;
  2910  02F5  110B               	bcf	11,2	;volatile
  2911                           
  2912                           ;Main_motores.c: 97: }
  2913  02F6  2B07               	goto	i1l1635
  2914  02F7                     i1l100:
  2915                           
  2916                           ;Main_motores.c: 98: else;Main_motores.c: 99: {;Main_motores.c: 103: PORTEbits.RE0=1;
  2917  02F7  1283               	bcf	3,5	;RP0=0, select bank0
  2918  02F8  1303               	bcf	3,6	;RP1=0, select bank0
  2919  02F9  1409               	bsf	9,0	;volatile
  2920  02FA                     i1l1629:
  2921                           
  2922                           ;Main_motores.c: 104: _delay((unsigned long)((1)*(4000000/4000.0)));
  2923  02FA  30C7               	movlw	199
  2924  02FB  00F0               	movwf	??_isr
  2925  02FC                     u175_27:
  2926  02FC  2AFD               	nop2
  2927  02FD  0BF0               	decfsz	??_isr,f
  2928  02FE  2AFC               	goto	u175_27
  2929  02FF  2B00               	nop2
  2930  0300  2B01               	nop2
  2931  0301                     i1l1631:
  2932                           
  2933                           ;Main_motores.c: 105: PORTEbits.RE0=0;
  2934  0301  1283               	bcf	3,5	;RP0=0, select bank0
  2935  0302  1303               	bcf	3,6	;RP1=0, select bank0
  2936  0303  1009               	bcf	9,0	;volatile
  2937                           
  2938                           ;Main_motores.c: 109: TMR0 = 107;
  2939  0304  306B               	movlw	107
  2940  0305  0081               	movwf	1	;volatile
  2941  0306                     i1l1633:
  2942                           
  2943                           ;Main_motores.c: 110: INTCONbits.T0IF=0;
  2944  0306  110B               	bcf	11,2	;volatile
  2945  0307                     i1l1635:
  2946                           
  2947                           ;Main_motores.c: 111: };Main_motores.c: 112: };Main_motores.c: 129: if(PIR1bits.SSPIF ==
      +                           1){
  2948  0307  1283               	bcf	3,5	;RP0=0, select bank0
  2949  0308  1303               	bcf	3,6	;RP1=0, select bank0
  2950  0309  1D8C               	btfss	12,3	;volatile
  2951  030A  2B0C               	goto	u140_21
  2952  030B  2B0D               	goto	u140_20
  2953  030C                     u140_21:
  2954  030C  2B65               	goto	i1l115
  2955  030D                     u140_20:
  2956  030D                     i1l1637:
  2957                           
  2958                           ;Main_motores.c: 131: SSPCONbits.CKP = 0;
  2959  030D  1214               	bcf	20,4	;volatile
  2960                           
  2961                           ;Main_motores.c: 133: if ((SSPCONbits.SSPOV) || (SSPCONbits.WCOL)){
  2962  030E  1B14               	btfsc	20,6	;volatile
  2963  030F  2B11               	goto	u141_21
  2964  0310  2B12               	goto	u141_20
  2965  0311                     u141_21:
  2966  0311  2B16               	goto	i1l1641
  2967  0312                     u141_20:
  2968  0312                     i1l1639:
  2969  0312  1F94               	btfss	20,7	;volatile
  2970  0313  2B15               	goto	u142_21
  2971  0314  2B16               	goto	u142_20
  2972  0315                     u142_21:
  2973  0315  2B1D               	goto	i1l1649
  2974  0316                     u142_20:
  2975  0316                     i1l1641:
  2976                           
  2977                           ;Main_motores.c: 134: motor_recibido = SSPBUF;
  2978  0316  0813               	movf	19,w	;volatile
  2979  0317  00F0               	movwf	??_isr
  2980  0318  0870               	movf	??_isr,w
  2981  0319  00F7               	movwf	_motor_recibido
  2982  031A                     i1l1643:
  2983                           
  2984                           ;Main_motores.c: 135: SSPCONbits.SSPOV = 0;
  2985  031A  1314               	bcf	20,6	;volatile
  2986  031B                     i1l1645:
  2987                           
  2988                           ;Main_motores.c: 136: SSPCONbits.WCOL = 0;
  2989  031B  1394               	bcf	20,7	;volatile
  2990  031C                     i1l1647:
  2991                           
  2992                           ;Main_motores.c: 137: SSPCONbits.CKP = 1;
  2993  031C  1614               	bsf	20,4	;volatile
  2994  031D                     i1l1649:
  2995                           
  2996                           ;Main_motores.c: 138: };Main_motores.c: 140: if(!SSPSTATbits.D_nA && !SSPSTATbits.R_nW)
  2997  031D  1683               	bsf	3,5	;RP0=1, select bank1
  2998  031E  1303               	bcf	3,6	;RP1=0, select bank1
  2999  031F  1A94               	btfsc	20,5	;volatile
  3000  0320  2B22               	goto	u143_21
  3001  0321  2B23               	goto	u143_20
  3002  0322                     u143_21:
  3003  0322  2B41               	goto	i1l106
  3004  0323                     u143_20:
  3005  0323                     i1l1651:
  3006  0323  1914               	btfsc	20,2	;volatile
  3007  0324  2B26               	goto	u144_21
  3008  0325  2B27               	goto	u144_20
  3009  0326                     u144_21:
  3010  0326  2B41               	goto	i1l106
  3011  0327                     u144_20:
  3012  0327                     i1l1653:
  3013                           
  3014                           ;Main_motores.c: 141: {;Main_motores.c: 142: motor_recibido= SSPBUF;
  3015  0327  1283               	bcf	3,5	;RP0=0, select bank0
  3016  0328  1303               	bcf	3,6	;RP1=0, select bank0
  3017  0329  0813               	movf	19,w	;volatile
  3018  032A  00F0               	movwf	??_isr
  3019  032B  0870               	movf	??_isr,w
  3020  032C  00F7               	movwf	_motor_recibido
  3021  032D                     i1l1655:
  3022                           
  3023                           ;Main_motores.c: 143: PIR1bits.SSPIF = 0;
  3024  032D  118C               	bcf	12,3	;volatile
  3025  032E                     i1l1657:
  3026                           
  3027                           ;Main_motores.c: 144: SSPCONbits.CKP = 1;
  3028  032E  1614               	bsf	20,4	;volatile
  3029  032F                     i1l107:	
  3030                           ;Main_motores.c: 145: while(!SSPSTATbits.BF);
  3031                           
  3032  032F  1683               	bsf	3,5	;RP0=1, select bank1
  3033  0330  1303               	bcf	3,6	;RP1=0, select bank1
  3034  0331  1C14               	btfss	20,0	;volatile
  3035  0332  2B34               	goto	u145_21
  3036  0333  2B35               	goto	u145_20
  3037  0334                     u145_21:
  3038  0334  2B2F               	goto	i1l107
  3039  0335                     u145_20:
  3040  0335                     i1l1659:
  3041                           
  3042                           ;Main_motores.c: 146: motor_recibido = SSPBUF;
  3043  0335  1283               	bcf	3,5	;RP0=0, select bank0
  3044  0336  1303               	bcf	3,6	;RP1=0, select bank0
  3045  0337  0813               	movf	19,w	;volatile
  3046  0338  00F0               	movwf	??_isr
  3047  0339  0870               	movf	??_isr,w
  3048  033A  00F7               	movwf	_motor_recibido
  3049                           
  3050                           ;Main_motores.c: 147: _delay((unsigned long)((200)*(4000000/4000000.0)));
  3051  033B  3042               	movlw	66
  3052  033C  00F0               	movwf	??_isr
  3053  033D                     u176_27:
  3054  033D  0BF0               	decfsz	??_isr,f
  3055  033E  2B3D               	goto	u176_27
  3056  033F  0000               	nop
  3057                           
  3058                           ;Main_motores.c: 149: }
  3059  0340  2B62               	goto	i1l110
  3060  0341                     i1l106:
  3061                           
  3062                           ;Main_motores.c: 150: else if(!SSPSTATbits.D_nA && SSPSTATbits.R_nW){
  3063  0341  1A94               	btfsc	20,5	;volatile
  3064  0342  2B44               	goto	u146_21
  3065  0343  2B45               	goto	u146_20
  3066  0344                     u146_21:
  3067  0344  2B62               	goto	i1l110
  3068  0345                     u146_20:
  3069  0345                     i1l1661:
  3070  0345  1D14               	btfss	20,2	;volatile
  3071  0346  2B48               	goto	u147_21
  3072  0347  2B49               	goto	u147_20
  3073  0348                     u147_21:
  3074  0348  2B62               	goto	i1l110
  3075  0349                     u147_20:
  3076  0349                     i1l1663:
  3077                           
  3078                           ;Main_motores.c: 151: z = SSPBUF;
  3079  0349  1283               	bcf	3,5	;RP0=0, select bank0
  3080  034A  1303               	bcf	3,6	;RP1=0, select bank0
  3081  034B  0813               	movf	19,w	;volatile
  3082  034C  00F0               	movwf	??_isr
  3083  034D  0870               	movf	??_isr,w
  3084  034E  00D8               	movwf	_z
  3085  034F                     i1l1665:
  3086                           
  3087                           ;Main_motores.c: 152: BF = 0;
  3088  034F  1683               	bsf	3,5	;RP0=1, select bank1
  3089  0350  1303               	bcf	3,6	;RP1=0, select bank1
  3090  0351  1014               	bcf	20,0	;volatile
  3091                           
  3092                           ;Main_motores.c: 153: SSPBUF = temperatura_aprox;
  3093  0352  0878               	movf	_temperatura_aprox,w
  3094  0353  1283               	bcf	3,5	;RP0=0, select bank0
  3095  0354  1303               	bcf	3,6	;RP1=0, select bank0
  3096  0355  0093               	movwf	19	;volatile
  3097  0356                     i1l1667:
  3098                           
  3099                           ;Main_motores.c: 154: SSPCONbits.CKP = 1;
  3100  0356  1614               	bsf	20,4	;volatile
  3101                           
  3102                           ;Main_motores.c: 155: _delay((unsigned long)((200)*(4000000/4000000.0)));
  3103  0357  3042               	movlw	66
  3104  0358  00F0               	movwf	??_isr
  3105  0359                     u177_27:
  3106  0359  0BF0               	decfsz	??_isr,f
  3107  035A  2B59               	goto	u177_27
  3108  035B  0000               	nop
  3109  035C                     i1l112:	
  3110                           ;Main_motores.c: 156: while(SSPSTATbits.BF);
  3111                           
  3112  035C  1683               	bsf	3,5	;RP0=1, select bank1
  3113  035D  1303               	bcf	3,6	;RP1=0, select bank1
  3114  035E  1814               	btfsc	20,0	;volatile
  3115  035F  2B61               	goto	u148_21
  3116  0360  2B62               	goto	u148_20
  3117  0361                     u148_21:
  3118  0361  2B5C               	goto	i1l112
  3119  0362                     u148_20:
  3120  0362                     i1l110:
  3121                           
  3122                           ;Main_motores.c: 157: };Main_motores.c: 159: PIR1bits.SSPIF = 0;
  3123  0362  1283               	bcf	3,5	;RP0=0, select bank0
  3124  0363  1303               	bcf	3,6	;RP1=0, select bank0
  3125  0364  118C               	bcf	12,3	;volatile
  3126  0365                     i1l115:
  3127  0365  0873               	movf	??_isr+3,w
  3128  0366  008A               	movwf	10
  3129  0367  0E72               	swapf	??_isr+2,w
  3130  0368  0083               	movwf	3
  3131  0369  0EFE               	swapf	btemp,f
  3132  036A  0E7E               	swapf	btemp,w
  3133  036B  0009               	retfie
  3134  036C                     __end_of_isr:
  3135  007E                     btemp	set	126	;btemp
  3136  007E                     wtemp0	set	126
  3137                           
  3138                           	psect	intentry
  3139  0004                     __pintentry:	
  3140                           ;incstack = 0
  3141                           ; Regs used in _isr: [wreg+status,2+status,0]
  3142                           
  3143  0004                     interrupt_function:
  3144  007E                     saved_w	set	btemp
  3145  0004  00FE               	movwf	btemp
  3146  0005  0E03               	swapf	3,w
  3147  0006  00F2               	movwf	??_isr+2
  3148  0007  080A               	movf	10,w
  3149  0008  00F3               	movwf	??_isr+3
  3150  0009  120A  118A  2AB8   	ljmp	_isr
  3151                           
  3152                           	psect	config
  3153                           
  3154                           ;Config register CONFIG1 @ 0x2007
  3155                           ;	Oscillator Selection bits
  3156                           ;	FOSC = INTRC_NOCLKOUT, INTOSCIO oscillator: I/O function on RA6/OSC2/CLKOUT pin, I/O f
      +                          unction on RA7/OSC1/CLKIN
  3157                           ;	Watchdog Timer Enable bit
  3158                           ;	WDTE = OFF, WDT disabled and can be enabled by SWDTEN bit of the WDTCON register
  3159                           ;	Power-up Timer Enable bit
  3160                           ;	PWRTE = OFF, PWRT disabled
  3161                           ;	RE3/MCLR pin function select bit
  3162                           ;	MCLRE = OFF, RE3/MCLR pin function is digital input, MCLR internally tied to VDD
  3163                           ;	Code Protection bit
  3164                           ;	CP = OFF, Program memory code protection is disabled
  3165                           ;	Data Code Protection bit
  3166                           ;	CPD = OFF, Data memory code protection is disabled
  3167                           ;	Brown Out Reset Selection bits
  3168                           ;	BOREN = OFF, BOR disabled
  3169                           ;	Internal External Switchover bit
  3170                           ;	IESO = OFF, Internal/External Switchover mode is disabled
  3171                           ;	Fail-Safe Clock Monitor Enabled bit
  3172                           ;	FCMEN = OFF, Fail-Safe Clock Monitor is disabled
  3173                           ;	Low Voltage Programming Enable bit
  3174                           ;	LVP = OFF, RB3 pin has digital I/O, HV on MCLR must be used for programming
  3175                           ;	In-Circuit Debugger Mode bit
  3176                           ;	DEBUG = 0x1, unprogrammed default
  3177  2007                     	org	8199
  3178  2007  20D4               	dw	8404
  3179                           
  3180                           ;Config register CONFIG2 @ 0x2008
  3181                           ;	Brown-out Reset Selection bit
  3182                           ;	BOR4V = BOR40V, Brown-out Reset set to 4.0V
  3183                           ;	Flash Program Memory Self Write Enable bits
  3184                           ;	WRT = OFF, Write protection off
  3185  2008                     	org	8200
  3186  2008  3FFF               	dw	16383

Data Sizes:
    Strings     0
    Constant    0
    Data        0
    BSS         10
    Persistent  0
    Stack       0

Auto Spaces:
    Space          Size  Autos    Used
    COMMON           14      6      10
    BANK0            80     54      60
    BANK1            80      0       0
    BANK3            96      0       0
    BANK2            96      0       0

Pointer List with Targets:

    None.

Critical Paths under _main in COMMON

    _temp->___fltol
    _setup->_ADC_config
    _setup->_I2C_Slave_Init
    _setup->_osc_config

Critical Paths under _isr in COMMON

    None.

Critical Paths under _main in BANK0

    _main->_temp
    _temp->___fltol
    ___fltol->___fldiv
    ___fldiv->___xxtofl

Critical Paths under _isr in BANK0

    None.

Critical Paths under _main in BANK1

    None.

Critical Paths under _isr in BANK1

    None.

Critical Paths under _main in BANK3

    None.

Critical Paths under _isr in BANK3

    None.

Critical Paths under _main in BANK2

    None.

Critical Paths under _isr in BANK2

    None.

Call Graph Tables:

 ---------------------------------------------------------------------------------
 (Depth) Function   	        Calls       Base Space   Used Autos Params    Refs
 ---------------------------------------------------------------------------------
 (0) _main                                                 0     0      0    2174
                              _setup
                               _temp
                         _toggle_adc
 ---------------------------------------------------------------------------------
 (1) _toggle_adc                                           1     1      0       0
                                              4 COMMON     1     1      0
 ---------------------------------------------------------------------------------
 (1) _temp                                                 5     5      0    2144
                                             49 BANK0      5     5      0
                            ___fldiv
                            ___fltol
                           ___xxtofl
 ---------------------------------------------------------------------------------
 (2) ___xxtofl                                            14    10      4     566
                                              0 BANK0     14    10      4
 ---------------------------------------------------------------------------------
 (2) ___fltol                                             11     7      4     305
                                              4 COMMON     2     2      0
                                             40 BANK0      9     5      4
                            ___fldiv (ARG)
                           ___xxtofl (ARG)
 ---------------------------------------------------------------------------------
 (2) ___fldiv                                             26    18      8    1273
                                             14 BANK0     26    18      8
                           ___xxtofl (ARG)
 ---------------------------------------------------------------------------------
 (1) _setup                                                0     0      0      30
                         _ADC_config
                     _I2C_Slave_Init
                         _osc_config
 ---------------------------------------------------------------------------------
 (2) _osc_config                                           1     1      0      15
                                              4 COMMON     1     1      0
 ---------------------------------------------------------------------------------
 (2) _I2C_Slave_Init                                       1     1      0      15
                                              4 COMMON     1     1      0
 ---------------------------------------------------------------------------------
 (2) _ADC_config                                           1     1      0       0
                                              4 COMMON     1     1      0
 ---------------------------------------------------------------------------------
 Estimated maximum stack depth 2
 ---------------------------------------------------------------------------------
 (Depth) Function   	        Calls       Base Space   Used Autos Params    Refs
 ---------------------------------------------------------------------------------
 (3) _isr                                                  4     4      0       0
                                              0 COMMON     4     4      0
 ---------------------------------------------------------------------------------
 Estimated maximum stack depth 3
 ---------------------------------------------------------------------------------

 Call Graph Graphs:

 _main (ROOT)
   _setup
     _ADC_config
     _I2C_Slave_Init
     _osc_config
   _temp
     ___fldiv
       ___xxtofl (ARG)
     ___fltol
       ___fldiv (ARG)
       ___xxtofl (ARG)
     ___xxtofl
   _toggle_adc

 _isr (ROOT)

 Address spaces:
Name               Size   Autos  Total    Cost      Usage
BITCOMMON            E      0       0       0        0.0%
EEDATA             100      0       0       0        0.0%
NULL                 0      0       0       0        0.0%
CODE                 0      0       0       0        0.0%
COMMON               E      6       A       1       71.4%
BITSFR0              0      0       0       1        0.0%
SFR0                 0      0       0       1        0.0%
BITSFR1              0      0       0       2        0.0%
SFR1                 0      0       0       2        0.0%
STACK                0      0       0       2        0.0%
ABS                  0      0      46       3        0.0%
BITBANK0            50      0       0       4        0.0%
BITSFR3              0      0       0       4        0.0%
SFR3                 0      0       0       4        0.0%
BANK0               50     36      3C       5       75.0%
BITSFR2              0      0       0       5        0.0%
SFR2                 0      0       0       5        0.0%
BITBANK1            50      0       0       6        0.0%
BANK1               50      0       0       7        0.0%
BITBANK3            60      0       0       8        0.0%
BANK3               60      0       0       9        0.0%
BITBANK2            60      0       0      10        0.0%
BANK2               60      0       0      11        0.0%
DATA                 0      0      46      12        0.0%


Microchip Technology PIC Macro Assembler V2.32 build 20210201212658 
Symbol Table                                                                                   Mon Aug 30 17:13:29 2021

           ___fldiv@aexp 0047             ___fldiv@bexp 0046                        _z 0058  
           ___fldiv@sign 003F              _SSPSTATbits 0094                       _BF 04A0  
                    l120 0530                      l204 0516                      l126 0485  
                    l215 04FC                      l144 04CD                      l147 0439  
                    l237 052A                      l149 043C                      l516 03D2  
                    l509 03E7                      l519 03E7                      l831 04D0  
                    l672 007B                      l841 04E6                      l833 04D6  
                    l674 01FB                      l770 028D                      l762 0265  
                    l851 0517                      l843 04E8                      l835 04D8  
                    l756 0220                      l853 051C                      l861 050C  
                    l845 04EC                      l837 04DE                      l829 04CF  
                    l694 01DF                      l758 02B7                      l855 0522  
                    l871 0513                      l863 050D                      l839 04E0  
                    l696 01EF                      l688 016D                      l857 0527  
                    l865 050E                      l849 04EE                      l769 0281  
                    l867 050F                      l859 04FE                      l869 0510  
                    _GIE 005F                      u800 0390                      u810 03A6  
                    u811 03A5                      u900 0036                      u820 03AD  
                    u901 0035                      u821 03AC                      u805 038B  
                    u910 003B                      u911 003A                      u920 005D  
                    u840 03BF                      u921 005C                      u841 03BE  
                    u930 0063                      u850 03C6                      u931 0062  
                    u851 03C5                      u835 03AF                      u940 0068  
                    u941 0067                      u950 0083                      u870 03D7  
                    u790 0379                      u951 0082                      u871 03D6  
                    u791 0378                      u960 00A1                      u880 03DC  
                    u961 00A0                      u881 03DB                      u865 03C9  
                    u970 00DB                      u890 0030                      u971 00DA  
                    u891 002F                      u985 00DD                      u995 00E6  
                    _isr 02B8      __size_of_ADC_config 0014             ___fltol@exp1 0075  
                   l1101 0443                     l1111 0456                     l1103 0446  
                   l1121 0465                     l1113 045B                     l1105 0447  
                   l1131 0474                     l1123 0468                     l1115 045E  
                   l1107 0449                     l1141 0480                     l1133 0477  
                   l1125 046C                     l1117 045F                     l1109 0450  
                   l1143 0481                     l1135 0478                     l1127 0470  
                   l1119 0461                     l1145 0482                     l1137 047E  
                   l1129 0472                     l1401 004E                     l1139 047F  
                   l1411 0063                     l1403 0053                     l1501 01A8  
                   l1421 0083                     l1413 0068                     l1405 0059  
                   l1095 043D                     l1511 01DE                     l1503 01B5  
                   l1431 00A1                     l1423 008F                     l1415 0070  
                   l1407 005D                     l1351 0382                     l1097 0441  
                   l1513 01E5                     l1505 01C3                     l1441 00CC  
                   l1425 0093                     l1417 0071                     l1409 005E  
                   l1361 03A6                     l1353 0397                     l1345 036C  
                   l1099 0442                     l1515 01E9                     l1507 01D2  
                   l1451 00F1                     l1443 00D4                     l1435 00AA  
                   l1419 0073                     l1355 0398                     l1347 0379  
                   l1517 01EB                     l1509 01D6                     l1461 011C  
                   l1453 00F2                     l1445 00D6                     l1437 00BC  
                   l1429 009C                     l1381 001F                     l1357 03A0  
                   l1471 0139                     l1447 00DB                     l1455 00FB  
                   l1463 0120                     l1439 00C4                     l1391 0036  
                   l1383 0026                     l1375 03C7                     l1367 03AE  
                   l1359 03A2                     l1711 0208                     l1481 0151  
                   l1473 013D                     l1465 0126                     l1457 010D  
                   l1449 00ED                     l1393 003B                     l1385 002C  
                   l1377 03D7                     l1369 03C0                     l1721 0236  
                   l1713 0218                     l1491 0172                     l1483 0152  
                   l1475 013E                     l1467 012E                     l1459 010E  
                   l1395 0043                     l1387 0030                     l1379 03DC  
                   l1731 026C                     l1723 0243                     l1715 0228  
                   l1707 01FF                     l1571 048D                     l1493 0177  
                   l1485 0156                     l1477 0147                     l1469 0130  
                   l1397 0044                     l1389 0031                     l1741 02A5  
                   l1733 0277                     l1725 024A                     l1709 0204  
                   l1581 04A5                     l1573 048E                     l1495 0185  
                   l1487 016A                     l1479 014D                     l1399 0046  
                   l1743 02AA                     l1735 027B                     l1727 024E  
                   l1719 0231                     l1751 03E8                     l1583 04AC  
                   l1591 04C3                     l1575 0496                     l1567 0486  
                   l1497 0189                     l1745 02AE                     l1737 0285  
                   l1729 025C                     l1753 0429                     l1593 04CA  
                   l1585 04B3                     l1577 049D                     l1761 0535  
                   l1499 01A2                     l1747 02AF                     l1739 028F  
                   l1755 042F                     l1579 04A4                     l1757 0435  
                   l1589 04B8                     l1759 052B                     ?_isr 0070  
                   u1000 00F1                     u1001 00F0                     u1100 016A  
                   u1020 010D                     u1101 0169                     u1021 010C  
                   u1110 0171                     u1030 0126                     u1111 0170  
                   u1031 0125                     u1015 00F4                     u1120 0177  
                   u1040 012E                     u1121 0176                     u1041 012D  
                   u1025 0109                     u1130 0189                     u1131 0188  
                   u1140 0198                     u1060 013D                     u1061 013C  
                   u1150 01B5                     u1151 01B4                     u1055 0132  
                   u1160 01D2                     u1080 0151                     u1320 048C  
                   u1161 01D1                     u1145 0193                     u1081 0150  
                   u1321 048B                     u1170 01E9                     u1090 0156  
                   u1171 01E8                     u1155 01B1                     u1091 0155  
                   u1075 0140                     u1165 01CE                     u1610 027B  
                   u1530 0204                     u1611 027A                     u1531 0203  
                   u1620 0281                     u1540 0208                     u1621 0280  
                   u1605 0270                     u1541 0207                     u1630 0285  
                   u1550 0228                     u1631 0284                     u1551 0227  
                   u1640 029A                     u1650 02AA                     u1570 0249  
                   u1651 02A9                     u1571 0248                     u1707 04AE  
                   u1660 02AE                     u1661 02AD                     u1645 0295  
                   u1565 023B                     u1717 04C5                     u1590 026B  
                   u1670 042F                     u1727 0524                     u1591 026A  
                   u1671 042E                     u1680 0435                     u1585 025D  
                   u1681 0434                     u1697 0498                     _PEIE 005E  
                   _TMR0 0001                     _main 052B                     _temp 03E8  
                   btemp 007E                     start 000C          ___fldiv@new_exp 0040  
         osc_config@freq 0074                    ??_isr 0070            ___fltol@sign1 0074  
                  ?_main 0070          __end_of___fldiv 01FC                    ?_temp 0070  
        __end_of___fltol 03E8                    _ANSEL 0188                    i1l100 02F7  
                  i1l110 0362                    i1l112 035C                    i1l106 0341  
                  i1l107 032F                    i1l115 0365                    _SPBRG 0099  
                  _PORTB 0006                    _PORTC 0007                    _PORTD 0008  
                  _PORTE 0009                    _TRISD 0088                    _SSPIE 0463  
                  _SSPIF 0063                    _setup 043D                    pclath 000A  
                  status 0003                    wtemp0 007E          __initialization 000F  
           __end_of_main 053E             __end_of_temp 043D                   ??_main 0076  
                 ??_temp 0051                   _ADRESL 009E                   _CCPR1L 0015  
                 _BASURA 0057        _temperatura_aprox 0078                   ?_setup 0070  
                 _ANSELH 0189                   i1l1611 02CA                   i1l1603 02B8  
                 i1l1621 02E6                   i1l1613 02D3                   i1l1605 02BC  
                 i1l1631 0301                   i1l1623 02E9                   i1l1615 02D8  
                 i1l1607 02C1                   i1l1641 0316                   i1l1633 0306  
                 i1l1625 02F0                   i1l1609 02C7                   i1l1617 02DA  
                 i1l1651 0323                   i1l1643 031A                   i1l1627 02F5  
                 i1l1619 02E0                   i1l1635 0307                   i1l1661 0345  
                 i1l1653 0327                   i1l1645 031B                   i1l1637 030D  
                 i1l1629 02FA                   i1l1663 0349                   i1l1655 032D  
                 i1l1647 031C                   i1l1639 0312                   i1l1665 034F  
                 i1l1657 032E                   i1l1649 031D                   i1l1667 0356  
                 i1l1659 0335                   u140_20 030D                   u140_21 030C  
                 u141_20 0312                   u141_21 0311                   u142_20 0316  
                 u142_21 0315                   u143_20 0323                   u135_20 02BC  
                 u143_21 0322                   u135_21 02BB                   u144_20 0327  
                 u136_20 02C1                   u144_21 0326                   u136_21 02C0  
                 u145_20 0335                   u137_20 02C7                   u145_21 0334  
                 u137_21 02C6                   u146_20 0345                   u138_20 02E0  
                 u146_21 0344                   u138_21 02DF                   u147_20 0349  
                 u139_20 02E6                   u147_21 0348                   u139_21 02E5  
                 u148_20 0362                   u148_21 0361                   u173_27 02CE  
                 u174_27 02EB                   u175_27 02FC                   u176_27 033D  
                 u177_27 0359                   _SPBRGH 009A                   _SSPADD 0093  
                 _TRISC3 043B                   _TRISC4 043C                   _SSPBUF 0013  
                 _SSPCON 0014         __end_of___xxtofl 02B8             ??_ADC_config 0074  
              ??___fldiv 0036                ??___fltol 004C                   saved_w 007E  
     __end_of_ADC_config 052B             ___xxtofl@arg 002A             ___xxtofl@exp 0029  
           ___xxtofl@val 0020  __end_of__initialization 001B               ___fltol@f1 0048  
         __pcstackCOMMON 0070  __size_of_I2C_Slave_Init 001A            __end_of_setup 0486  
         _OPTION_REGbits 0081                  ??_setup 0075    I2C_Slave_Init@address 0074  
             __pbssBANK0 0056               __pmaintext 052B               __pintentry 0004  
              ?___xxtofl 0020                  _SSPCON2 0091                  _SSPSTAT 0094  
                ___fldiv 001F                  ___fltol 036C                _ANSELbits 0188  
                __ptext1 0486                  __ptext2 03E8                  __ptext3 01FC  
                __ptext4 036C                  __ptext5 001F                  __ptext6 043D  
                __ptext7 04CE                  __ptext8 04FD                  __ptext9 0517  
                _cuenta1 0056             __size_of_isr 00B4               ??___xxtofl 0024  
   end_of_initialization 001B               _osc_config 04CE                _RCSTAbits 0018  
         _I2C_Slave_Init 04FD                _PORTBbits 0006                _PORTEbits 0009  
             _toggle_adc 0486            ___xxtofl@sign 0028                _TRISBbits 0086  
              _TRISCbits 0087                _TRISDbits 0088                _TRISEbits 0089  
            ___fldiv@grs 0042              ___fldiv@rem 003B              _CCP1CONbits 0017  
              _TXSTAbits 0098   __end_of_I2C_Slave_Init 0517             _cuenta_total 0076  
            _BAUDCTLbits 0187      start_initialization 000F              __end_of_isr 036C  
            ?_osc_config 0070          ?_I2C_Slave_Init 0070                ___fldiv@a 002E  
              ___fldiv@b 0032              ?_toggle_adc 0070              __pbssCOMMON 0076  
              ___latbits 0002            __pcstackBANK0 0020           _motor_recibido 0077  
      __size_of___xxtofl 00BC                 ?___fldiv 002E                 ?___fltol 0048  
    __size_of_osc_config 002F           __size_of_setup 0049        interrupt_function 0004  
               _IOCBbits 0096         _conversion_total 0059                 _PIR1bits 000C  
    __size_of_toggle_adc 0048              _antirrebote 005B               _ADCON0bits 001F  
             _ADCON1bits 009F                 _WPUBbits 0095              _conversion1 0079  
             _ADC_config 0517         __size_of___fldiv 01DD         __size_of___fltol 007C  
               ___xxtofl 01FC                 __ptext10 02B8                 _botonazo 005A  
       ??_I2C_Slave_Init 0074             ??_osc_config 0074            __size_of_main 0013  
          __size_of_temp 0055               _INTCONbits 000B             ??_toggle_adc 0074  
     __end_of_osc_config 04FD                 intlevel1 0000               _OSCCONbits 008F  
            ?_ADC_config 0070       __end_of_toggle_adc 04CE              _SSPCON2bits 0091  
             _SSPCONbits 0014  
