

Microchip MPLAB XC8 Assembler V2.32 build 20210201212658 
                                                                                               Sun Aug 22 17:27:23 2021

Microchip MPLAB XC8 C Compiler v2.32 (Free license) build 20210201212658 Og1 
     1                           	processor	16F887
     2                           	pagewidth 120
     3                           	opt	flic
     4                           	psect	cinit,global,class=CODE,merge=1,delta=2
     5                           	psect	bssCOMMON,global,class=COMMON,space=1,delta=1,noexec
     6                           	psect	bssBANK0,global,class=BANK0,space=1,delta=1,noexec
     7                           	psect	cstackCOMMON,global,class=COMMON,space=1,delta=1,noexec
     8                           	psect	cstackBANK0,global,class=BANK0,space=1,delta=1,noexec
     9                           	psect	maintext,global,class=CODE,split=1,delta=2
    10                           	psect	text1,local,class=CODE,merge=1,delta=2
    11                           	psect	text2,local,class=CODE,merge=1,delta=2,group=1
    12                           	psect	text3,local,class=CODE,merge=1,delta=2,group=1
    13                           	psect	text4,local,class=CODE,merge=1,delta=2
    14                           	psect	text5,local,class=CODE,merge=1,delta=2
    15                           	psect	text6,local,class=CODE,merge=1,delta=2
    16                           	psect	text7,local,class=CODE,merge=1,delta=2
    17                           	psect	text8,local,class=CODE,merge=1,delta=2,group=1
    18                           	psect	text9,local,class=CODE,merge=1,delta=2,group=1
    19                           	psect	text10,local,class=CODE,merge=1,delta=2
    20                           	psect	intentry,global,class=CODE,delta=2
    21                           	psect	config,global,abs,ovrld,class=CONFIG,space=4,delta=2,noexec
    22                           	dabs	1,0x7E,2
    23  0000                     
    24                           ; Version 2.20
    25                           ; Generated 12/02/2020 GMT
    26                           ; 
    27                           ; Copyright © 2020, Microchip Technology Inc. and its subsidiaries ("Microchip")
    28                           ; All rights reserved.
    29                           ; 
    30                           ; This software is developed by Microchip Technology Inc. and its subsidiaries ("Microch
      +                          ip").
    31                           ; 
    32                           ; Redistribution and use in source and binary forms, with or without modification, are
    33                           ; permitted provided that the following conditions are met:
    34                           ; 
    35                           ;     1. Redistributions of source code must retain the above copyright notice, this lis
      +                          t of
    36                           ;        conditions and the following disclaimer.
    37                           ; 
    38                           ;     2. Redistributions in binary form must reproduce the above copyright notice, this 
      +                          list
    39                           ;        of conditions and the following disclaimer in the documentation and/or other
    40                           ;        materials provided with the distribution.
    41                           ; 
    42                           ;     3. Microchip's name may not be used to endorse or promote products derived from th
      +                          is
    43                           ;        software without specific prior written permission.
    44                           ; 
    45                           ; THIS SOFTWARE IS PROVIDED BY MICROCHIP "AS IS" AND ANY EXPRESS OR IMPLIED WARRANTIES,
    46                           ; INCLUDING, BUT NOT LIMITED TO, THE IMPLIED WARRANTIES OF MERCHANTABILITY AND FITNESS F
      +                          OR
    47                           ; PURPOSE ARE DISCLAIMED.  IN NO EVENT SHALL MICROCHIP BE LIABLE FOR ANY DIRECT, INDIREC
      +                          T,
    48                           ; INCIDENTAL, SPECIAL, EXEMPLARY, OR CONSEQUENTIAL DAMAGES (INCLUDING BUT NOT LIMITED TO
    49                           ; PROCUREMENT OF SUBSTITUTE GOODS OR SERVICES; LOSS OF USE, DATA OR PROFITS; OR BUSINESS
    50                           ; INTERRUPTION) HOWSOEVER CAUSED AND ON ANY THEORY OF LIABILITY, WHETHER IN CONTRACT, ST
      +                          RICT
    51                           ; LIABILITY, OR TORT (INCLUDING NEGLIGENCE OR OTHERWISE) ARISING IN ANY WAY OUT OF THE U
      +                          SE OF
    52                           ; THIS SOFTWARE, EVEN IF ADVISED OF THE POSSIBILITY OF SUCH DAMAGE.
    53                           ; 
    54                           ; 
    55                           ; Code-generator required, PIC16F887 Definitions
    56                           ; 
    57                           ; SFR Addresses
    58  0000                     	;# 
    59  0001                     	;# 
    60  0002                     	;# 
    61  0003                     	;# 
    62  0004                     	;# 
    63  0005                     	;# 
    64  0006                     	;# 
    65  0007                     	;# 
    66  0008                     	;# 
    67  0009                     	;# 
    68  000A                     	;# 
    69  000B                     	;# 
    70  000C                     	;# 
    71  000D                     	;# 
    72  000E                     	;# 
    73  000E                     	;# 
    74  000F                     	;# 
    75  0010                     	;# 
    76  0011                     	;# 
    77  0012                     	;# 
    78  0013                     	;# 
    79  0014                     	;# 
    80  0015                     	;# 
    81  0015                     	;# 
    82  0016                     	;# 
    83  0017                     	;# 
    84  0018                     	;# 
    85  0019                     	;# 
    86  001A                     	;# 
    87  001B                     	;# 
    88  001B                     	;# 
    89  001C                     	;# 
    90  001D                     	;# 
    91  001E                     	;# 
    92  001F                     	;# 
    93  0081                     	;# 
    94  0085                     	;# 
    95  0086                     	;# 
    96  0087                     	;# 
    97  0088                     	;# 
    98  0089                     	;# 
    99  008C                     	;# 
   100  008D                     	;# 
   101  008E                     	;# 
   102  008F                     	;# 
   103  0090                     	;# 
   104  0091                     	;# 
   105  0092                     	;# 
   106  0093                     	;# 
   107  0093                     	;# 
   108  0093                     	;# 
   109  0094                     	;# 
   110  0095                     	;# 
   111  0096                     	;# 
   112  0097                     	;# 
   113  0098                     	;# 
   114  0099                     	;# 
   115  009A                     	;# 
   116  009B                     	;# 
   117  009C                     	;# 
   118  009D                     	;# 
   119  009E                     	;# 
   120  009F                     	;# 
   121  0105                     	;# 
   122  0107                     	;# 
   123  0108                     	;# 
   124  0109                     	;# 
   125  010C                     	;# 
   126  010C                     	;# 
   127  010D                     	;# 
   128  010E                     	;# 
   129  010F                     	;# 
   130  0185                     	;# 
   131  0187                     	;# 
   132  0188                     	;# 
   133  0189                     	;# 
   134  018C                     	;# 
   135  018D                     	;# 
   136  0000                     	;# 
   137  0001                     	;# 
   138  0002                     	;# 
   139  0003                     	;# 
   140  0004                     	;# 
   141  0005                     	;# 
   142  0006                     	;# 
   143  0007                     	;# 
   144  0008                     	;# 
   145  0009                     	;# 
   146  000A                     	;# 
   147  000B                     	;# 
   148  000C                     	;# 
   149  000D                     	;# 
   150  000E                     	;# 
   151  000E                     	;# 
   152  000F                     	;# 
   153  0010                     	;# 
   154  0011                     	;# 
   155  0012                     	;# 
   156  0013                     	;# 
   157  0014                     	;# 
   158  0015                     	;# 
   159  0015                     	;# 
   160  0016                     	;# 
   161  0017                     	;# 
   162  0018                     	;# 
   163  0019                     	;# 
   164  001A                     	;# 
   165  001B                     	;# 
   166  001B                     	;# 
   167  001C                     	;# 
   168  001D                     	;# 
   169  001E                     	;# 
   170  001F                     	;# 
   171  0081                     	;# 
   172  0085                     	;# 
   173  0086                     	;# 
   174  0087                     	;# 
   175  0088                     	;# 
   176  0089                     	;# 
   177  008C                     	;# 
   178  008D                     	;# 
   179  008E                     	;# 
   180  008F                     	;# 
   181  0090                     	;# 
   182  0091                     	;# 
   183  0092                     	;# 
   184  0093                     	;# 
   185  0093                     	;# 
   186  0093                     	;# 
   187  0094                     	;# 
   188  0095                     	;# 
   189  0096                     	;# 
   190  0097                     	;# 
   191  0098                     	;# 
   192  0099                     	;# 
   193  009A                     	;# 
   194  009B                     	;# 
   195  009C                     	;# 
   196  009D                     	;# 
   197  009E                     	;# 
   198  009F                     	;# 
   199  0105                     	;# 
   200  0107                     	;# 
   201  0108                     	;# 
   202  0109                     	;# 
   203  010C                     	;# 
   204  010C                     	;# 
   205  010D                     	;# 
   206  010E                     	;# 
   207  010F                     	;# 
   208  0185                     	;# 
   209  0187                     	;# 
   210  0188                     	;# 
   211  0189                     	;# 
   212  018C                     	;# 
   213  018D                     	;# 
   214  0000                     	;# 
   215  0001                     	;# 
   216  0002                     	;# 
   217  0003                     	;# 
   218  0004                     	;# 
   219  0005                     	;# 
   220  0006                     	;# 
   221  0007                     	;# 
   222  0008                     	;# 
   223  0009                     	;# 
   224  000A                     	;# 
   225  000B                     	;# 
   226  000C                     	;# 
   227  000D                     	;# 
   228  000E                     	;# 
   229  000E                     	;# 
   230  000F                     	;# 
   231  0010                     	;# 
   232  0011                     	;# 
   233  0012                     	;# 
   234  0013                     	;# 
   235  0014                     	;# 
   236  0015                     	;# 
   237  0015                     	;# 
   238  0016                     	;# 
   239  0017                     	;# 
   240  0018                     	;# 
   241  0019                     	;# 
   242  001A                     	;# 
   243  001B                     	;# 
   244  001B                     	;# 
   245  001C                     	;# 
   246  001D                     	;# 
   247  001E                     	;# 
   248  001F                     	;# 
   249  0081                     	;# 
   250  0085                     	;# 
   251  0086                     	;# 
   252  0087                     	;# 
   253  0088                     	;# 
   254  0089                     	;# 
   255  008C                     	;# 
   256  008D                     	;# 
   257  008E                     	;# 
   258  008F                     	;# 
   259  0090                     	;# 
   260  0091                     	;# 
   261  0092                     	;# 
   262  0093                     	;# 
   263  0093                     	;# 
   264  0093                     	;# 
   265  0094                     	;# 
   266  0095                     	;# 
   267  0096                     	;# 
   268  0097                     	;# 
   269  0098                     	;# 
   270  0099                     	;# 
   271  009A                     	;# 
   272  009B                     	;# 
   273  009C                     	;# 
   274  009D                     	;# 
   275  009E                     	;# 
   276  009F                     	;# 
   277  0105                     	;# 
   278  0107                     	;# 
   279  0108                     	;# 
   280  0109                     	;# 
   281  010C                     	;# 
   282  010C                     	;# 
   283  010D                     	;# 
   284  010E                     	;# 
   285  010F                     	;# 
   286  0185                     	;# 
   287  0187                     	;# 
   288  0188                     	;# 
   289  0189                     	;# 
   290  018C                     	;# 
   291  018D                     	;# 
   292  0000                     	;# 
   293  0001                     	;# 
   294  0002                     	;# 
   295  0003                     	;# 
   296  0004                     	;# 
   297  0005                     	;# 
   298  0006                     	;# 
   299  0007                     	;# 
   300  0008                     	;# 
   301  0009                     	;# 
   302  000A                     	;# 
   303  000B                     	;# 
   304  000C                     	;# 
   305  000D                     	;# 
   306  000E                     	;# 
   307  000E                     	;# 
   308  000F                     	;# 
   309  0010                     	;# 
   310  0011                     	;# 
   311  0012                     	;# 
   312  0013                     	;# 
   313  0014                     	;# 
   314  0015                     	;# 
   315  0015                     	;# 
   316  0016                     	;# 
   317  0017                     	;# 
   318  0018                     	;# 
   319  0019                     	;# 
   320  001A                     	;# 
   321  001B                     	;# 
   322  001B                     	;# 
   323  001C                     	;# 
   324  001D                     	;# 
   325  001E                     	;# 
   326  001F                     	;# 
   327  0081                     	;# 
   328  0085                     	;# 
   329  0086                     	;# 
   330  0087                     	;# 
   331  0088                     	;# 
   332  0089                     	;# 
   333  008C                     	;# 
   334  008D                     	;# 
   335  008E                     	;# 
   336  008F                     	;# 
   337  0090                     	;# 
   338  0091                     	;# 
   339  0092                     	;# 
   340  0093                     	;# 
   341  0093                     	;# 
   342  0093                     	;# 
   343  0094                     	;# 
   344  0095                     	;# 
   345  0096                     	;# 
   346  0097                     	;# 
   347  0098                     	;# 
   348  0099                     	;# 
   349  009A                     	;# 
   350  009B                     	;# 
   351  009C                     	;# 
   352  009D                     	;# 
   353  009E                     	;# 
   354  009F                     	;# 
   355  0105                     	;# 
   356  0107                     	;# 
   357  0108                     	;# 
   358  0109                     	;# 
   359  010C                     	;# 
   360  010C                     	;# 
   361  010D                     	;# 
   362  010E                     	;# 
   363  010F                     	;# 
   364  0185                     	;# 
   365  0187                     	;# 
   366  0188                     	;# 
   367  0189                     	;# 
   368  018C                     	;# 
   369  018D                     	;# 
   370  001E                     _ADRESH	set	30
   371  001F                     _ADCON0bits	set	31
   372  0008                     _PORTDbits	set	8
   373  0006                     _PORTBbits	set	6
   374  0009                     _PORTE	set	9
   375  0008                     _PORTD	set	8
   376  0006                     _PORTB	set	6
   377  0007                     _PORTC	set	7
   378  009F                     _ADCON1bits	set	159
   379  008F                     _OSCCONbits	set	143
   380  009E                     _ADRESL	set	158
   381  0088                     _TRISD	set	136
   382  0087                     _TRISC	set	135
   383  0089                     _TRISEbits	set	137
   384  0086                     _TRISBbits	set	134
   385  0085                     _TRISAbits	set	133
   386  0188                     _ANSELbits	set	392
   387  0189                     _ANSELH	set	393
   388  0188                     _ANSEL	set	392
   389                           
   390                           	psect	cinit
   391  000F                     start_initialization:	
   392                           ; #config settings
   393                           
   394  000F                     __initialization:
   395                           
   396                           ; Clear objects allocated to COMMON
   397  000F  01F8               	clrf	__pbssCOMMON& (0+127)
   398  0010  01F9               	clrf	(__pbssCOMMON+1)& (0+127)
   399  0011  01FA               	clrf	(__pbssCOMMON+2)& (0+127)
   400                           
   401                           ; Clear objects allocated to BANK0
   402  0012  1283               	bcf	3,5	;RP0=0, select bank0
   403  0013  1303               	bcf	3,6	;RP1=0, select bank0
   404  0014  01C2               	clrf	__pbssBANK0& (0+127)
   405  0015  01C3               	clrf	(__pbssBANK0+1)& (0+127)
   406  0016  01C4               	clrf	(__pbssBANK0+2)& (0+127)
   407  0017  01C5               	clrf	(__pbssBANK0+3)& (0+127)
   408  0018  01C6               	clrf	(__pbssBANK0+4)& (0+127)
   409  0019  01C7               	clrf	(__pbssBANK0+5)& (0+127)
   410  001A  01C8               	clrf	(__pbssBANK0+6)& (0+127)
   411  001B  01C9               	clrf	(__pbssBANK0+7)& (0+127)
   412  001C  01CA               	clrf	(__pbssBANK0+8)& (0+127)
   413  001D  01CB               	clrf	(__pbssBANK0+9)& (0+127)
   414  001E  01CC               	clrf	(__pbssBANK0+10)& (0+127)
   415  001F  01CD               	clrf	(__pbssBANK0+11)& (0+127)
   416  0020  01CE               	clrf	(__pbssBANK0+12)& (0+127)
   417  0021  01CF               	clrf	(__pbssBANK0+13)& (0+127)
   418  0022                     end_of_initialization:	
   419                           ;End of C runtime variable initialization code
   420                           
   421  0022                     __end_of__initialization:
   422  0022  0183               	clrf	3
   423  0023  120A  118A  2E2E   	ljmp	_main	;jump to C main() function
   424                           
   425                           	psect	bssCOMMON
   426  0078                     __pbssCOMMON:
   427  0078                     _infrarrojo3:
   428  0078                     	ds	1
   429  0079                     _infrarrojo2:
   430  0079                     	ds	1
   431  007A                     _infrarrojo1:
   432  007A                     	ds	1
   433                           
   434                           	psect	bssBANK0
   435  0042                     __pbssBANK0:
   436  0042                     _temperatura_aprox:
   437  0042                     	ds	4
   438  0046                     _conversion_total:
   439  0046                     	ds	4
   440  004A                     _conversion1:
   441  004A                     	ds	4
   442  004E                     _suma_ir:
   443  004E                     	ds	1
   444  004F                     _antirrebote:
   445  004F                     	ds	1
   446                           
   447                           	psect	cstackCOMMON
   448  0070                     __pcstackCOMMON:
   449  0070                     ?_setup:
   450  0070                     ?_toggle_adc:	
   451                           ; 1 bytes @ 0x0
   452                           
   453  0070                     ?_infrarrojos:	
   454                           ; 1 bytes @ 0x0
   455                           
   456  0070                     ?_osc_config:	
   457                           ; 1 bytes @ 0x0
   458                           
   459  0070                     ?_ADC_config:	
   460                           ; 1 bytes @ 0x0
   461                           
   462  0070                     ?_isr:	
   463                           ; 1 bytes @ 0x0
   464                           
   465  0070                     ??_isr:	
   466                           ; 1 bytes @ 0x0
   467                           
   468  0070                     ?_main:	
   469                           ; 1 bytes @ 0x0
   470                           
   471                           
   472                           ; 1 bytes @ 0x0
   473  0070                     	ds	2
   474  0072                     ??_infrarrojos:
   475  0072                     ??_osc_config:	
   476                           ; 1 bytes @ 0x2
   477                           
   478  0072                     ??_ADC_config:	
   479                           ; 1 bytes @ 0x2
   480                           
   481  0072                     ??___fldiv:	
   482                           ; 1 bytes @ 0x2
   483                           
   484  0072                     ?___fltol:	
   485                           ; 1 bytes @ 0x2
   486                           
   487  0072                     ?___xxtofl:	
   488                           ; 4 bytes @ 0x2
   489                           
   490  0072                     ___fltol@f1:	
   491                           ; 4 bytes @ 0x2
   492                           
   493  0072                     ___xxtofl@val:	
   494                           ; 4 bytes @ 0x2
   495                           
   496                           
   497                           ; 4 bytes @ 0x2
   498  0072                     	ds	2
   499  0074                     osc_config@freq:
   500                           
   501                           ; 1 bytes @ 0x4
   502  0074                     	ds	1
   503  0075                     ??_setup:
   504                           
   505                           ; 1 bytes @ 0x5
   506  0075                     	ds	1
   507  0076                     ___fltol@sign1:
   508                           
   509                           ; 1 bytes @ 0x6
   510  0076                     	ds	1
   511  0077                     ___fltol@exp1:
   512                           
   513                           ; 1 bytes @ 0x7
   514  0077                     	ds	1
   515  0078                     ??_main:
   516                           
   517                           	psect	cstackBANK0
   518  0020                     __pcstackBANK0:	
   519                           ; 1 bytes @ 0x8
   520                           
   521  0020                     ??___fltol:
   522  0020                     ??___xxtofl:	
   523                           ; 1 bytes @ 0x0
   524                           
   525  0020                     ?___fldiv:	
   526                           ; 1 bytes @ 0x0
   527                           
   528  0020                     ___fldiv@a:	
   529                           ; 4 bytes @ 0x0
   530                           
   531                           
   532                           ; 4 bytes @ 0x0
   533  0020                     	ds	4
   534  0024                     ___xxtofl@sign:
   535  0024                     ___fldiv@b:	
   536                           ; 1 bytes @ 0x4
   537                           
   538                           
   539                           ; 4 bytes @ 0x4
   540  0024                     	ds	1
   541  0025                     ___xxtofl@exp:
   542                           
   543                           ; 1 bytes @ 0x5
   544  0025                     	ds	1
   545  0026                     ___xxtofl@arg:
   546                           
   547                           ; 4 bytes @ 0x6
   548  0026                     	ds	2
   549  0028                     ___fldiv@rem:
   550                           
   551                           ; 4 bytes @ 0x8
   552  0028                     	ds	2
   553  002A                     ?___fladd:
   554  002A                     ___fladd@b:	
   555                           ; 4 bytes @ 0xA
   556                           
   557                           
   558                           ; 4 bytes @ 0xA
   559  002A                     	ds	2
   560  002C                     ___fldiv@sign:
   561                           
   562                           ; 1 bytes @ 0xC
   563  002C                     	ds	1
   564  002D                     ___fldiv@new_exp:
   565                           
   566                           ; 2 bytes @ 0xD
   567  002D                     	ds	1
   568  002E                     ___fladd@a:
   569                           
   570                           ; 4 bytes @ 0xE
   571  002E                     	ds	1
   572  002F                     ___fldiv@grs:
   573                           
   574                           ; 4 bytes @ 0xF
   575  002F                     	ds	3
   576  0032                     ??___fladd:
   577                           
   578                           ; 1 bytes @ 0x12
   579  0032                     	ds	1
   580  0033                     ___fldiv@bexp:
   581                           
   582                           ; 1 bytes @ 0x13
   583  0033                     	ds	1
   584  0034                     ___fldiv@aexp:
   585                           
   586                           ; 1 bytes @ 0x14
   587  0034                     	ds	6
   588  003A                     ___fladd@signs:
   589                           
   590                           ; 1 bytes @ 0x1A
   591  003A                     	ds	1
   592  003B                     ___fladd@aexp:
   593                           
   594                           ; 1 bytes @ 0x1B
   595  003B                     	ds	1
   596  003C                     ___fladd@bexp:
   597                           
   598                           ; 1 bytes @ 0x1C
   599  003C                     	ds	1
   600  003D                     ___fladd@grs:
   601                           
   602                           ; 1 bytes @ 0x1D
   603  003D                     	ds	1
   604  003E                     ??_toggle_adc:
   605                           
   606                           ; 1 bytes @ 0x1E
   607  003E                     	ds	4
   608                           
   609                           	psect	maintext
   610  062E                     __pmaintext:	
   611 ;;
   612 ;;Main: autosize = 0, tempsize = 0, incstack = 0, save=0
   613 ;;
   614 ;; *************** function _main *****************
   615 ;; Defined at:
   616 ;;		line 82 in file "C:/Users/Andy Bonilla/Documents/GitHub/ED2/Proyecto1_ED2/PIC_sensores.X/main_sensores.c"
   617 ;; Parameters:    Size  Location     Type
   618 ;;		None
   619 ;; Auto vars:     Size  Location     Type
   620 ;;		None
   621 ;; Return value:  Size  Location     Type
   622 ;;                  1    wreg      void 
   623 ;; Registers used:
   624 ;;		wreg, fsr0l, fsr0h, status,2, status,0, btemp+1, pclath, cstack
   625 ;; Tracked objects:
   626 ;;		On entry : B00/0
   627 ;;		On exit  : 0/0
   628 ;;		Unchanged: 0/0
   629 ;; Data sizes:     COMMON   BANK0   BANK1   BANK3   BANK2
   630 ;;      Params:         0       0       0       0       0
   631 ;;      Locals:         0       0       0       0       0
   632 ;;      Temps:          0       0       0       0       0
   633 ;;      Totals:         0       0       0       0       0
   634 ;;Total ram usage:        0 bytes
   635 ;; Hardware stack levels required when called: 3
   636 ;; This function calls:
   637 ;;		___fldiv
   638 ;;		___fltol
   639 ;;		_infrarrojos
   640 ;;		_setup
   641 ;;		_toggle_adc
   642 ;; This function is called by:
   643 ;;		Startup code after reset
   644 ;; This function uses a non-reentrant model
   645 ;;
   646                           
   647                           
   648                           ;psect for function _main
   649  062E                     _main:
   650  062E                     l2008:	
   651                           ;incstack = 0
   652                           ; Regs used in _main: [wreg-fsr0h+status,2+status,0+btemp+1+pclath+cstack]
   653                           
   654                           
   655                           ;C:/Users/Andy Bonilla/Documents/GitHub/ED2/Proyecto1_ED2/PIC_sensores.X/main_sensores.c
      +                          : 85:     setup();
   656  062E  120A  118A  26E2  120A  118A  	fcall	_setup
   657  0633                     l2010:
   658                           
   659                           ;C:/Users/Andy Bonilla/Documents/GitHub/ED2/Proyecto1_ED2/PIC_sensores.X/main_sensores.c
      +                          : 88:     {;C:/Users/Andy Bonilla/Documents/GitHub/ED2/Proyecto1_ED2/PIC_sensores.X/main
      +                          _sensores.c: 90:         toggle_adc();
   660  0633  120A  118A  25C3  120A  118A  	fcall	_toggle_adc
   661  0638                     l2012:
   662                           
   663                           ;C:/Users/Andy Bonilla/Documents/GitHub/ED2/Proyecto1_ED2/PIC_sensores.X/main_sensores.c
      +                          : 92:         infrarrojos();
   664  0638  120A  118A  2673  120A  118A  	fcall	_infrarrojos
   665  063D                     l2014:
   666                           
   667                           ;C:/Users/Andy Bonilla/Documents/GitHub/ED2/Proyecto1_ED2/PIC_sensores.X/main_sensores.c
      +                          : 94:         temperatura_aprox=(conversion_total/2.046);
   668  063D  3040               	movlw	64
   669  063E  1283               	bcf	3,5	;RP0=0, select bank0
   670  063F  1303               	bcf	3,6	;RP1=0, select bank0
   671  0640  00A3               	movwf	___fldiv@a+3
   672  0641  3002               	movlw	2
   673  0642  00A2               	movwf	___fldiv@a+2
   674  0643  30F1               	movlw	241
   675  0644  00A1               	movwf	___fldiv@a+1
   676  0645  30AA               	movlw	170
   677  0646  00A0               	movwf	___fldiv@a
   678  0647  0849               	movf	_conversion_total+3,w
   679  0648  00A7               	movwf	___fldiv@b+3
   680  0649  0848               	movf	_conversion_total+2,w
   681  064A  00A6               	movwf	___fldiv@b+2
   682  064B  0847               	movf	_conversion_total+1,w
   683  064C  00A5               	movwf	___fldiv@b+1
   684  064D  0846               	movf	_conversion_total,w
   685  064E  00A4               	movwf	___fldiv@b
   686  064F  120A  118A  22AE  120A  118A  	fcall	___fldiv
   687  0654  1283               	bcf	3,5	;RP0=0, select bank0
   688  0655  1303               	bcf	3,6	;RP1=0, select bank0
   689  0656  0823               	movf	?___fldiv+3,w
   690  0657  00C5               	movwf	_temperatura_aprox+3
   691  0658  0822               	movf	?___fldiv+2,w
   692  0659  00C4               	movwf	_temperatura_aprox+2
   693  065A  0821               	movf	?___fldiv+1,w
   694  065B  00C3               	movwf	_temperatura_aprox+1
   695  065C  0820               	movf	?___fldiv,w
   696  065D  00C2               	movwf	_temperatura_aprox
   697  065E                     l2016:
   698                           
   699                           ;C:/Users/Andy Bonilla/Documents/GitHub/ED2/Proyecto1_ED2/PIC_sensores.X/main_sensores.c
      +                          : 95:         PORTC=temperatura_aprox;
   700  065E  0845               	movf	_temperatura_aprox+3,w
   701  065F  00F5               	movwf	___fltol@f1+3
   702  0660  0844               	movf	_temperatura_aprox+2,w
   703  0661  00F4               	movwf	___fltol@f1+2
   704  0662  0843               	movf	_temperatura_aprox+1,w
   705  0663  00F3               	movwf	___fltol@f1+1
   706  0664  0842               	movf	_temperatura_aprox,w
   707  0665  00F2               	movwf	___fltol@f1
   708  0666  120A  118A  2547  120A  118A  	fcall	___fltol
   709  066B  0872               	movf	?___fltol,w
   710  066C  1283               	bcf	3,5	;RP0=0, select bank0
   711  066D  1303               	bcf	3,6	;RP1=0, select bank0
   712  066E  0087               	movwf	7	;volatile
   713  066F  2E33               	goto	l2010
   714  0670  120A  118A  280C   	ljmp	start
   715  0673                     __end_of_main:
   716                           
   717                           	psect	text1
   718  05C3                     __ptext1:	
   719 ;; *************** function _toggle_adc *****************
   720 ;; Defined at:
   721 ;;		line 197 in file "C:/Users/Andy Bonilla/Documents/GitHub/ED2/Proyecto1_ED2/PIC_sensores.X/main_sensores.c"
   722 ;; Parameters:    Size  Location     Type
   723 ;;		None
   724 ;; Auto vars:     Size  Location     Type
   725 ;;		None
   726 ;; Return value:  Size  Location     Type
   727 ;;                  1    wreg      void 
   728 ;; Registers used:
   729 ;;		wreg, status,2, status,0, btemp+1, pclath, cstack
   730 ;; Tracked objects:
   731 ;;		On entry : 0/0
   732 ;;		On exit  : 0/0
   733 ;;		Unchanged: 0/0
   734 ;; Data sizes:     COMMON   BANK0   BANK1   BANK3   BANK2
   735 ;;      Params:         0       0       0       0       0
   736 ;;      Locals:         0       0       0       0       0
   737 ;;      Temps:          0       4       0       0       0
   738 ;;      Totals:         0       4       0       0       0
   739 ;;Total ram usage:        4 bytes
   740 ;; Hardware stack levels used: 1
   741 ;; Hardware stack levels required when called: 2
   742 ;; This function calls:
   743 ;;		___fladd
   744 ;;		___xxtofl
   745 ;; This function is called by:
   746 ;;		_main
   747 ;; This function uses a non-reentrant model
   748 ;;
   749                           
   750                           
   751                           ;psect for function _toggle_adc
   752  05C3                     _toggle_adc:
   753  05C3                     l1822:	
   754                           ;incstack = 0
   755                           ; Regs used in _toggle_adc: [wreg+status,2+status,0+btemp+1+pclath+cstack]
   756                           
   757                           
   758                           ;C:/Users/Andy Bonilla/Documents/GitHub/ED2/Proyecto1_ED2/PIC_sensores.X/main_sensores.c
      +                          : 199:     if (ADCON0bits.GO==0)
   759  05C3  1283               	bcf	3,5	;RP0=0, select bank0
   760  05C4  1303               	bcf	3,6	;RP1=0, select bank0
   761  05C5  189F               	btfsc	31,1	;volatile
   762  05C6  2DC8               	goto	u2291
   763  05C7  2DC9               	goto	u2290
   764  05C8                     u2291:
   765  05C8  2E2D               	goto	l91
   766  05C9                     u2290:
   767  05C9                     l1824:
   768                           
   769                           ;C:/Users/Andy Bonilla/Documents/GitHub/ED2/Proyecto1_ED2/PIC_sensores.X/main_sensores.c
      +                          : 200:     {;C:/Users/Andy Bonilla/Documents/GitHub/ED2/Proyecto1_ED2/PIC_sensores.X/mai
      +                          n_sensores.c: 201:         conversion1=ADRESH<<8;
   770  05C9  081E               	movf	30,w	;volatile
   771  05CA  00BE               	movwf	??_toggle_adc
   772  05CB  01BF               	clrf	??_toggle_adc+1
   773  05CC  083E               	movf	??_toggle_adc,w
   774  05CD  00BF               	movwf	??_toggle_adc+1
   775  05CE  01BE               	clrf	??_toggle_adc
   776  05CF  083E               	movf	??_toggle_adc,w
   777  05D0  00F2               	movwf	___xxtofl@val
   778  05D1  083F               	movf	??_toggle_adc+1,w
   779  05D2  00F3               	movwf	___xxtofl@val+1
   780  05D3  3000               	movlw	0
   781  05D4  1BF3               	btfsc	___xxtofl@val+1,7
   782  05D5  30FF               	movlw	255
   783  05D6  00F4               	movwf	___xxtofl@val+2
   784  05D7  00F5               	movwf	___xxtofl@val+3
   785  05D8  3001               	movlw	1
   786  05D9  120A  118A  248B  120A  118A  	fcall	___xxtofl
   787  05DE  0875               	movf	?___xxtofl+3,w
   788  05DF  1283               	bcf	3,5	;RP0=0, select bank0
   789  05E0  1303               	bcf	3,6	;RP1=0, select bank0
   790  05E1  00CD               	movwf	_conversion1+3
   791  05E2  0874               	movf	?___xxtofl+2,w
   792  05E3  00CC               	movwf	_conversion1+2
   793  05E4  0873               	movf	?___xxtofl+1,w
   794  05E5  00CB               	movwf	_conversion1+1
   795  05E6  0872               	movf	?___xxtofl,w
   796  05E7  00CA               	movwf	_conversion1
   797                           
   798                           ;C:/Users/Andy Bonilla/Documents/GitHub/ED2/Proyecto1_ED2/PIC_sensores.X/main_sensores.c
      +                          : 202:         conversion_total=conversion1+ADRESL;
   799  05E8  084D               	movf	_conversion1+3,w
   800  05E9  00AD               	movwf	___fladd@b+3
   801  05EA  084C               	movf	_conversion1+2,w
   802  05EB  00AC               	movwf	___fladd@b+2
   803  05EC  084B               	movf	_conversion1+1,w
   804  05ED  00AB               	movwf	___fladd@b+1
   805  05EE  084A               	movf	_conversion1,w
   806  05EF  00AA               	movwf	___fladd@b
   807  05F0  1683               	bsf	3,5	;RP0=1, select bank1
   808  05F1  1303               	bcf	3,6	;RP1=0, select bank1
   809  05F2  081E               	movf	30,w	;volatile
   810  05F3  1283               	bcf	3,5	;RP0=0, select bank0
   811  05F4  1303               	bcf	3,6	;RP1=0, select bank0
   812  05F5  00BE               	movwf	??_toggle_adc
   813  05F6  01BF               	clrf	??_toggle_adc+1
   814  05F7  01C0               	clrf	??_toggle_adc+2
   815  05F8  01C1               	clrf	??_toggle_adc+3
   816  05F9  0841               	movf	??_toggle_adc+3,w
   817  05FA  00F5               	movwf	___xxtofl@val+3
   818  05FB  0840               	movf	??_toggle_adc+2,w
   819  05FC  00F4               	movwf	___xxtofl@val+2
   820  05FD  083F               	movf	??_toggle_adc+1,w
   821  05FE  00F3               	movwf	___xxtofl@val+1
   822  05FF  083E               	movf	??_toggle_adc,w
   823  0600  00F2               	movwf	___xxtofl@val
   824  0601  3001               	movlw	1
   825  0602  120A  118A  248B  120A  118A  	fcall	___xxtofl
   826  0607  0875               	movf	?___xxtofl+3,w
   827  0608  1283               	bcf	3,5	;RP0=0, select bank0
   828  0609  1303               	bcf	3,6	;RP1=0, select bank0
   829  060A  00B1               	movwf	___fladd@a+3
   830  060B  0874               	movf	?___xxtofl+2,w
   831  060C  00B0               	movwf	___fladd@a+2
   832  060D  0873               	movf	?___xxtofl+1,w
   833  060E  00AF               	movwf	___fladd@a+1
   834  060F  0872               	movf	?___xxtofl,w
   835  0610  00AE               	movwf	___fladd@a
   836  0611  120A  118A  2026  120A  118A  	fcall	___fladd
   837  0616  1283               	bcf	3,5	;RP0=0, select bank0
   838  0617  1303               	bcf	3,6	;RP1=0, select bank0
   839  0618  082D               	movf	?___fladd+3,w
   840  0619  00C9               	movwf	_conversion_total+3
   841  061A  082C               	movf	?___fladd+2,w
   842  061B  00C8               	movwf	_conversion_total+2
   843  061C  082B               	movf	?___fladd+1,w
   844  061D  00C7               	movwf	_conversion_total+1
   845  061E  082A               	movf	?___fladd,w
   846  061F  00C6               	movwf	_conversion_total
   847  0620                     l1826:
   848                           
   849                           ;C:/Users/Andy Bonilla/Documents/GitHub/ED2/Proyecto1_ED2/PIC_sensores.X/main_sensores.c
      +                          : 203:         _delay((unsigned long)((1)*(8000000/4000.0)));
   850  0620  3003               	movlw	3
   851  0621  1283               	bcf	3,5	;RP0=0, select bank0
   852  0622  1303               	bcf	3,6	;RP1=0, select bank0
   853  0623  00BF               	movwf	??_toggle_adc+1
   854  0624  3097               	movlw	151
   855  0625  00BE               	movwf	??_toggle_adc
   856  0626                     u2697:
   857  0626  0BBE               	decfsz	??_toggle_adc,f
   858  0627  2E26               	goto	u2697
   859  0628  0BBF               	decfsz	??_toggle_adc+1,f
   860  0629  2E26               	goto	u2697
   861  062A                     l1828:
   862                           
   863                           ;C:/Users/Andy Bonilla/Documents/GitHub/ED2/Proyecto1_ED2/PIC_sensores.X/main_sensores.c
      +                          : 204:         ADCON0bits.GO=1;
   864  062A  1283               	bcf	3,5	;RP0=0, select bank0
   865  062B  1303               	bcf	3,6	;RP1=0, select bank0
   866  062C  149F               	bsf	31,1	;volatile
   867  062D                     l91:
   868  062D  0008               	return
   869  062E                     __end_of_toggle_adc:
   870                           
   871                           	psect	text2
   872  048B                     __ptext2:	
   873 ;; *************** function ___xxtofl *****************
   874 ;; Defined at:
   875 ;;		line 10 in file "C:\Program Files\Microchip\xc8\v2.32\pic\sources\c90\common\xxtofl.c"
   876 ;; Parameters:    Size  Location     Type
   877 ;;  sign            1    wreg     unsigned char 
   878 ;;  val             4    2[COMMON] long 
   879 ;; Auto vars:     Size  Location     Type
   880 ;;  sign            1    4[BANK0 ] unsigned char 
   881 ;;  arg             4    6[BANK0 ] unsigned long 
   882 ;;  exp             1    5[BANK0 ] unsigned char 
   883 ;; Return value:  Size  Location     Type
   884 ;;                  4    2[COMMON] unsigned char 
   885 ;; Registers used:
   886 ;;		wreg, status,2, status,0
   887 ;; Tracked objects:
   888 ;;		On entry : 0/0
   889 ;;		On exit  : 0/0
   890 ;;		Unchanged: 0/0
   891 ;; Data sizes:     COMMON   BANK0   BANK1   BANK3   BANK2
   892 ;;      Params:         4       0       0       0       0
   893 ;;      Locals:         0       6       0       0       0
   894 ;;      Temps:          0       4       0       0       0
   895 ;;      Totals:         4      10       0       0       0
   896 ;;Total ram usage:       14 bytes
   897 ;; Hardware stack levels used: 1
   898 ;; Hardware stack levels required when called: 1
   899 ;; This function calls:
   900 ;;		Nothing
   901 ;; This function is called by:
   902 ;;		_toggle_adc
   903 ;; This function uses a non-reentrant model
   904 ;;
   905                           
   906                           
   907                           ;psect for function ___xxtofl
   908  048B                     ___xxtofl:
   909                           
   910                           ;incstack = 0
   911                           ; Regs used in ___xxtofl: [wreg+status,2+status,0]
   912                           ;___xxtofl@sign stored from wreg
   913  048B  1283               	bcf	3,5	;RP0=0, select bank0
   914  048C  1303               	bcf	3,6	;RP1=0, select bank0
   915  048D  00A4               	movwf	___xxtofl@sign
   916  048E                     l1778:
   917  048E  0824               	movf	___xxtofl@sign,w
   918  048F  1903               	btfsc	3,2
   919  0490  2C92               	goto	u2151
   920  0491  2C93               	goto	u2150
   921  0492                     u2151:
   922  0492  2CA7               	goto	l1784
   923  0493                     u2150:
   924  0493                     l1780:
   925  0493  1FF5               	btfss	___xxtofl@val+3,7
   926  0494  2C96               	goto	u2161
   927  0495  2C97               	goto	u2160
   928  0496                     u2161:
   929  0496  2CA7               	goto	l1784
   930  0497                     u2160:
   931  0497                     l1782:
   932  0497  0972               	comf	___xxtofl@val,w
   933  0498  00A6               	movwf	___xxtofl@arg
   934  0499  0973               	comf	___xxtofl@val+1,w
   935  049A  00A7               	movwf	___xxtofl@arg+1
   936  049B  0974               	comf	___xxtofl@val+2,w
   937  049C  00A8               	movwf	___xxtofl@arg+2
   938  049D  0975               	comf	___xxtofl@val+3,w
   939  049E  00A9               	movwf	___xxtofl@arg+3
   940  049F  0AA6               	incf	___xxtofl@arg,f
   941  04A0  1903               	skipnz
   942  04A1  0AA7               	incf	___xxtofl@arg+1,f
   943  04A2  1903               	skipnz
   944  04A3  0AA8               	incf	___xxtofl@arg+2,f
   945  04A4  1903               	skipnz
   946  04A5  0AA9               	incf	___xxtofl@arg+3,f
   947  04A6  2CAF               	goto	l633
   948  04A7                     l1784:
   949  04A7  0875               	movf	___xxtofl@val+3,w
   950  04A8  00A9               	movwf	___xxtofl@arg+3
   951  04A9  0874               	movf	___xxtofl@val+2,w
   952  04AA  00A8               	movwf	___xxtofl@arg+2
   953  04AB  0873               	movf	___xxtofl@val+1,w
   954  04AC  00A7               	movwf	___xxtofl@arg+1
   955  04AD  0872               	movf	___xxtofl@val,w
   956  04AE  00A6               	movwf	___xxtofl@arg
   957  04AF                     l633:
   958  04AF  0875               	movf	___xxtofl@val+3,w
   959  04B0  0474               	iorwf	___xxtofl@val+2,w
   960  04B1  0473               	iorwf	___xxtofl@val+1,w
   961  04B2  0472               	iorwf	___xxtofl@val,w
   962  04B3  1D03               	skipz
   963  04B4  2CB6               	goto	u2171
   964  04B5  2CB7               	goto	u2170
   965  04B6                     u2171:
   966  04B6  2CC0               	goto	l1790
   967  04B7                     u2170:
   968  04B7                     l1786:
   969  04B7  3000               	movlw	0
   970  04B8  00F5               	movwf	?___xxtofl+3
   971  04B9  3000               	movlw	0
   972  04BA  00F4               	movwf	?___xxtofl+2
   973  04BB  3000               	movlw	0
   974  04BC  00F3               	movwf	?___xxtofl+1
   975  04BD  3000               	movlw	0
   976  04BE  00F2               	movwf	?___xxtofl
   977  04BF  2D46               	goto	l635
   978  04C0                     l1790:
   979  04C0  3096               	movlw	150
   980  04C1  00A0               	movwf	??___xxtofl
   981  04C2  0820               	movf	??___xxtofl,w
   982  04C3  00A5               	movwf	___xxtofl@exp
   983  04C4  2CD2               	goto	l1794
   984  04C5                     l1792:
   985  04C5  3001               	movlw	1
   986  04C6  00A0               	movwf	??___xxtofl
   987  04C7  0820               	movf	??___xxtofl,w
   988  04C8  07A5               	addwf	___xxtofl@exp,f
   989  04C9  3001               	movlw	1
   990  04CA                     u2185:
   991  04CA  1003               	clrc
   992  04CB  0CA9               	rrf	___xxtofl@arg+3,f
   993  04CC  0CA8               	rrf	___xxtofl@arg+2,f
   994  04CD  0CA7               	rrf	___xxtofl@arg+1,f
   995  04CE  0CA6               	rrf	___xxtofl@arg,f
   996  04CF  3EFF               	addlw	-1
   997  04D0  1D03               	skipz
   998  04D1  2CCA               	goto	u2185
   999  04D2                     l1794:
  1000  04D2  30FE               	movlw	254
  1001  04D3  0529               	andwf	___xxtofl@arg+3,w
  1002  04D4  1D03               	btfss	3,2
  1003  04D5  2CD7               	goto	u2191
  1004  04D6  2CD8               	goto	u2190
  1005  04D7                     u2191:
  1006  04D7  2CC5               	goto	l1792
  1007  04D8                     u2190:
  1008  04D8  2CF4               	goto	l639
  1009  04D9                     l1796:
  1010  04D9  3001               	movlw	1
  1011  04DA  00A0               	movwf	??___xxtofl
  1012  04DB  0820               	movf	??___xxtofl,w
  1013  04DC  07A5               	addwf	___xxtofl@exp,f
  1014  04DD                     l1798:
  1015  04DD  3001               	movlw	1
  1016  04DE  07A6               	addwf	___xxtofl@arg,f
  1017  04DF  3000               	movlw	0
  1018  04E0  1803               	skipnc
  1019  04E1  3001               	movlw	1
  1020  04E2  07A7               	addwf	___xxtofl@arg+1,f
  1021  04E3  3000               	movlw	0
  1022  04E4  1803               	skipnc
  1023  04E5  3001               	movlw	1
  1024  04E6  07A8               	addwf	___xxtofl@arg+2,f
  1025  04E7  3000               	movlw	0
  1026  04E8  1803               	skipnc
  1027  04E9  3001               	movlw	1
  1028  04EA  07A9               	addwf	___xxtofl@arg+3,f
  1029  04EB                     l1800:
  1030  04EB  3001               	movlw	1
  1031  04EC                     u2205:
  1032  04EC  1003               	clrc
  1033  04ED  0CA9               	rrf	___xxtofl@arg+3,f
  1034  04EE  0CA8               	rrf	___xxtofl@arg+2,f
  1035  04EF  0CA7               	rrf	___xxtofl@arg+1,f
  1036  04F0  0CA6               	rrf	___xxtofl@arg,f
  1037  04F1  3EFF               	addlw	-1
  1038  04F2  1D03               	skipz
  1039  04F3  2CEC               	goto	u2205
  1040  04F4                     l639:
  1041  04F4  30FF               	movlw	255
  1042  04F5  0529               	andwf	___xxtofl@arg+3,w
  1043  04F6  1D03               	btfss	3,2
  1044  04F7  2CF9               	goto	u2211
  1045  04F8  2CFA               	goto	u2210
  1046  04F9                     u2211:
  1047  04F9  2CD9               	goto	l1796
  1048  04FA                     u2210:
  1049  04FA  2D06               	goto	l1804
  1050  04FB                     l1802:
  1051  04FB  3001               	movlw	1
  1052  04FC  02A5               	subwf	___xxtofl@exp,f
  1053  04FD  3001               	movlw	1
  1054  04FE  00A0               	movwf	??___xxtofl
  1055  04FF                     u2225:
  1056  04FF  1003               	clrc
  1057  0500  0DA6               	rlf	___xxtofl@arg,f
  1058  0501  0DA7               	rlf	___xxtofl@arg+1,f
  1059  0502  0DA8               	rlf	___xxtofl@arg+2,f
  1060  0503  0DA9               	rlf	___xxtofl@arg+3,f
  1061  0504  0BA0               	decfsz	??___xxtofl,f
  1062  0505  2CFF               	goto	u2225
  1063  0506                     l1804:
  1064  0506  1BA8               	btfsc	___xxtofl@arg+2,7
  1065  0507  2D09               	goto	u2231
  1066  0508  2D0A               	goto	u2230
  1067  0509                     u2231:
  1068  0509  2D10               	goto	l646
  1069  050A                     u2230:
  1070  050A                     l1806:
  1071  050A  3002               	movlw	2
  1072  050B  0225               	subwf	___xxtofl@exp,w
  1073  050C  1803               	skipnc
  1074  050D  2D0F               	goto	u2241
  1075  050E  2D10               	goto	u2240
  1076  050F                     u2241:
  1077  050F  2CFB               	goto	l1802
  1078  0510                     u2240:
  1079  0510                     l646:
  1080  0510  1825               	btfsc	___xxtofl@exp,0
  1081  0511  2D13               	goto	u2251
  1082  0512  2D14               	goto	u2250
  1083  0513                     u2251:
  1084  0513  2D1C               	goto	l647
  1085  0514                     u2250:
  1086  0514                     l1808:
  1087  0514  30FF               	movlw	255
  1088  0515  05A6               	andwf	___xxtofl@arg,f
  1089  0516  30FF               	movlw	255
  1090  0517  05A7               	andwf	___xxtofl@arg+1,f
  1091  0518  307F               	movlw	127
  1092  0519  05A8               	andwf	___xxtofl@arg+2,f
  1093  051A  30FF               	movlw	255
  1094  051B  05A9               	andwf	___xxtofl@arg+3,f
  1095  051C                     l647:
  1096  051C  1003               	clrc
  1097  051D  0CA5               	rrf	___xxtofl@exp,f
  1098  051E                     l1810:
  1099  051E  0825               	movf	___xxtofl@exp,w
  1100  051F  00A0               	movwf	??___xxtofl
  1101  0520  01A1               	clrf	??___xxtofl+1
  1102  0521  01A2               	clrf	??___xxtofl+2
  1103  0522  01A3               	clrf	??___xxtofl+3
  1104  0523  3018               	movlw	24
  1105  0524                     u2265:
  1106  0524  1003               	clrc
  1107  0525  0DA0               	rlf	??___xxtofl,f
  1108  0526  0DA1               	rlf	??___xxtofl+1,f
  1109  0527  0DA2               	rlf	??___xxtofl+2,f
  1110  0528  0DA3               	rlf	??___xxtofl+3,f
  1111  0529                     u2260:
  1112  0529  3EFF               	addlw	-1
  1113  052A  1D03               	skipz
  1114  052B  2D24               	goto	u2265
  1115  052C  0820               	movf	??___xxtofl,w
  1116  052D  04A6               	iorwf	___xxtofl@arg,f
  1117  052E  0821               	movf	??___xxtofl+1,w
  1118  052F  04A7               	iorwf	___xxtofl@arg+1,f
  1119  0530  0822               	movf	??___xxtofl+2,w
  1120  0531  04A8               	iorwf	___xxtofl@arg+2,f
  1121  0532  0823               	movf	??___xxtofl+3,w
  1122  0533  04A9               	iorwf	___xxtofl@arg+3,f
  1123  0534                     l1812:
  1124  0534  0824               	movf	___xxtofl@sign,w
  1125  0535  1903               	btfsc	3,2
  1126  0536  2D38               	goto	u2271
  1127  0537  2D39               	goto	u2270
  1128  0538                     u2271:
  1129  0538  2D3E               	goto	l1818
  1130  0539                     u2270:
  1131  0539                     l1814:
  1132  0539  1FF5               	btfss	___xxtofl@val+3,7
  1133  053A  2D3C               	goto	u2281
  1134  053B  2D3D               	goto	u2280
  1135  053C                     u2281:
  1136  053C  2D3E               	goto	l1818
  1137  053D                     u2280:
  1138  053D                     l1816:
  1139  053D  17A9               	bsf	___xxtofl@arg+3,7
  1140  053E                     l1818:
  1141  053E  0829               	movf	___xxtofl@arg+3,w
  1142  053F  00F5               	movwf	?___xxtofl+3
  1143  0540  0828               	movf	___xxtofl@arg+2,w
  1144  0541  00F4               	movwf	?___xxtofl+2
  1145  0542  0827               	movf	___xxtofl@arg+1,w
  1146  0543  00F3               	movwf	?___xxtofl+1
  1147  0544  0826               	movf	___xxtofl@arg,w
  1148  0545  00F2               	movwf	?___xxtofl
  1149  0546                     l635:
  1150  0546  0008               	return
  1151  0547                     __end_of___xxtofl:
  1152                           
  1153                           	psect	text3
  1154  0026                     __ptext3:	
  1155 ;; *************** function ___fladd *****************
  1156 ;; Defined at:
  1157 ;;		line 10 in file "C:\Program Files\Microchip\xc8\v2.32\pic\sources\c90\common\sprcadd.c"
  1158 ;; Parameters:    Size  Location     Type
  1159 ;;  b               4   10[BANK0 ] unsigned char 
  1160 ;;  a               4   14[BANK0 ] unsigned char 
  1161 ;; Auto vars:     Size  Location     Type
  1162 ;;  grs             1   29[BANK0 ] unsigned char 
  1163 ;;  bexp            1   28[BANK0 ] unsigned char 
  1164 ;;  aexp            1   27[BANK0 ] unsigned char 
  1165 ;;  signs           1   26[BANK0 ] unsigned char 
  1166 ;; Return value:  Size  Location     Type
  1167 ;;                  4   10[BANK0 ] unsigned char 
  1168 ;; Registers used:
  1169 ;;		wreg, status,2, status,0, btemp+1
  1170 ;; Tracked objects:
  1171 ;;		On entry : 0/0
  1172 ;;		On exit  : 0/0
  1173 ;;		Unchanged: 0/0
  1174 ;; Data sizes:     COMMON   BANK0   BANK1   BANK3   BANK2
  1175 ;;      Params:         0       8       0       0       0
  1176 ;;      Locals:         0       4       0       0       0
  1177 ;;      Temps:          0       8       0       0       0
  1178 ;;      Totals:         0      20       0       0       0
  1179 ;;Total ram usage:       20 bytes
  1180 ;; Hardware stack levels used: 1
  1181 ;; Hardware stack levels required when called: 1
  1182 ;; This function calls:
  1183 ;;		Nothing
  1184 ;; This function is called by:
  1185 ;;		_toggle_adc
  1186 ;; This function uses a non-reentrant model
  1187 ;;
  1188                           
  1189                           
  1190                           ;psect for function ___fladd
  1191  0026                     ___fladd:
  1192  0026                     l1276:	
  1193                           ;incstack = 0
  1194                           ; Regs used in ___fladd: [wreg+status,2+status,0+btemp+1]
  1195                           
  1196  0026  1283               	bcf	3,5	;RP0=0, select bank0
  1197  0027  1303               	bcf	3,6	;RP1=0, select bank0
  1198  0028  082D               	movf	___fladd@b+3,w
  1199  0029  3980               	andlw	128
  1200  002A  00B2               	movwf	??___fladd
  1201  002B  0832               	movf	??___fladd,w
  1202  002C  00BA               	movwf	___fladd@signs
  1203  002D                     l1278:
  1204  002D  082D               	movf	___fladd@b+3,w
  1205  002E  00B2               	movwf	??___fladd
  1206  002F  0732               	addwf	??___fladd,w
  1207  0030  00B3               	movwf	??___fladd+1
  1208  0031  0833               	movf	??___fladd+1,w
  1209  0032  00BC               	movwf	___fladd@bexp
  1210  0033                     l1280:
  1211  0033  1FAC               	btfss	___fladd@b+2,7
  1212  0034  2836               	goto	u1081
  1213  0035  2837               	goto	u1080
  1214  0036                     u1081:
  1215  0036  2838               	goto	l1284
  1216  0037                     u1080:
  1217  0037                     l1282:
  1218  0037  143C               	bsf	___fladd@bexp,0
  1219  0038                     l1284:
  1220  0038  083C               	movf	___fladd@bexp,w
  1221  0039  1903               	btfsc	3,2
  1222  003A  283C               	goto	u1091
  1223  003B  283D               	goto	u1090
  1224  003C                     u1091:
  1225  003C  284D               	goto	l1294
  1226  003D                     u1090:
  1227  003D                     l1286:
  1228  003D  0A3C               	incf	___fladd@bexp,w
  1229  003E  1D03               	btfss	3,2
  1230  003F  2841               	goto	u1101
  1231  0040  2842               	goto	u1100
  1232  0041                     u1101:
  1233  0041  284A               	goto	l1290
  1234  0042                     u1100:
  1235  0042                     l1288:
  1236  0042  3000               	movlw	0
  1237  0043  00AD               	movwf	___fladd@b+3
  1238  0044  3000               	movlw	0
  1239  0045  00AC               	movwf	___fladd@b+2
  1240  0046  3000               	movlw	0
  1241  0047  00AB               	movwf	___fladd@b+1
  1242  0048  3000               	movlw	0
  1243  0049  00AA               	movwf	___fladd@b
  1244  004A                     l1290:
  1245  004A  17AC               	bsf	___fladd@b+2,7
  1246  004B                     l1292:
  1247  004B  01AD               	clrf	___fladd@b+3
  1248  004C  2855               	goto	l1296
  1249  004D                     l1294:
  1250  004D  3000               	movlw	0
  1251  004E  00AD               	movwf	___fladd@b+3
  1252  004F  3000               	movlw	0
  1253  0050  00AC               	movwf	___fladd@b+2
  1254  0051  3000               	movlw	0
  1255  0052  00AB               	movwf	___fladd@b+1
  1256  0053  3000               	movlw	0
  1257  0054  00AA               	movwf	___fladd@b
  1258  0055                     l1296:
  1259  0055  0831               	movf	___fladd@a+3,w
  1260  0056  3980               	andlw	128
  1261  0057  00B2               	movwf	??___fladd
  1262  0058  0832               	movf	??___fladd,w
  1263  0059  00BB               	movwf	___fladd@aexp
  1264  005A                     l1298:
  1265  005A  083B               	movf	___fladd@aexp,w
  1266  005B  063A               	xorwf	___fladd@signs,w
  1267  005C  1903               	skipnz
  1268  005D  285F               	goto	u1111
  1269  005E  2860               	goto	u1110
  1270  005F                     u1111:
  1271  005F  2861               	goto	l1302
  1272  0060                     u1110:
  1273  0060                     l1300:
  1274  0060  173A               	bsf	___fladd@signs,6
  1275  0061                     l1302:
  1276  0061  0831               	movf	___fladd@a+3,w
  1277  0062  00B2               	movwf	??___fladd
  1278  0063  0732               	addwf	??___fladd,w
  1279  0064  00B3               	movwf	??___fladd+1
  1280  0065  0833               	movf	??___fladd+1,w
  1281  0066  00BB               	movwf	___fladd@aexp
  1282  0067                     l1304:
  1283  0067  1FB0               	btfss	___fladd@a+2,7
  1284  0068  286A               	goto	u1121
  1285  0069  286B               	goto	u1120
  1286  006A                     u1121:
  1287  006A  286C               	goto	l1308
  1288  006B                     u1120:
  1289  006B                     l1306:
  1290  006B  143B               	bsf	___fladd@aexp,0
  1291  006C                     l1308:
  1292  006C  083B               	movf	___fladd@aexp,w
  1293  006D  1903               	btfsc	3,2
  1294  006E  2870               	goto	u1131
  1295  006F  2871               	goto	u1130
  1296  0070                     u1131:
  1297  0070  2881               	goto	l1318
  1298  0071                     u1130:
  1299  0071                     l1310:
  1300  0071  0A3B               	incf	___fladd@aexp,w
  1301  0072  1D03               	btfss	3,2
  1302  0073  2875               	goto	u1141
  1303  0074  2876               	goto	u1140
  1304  0075                     u1141:
  1305  0075  287E               	goto	l1314
  1306  0076                     u1140:
  1307  0076                     l1312:
  1308  0076  3000               	movlw	0
  1309  0077  00B1               	movwf	___fladd@a+3
  1310  0078  3000               	movlw	0
  1311  0079  00B0               	movwf	___fladd@a+2
  1312  007A  3000               	movlw	0
  1313  007B  00AF               	movwf	___fladd@a+1
  1314  007C  3000               	movlw	0
  1315  007D  00AE               	movwf	___fladd@a
  1316  007E                     l1314:
  1317  007E  17B0               	bsf	___fladd@a+2,7
  1318  007F                     l1316:
  1319  007F  01B1               	clrf	___fladd@a+3
  1320  0080  2889               	goto	l493
  1321  0081                     l1318:
  1322  0081  3000               	movlw	0
  1323  0082  00B1               	movwf	___fladd@a+3
  1324  0083  3000               	movlw	0
  1325  0084  00B0               	movwf	___fladd@a+2
  1326  0085  3000               	movlw	0
  1327  0086  00AF               	movwf	___fladd@a+1
  1328  0087  3000               	movlw	0
  1329  0088  00AE               	movwf	___fladd@a
  1330  0089                     l493:
  1331  0089  083C               	movf	___fladd@bexp,w
  1332  008A  023B               	subwf	___fladd@aexp,w
  1333  008B  1803               	skipnc
  1334  008C  288E               	goto	u1151
  1335  008D  288F               	goto	u1150
  1336  008E                     u1151:
  1337  008E  28D3               	goto	l1354
  1338  008F                     u1150:
  1339  008F                     l1320:
  1340  008F  1F3A               	btfss	___fladd@signs,6
  1341  0090  2892               	goto	u1161
  1342  0091  2893               	goto	u1160
  1343  0092                     u1161:
  1344  0092  2897               	goto	l1324
  1345  0093                     u1160:
  1346  0093                     l1322:
  1347  0093  3080               	movlw	128
  1348  0094  00B2               	movwf	??___fladd
  1349  0095  0832               	movf	??___fladd,w
  1350  0096  06BA               	xorwf	___fladd@signs,f
  1351  0097                     l1324:
  1352  0097  083C               	movf	___fladd@bexp,w
  1353  0098  00B2               	movwf	??___fladd
  1354  0099  0832               	movf	??___fladd,w
  1355  009A  00BD               	movwf	___fladd@grs
  1356  009B                     l1326:
  1357  009B  083B               	movf	___fladd@aexp,w
  1358  009C  00B2               	movwf	??___fladd
  1359  009D  0832               	movf	??___fladd,w
  1360  009E  00BC               	movwf	___fladd@bexp
  1361  009F                     l1328:
  1362  009F  083D               	movf	___fladd@grs,w
  1363  00A0  00B2               	movwf	??___fladd
  1364  00A1  0832               	movf	??___fladd,w
  1365  00A2  00BB               	movwf	___fladd@aexp
  1366  00A3                     l1330:
  1367  00A3  082A               	movf	___fladd@b,w
  1368  00A4  00B2               	movwf	??___fladd
  1369  00A5  0832               	movf	??___fladd,w
  1370  00A6  00BD               	movwf	___fladd@grs
  1371  00A7                     l1332:
  1372  00A7  082E               	movf	___fladd@a,w
  1373  00A8  00B2               	movwf	??___fladd
  1374  00A9  0832               	movf	??___fladd,w
  1375  00AA  00AA               	movwf	___fladd@b
  1376  00AB                     l1334:
  1377  00AB  083D               	movf	___fladd@grs,w
  1378  00AC  00B2               	movwf	??___fladd
  1379  00AD  0832               	movf	??___fladd,w
  1380  00AE  00AE               	movwf	___fladd@a
  1381  00AF                     l1336:
  1382  00AF  082B               	movf	___fladd@b+1,w
  1383  00B0  00B2               	movwf	??___fladd
  1384  00B1  0832               	movf	??___fladd,w
  1385  00B2  00BD               	movwf	___fladd@grs
  1386  00B3                     l1338:
  1387  00B3  082F               	movf	___fladd@a+1,w
  1388  00B4  00B2               	movwf	??___fladd
  1389  00B5  0832               	movf	??___fladd,w
  1390  00B6  00AB               	movwf	___fladd@b+1
  1391  00B7                     l1340:
  1392  00B7  083D               	movf	___fladd@grs,w
  1393  00B8  00B2               	movwf	??___fladd
  1394  00B9  0832               	movf	??___fladd,w
  1395  00BA  00AF               	movwf	___fladd@a+1
  1396  00BB                     l1342:
  1397  00BB  082C               	movf	___fladd@b+2,w
  1398  00BC  00B2               	movwf	??___fladd
  1399  00BD  0832               	movf	??___fladd,w
  1400  00BE  00BD               	movwf	___fladd@grs
  1401  00BF                     l1344:
  1402  00BF  0830               	movf	___fladd@a+2,w
  1403  00C0  00B2               	movwf	??___fladd
  1404  00C1  0832               	movf	??___fladd,w
  1405  00C2  00AC               	movwf	___fladd@b+2
  1406  00C3                     l1346:
  1407  00C3  083D               	movf	___fladd@grs,w
  1408  00C4  00B2               	movwf	??___fladd
  1409  00C5  0832               	movf	??___fladd,w
  1410  00C6  00B0               	movwf	___fladd@a+2
  1411  00C7                     l1348:
  1412  00C7  082D               	movf	___fladd@b+3,w
  1413  00C8  00B2               	movwf	??___fladd
  1414  00C9  0832               	movf	??___fladd,w
  1415  00CA  00BD               	movwf	___fladd@grs
  1416  00CB                     l1350:
  1417  00CB  0831               	movf	___fladd@a+3,w
  1418  00CC  00B2               	movwf	??___fladd
  1419  00CD  0832               	movf	??___fladd,w
  1420  00CE  00AD               	movwf	___fladd@b+3
  1421  00CF                     l1352:
  1422  00CF  083D               	movf	___fladd@grs,w
  1423  00D0  00B2               	movwf	??___fladd
  1424  00D1  0832               	movf	??___fladd,w
  1425  00D2  00B1               	movwf	___fladd@a+3
  1426  00D3                     l1354:
  1427  00D3  01BD               	clrf	___fladd@grs
  1428  00D4                     l1356:
  1429  00D4  083B               	movf	___fladd@aexp,w
  1430  00D5  00B2               	movwf	??___fladd
  1431  00D6  01B3               	clrf	??___fladd+1
  1432  00D7  0833               	movf	??___fladd+1,w
  1433  00D8  00B5               	movwf	??___fladd+3
  1434  00D9  083C               	movf	___fladd@bexp,w
  1435  00DA  0232               	subwf	??___fladd,w
  1436  00DB  00B4               	movwf	??___fladd+2
  1437  00DC  1C03               	skipc
  1438  00DD  03B5               	decf	??___fladd+3,f
  1439  00DE  0835               	movf	??___fladd+3,w
  1440  00DF  3A80               	xorlw	128
  1441  00E0  00FF               	movwf	btemp+1
  1442  00E1  3080               	movlw	128
  1443  00E2  027F               	subwf	btemp+1,w
  1444  00E3  1D03               	skipz
  1445  00E4  28E7               	goto	u1175
  1446  00E5  301A               	movlw	26
  1447  00E6  0234               	subwf	??___fladd+2,w
  1448  00E7                     u1175:
  1449  00E7  1C03               	skipc
  1450  00E8  28EA               	goto	u1171
  1451  00E9  28EB               	goto	u1170
  1452  00EA                     u1171:
  1453  00EA  2928               	goto	l1372
  1454  00EB                     u1170:
  1455  00EB                     l1358:
  1456  00EB  1283               	bcf	3,5	;RP0=0, select bank0
  1457  00EC  1303               	bcf	3,6	;RP1=0, select bank0
  1458  00ED  082D               	movf	___fladd@b+3,w
  1459  00EE  042C               	iorwf	___fladd@b+2,w
  1460  00EF  042B               	iorwf	___fladd@b+1,w
  1461  00F0  042A               	iorwf	___fladd@b,w
  1462  00F1  1D03               	skipz
  1463  00F2  28F4               	goto	u1181
  1464  00F3  28F6               	goto	u1180
  1465  00F4                     u1181:
  1466  00F4  3001               	movlw	1
  1467  00F5  28F7               	goto	u1190
  1468  00F6                     u1180:
  1469  00F6  3000               	movlw	0
  1470  00F7                     u1190:
  1471  00F7  00B2               	movwf	??___fladd
  1472  00F8  0832               	movf	??___fladd,w
  1473  00F9  00BD               	movwf	___fladd@grs
  1474  00FA  3000               	movlw	0
  1475  00FB  00AD               	movwf	___fladd@b+3
  1476  00FC  3000               	movlw	0
  1477  00FD  00AC               	movwf	___fladd@b+2
  1478  00FE  3000               	movlw	0
  1479  00FF  00AB               	movwf	___fladd@b+1
  1480  0100  3000               	movlw	0
  1481  0101  00AA               	movwf	___fladd@b
  1482  0102  083B               	movf	___fladd@aexp,w
  1483  0103  00B2               	movwf	??___fladd
  1484  0104  0832               	movf	??___fladd,w
  1485  0105  00BC               	movwf	___fladd@bexp
  1486  0106  2930               	goto	l497
  1487  0107                     l499:
  1488  0107  1C3D               	btfss	___fladd@grs,0
  1489  0108  290A               	goto	u1201
  1490  0109  290B               	goto	u1200
  1491  010A                     u1201:
  1492  010A  2914               	goto	l1362
  1493  010B                     u1200:
  1494  010B                     l1360:
  1495  010B  083D               	movf	___fladd@grs,w
  1496  010C  00B2               	movwf	??___fladd
  1497  010D  1003               	clrc
  1498  010E  0C32               	rrf	??___fladd,w
  1499  010F  3801               	iorlw	1
  1500  0110  00B3               	movwf	??___fladd+1
  1501  0111  0833               	movf	??___fladd+1,w
  1502  0112  00BD               	movwf	___fladd@grs
  1503  0113  2916               	goto	l1364
  1504  0114                     l1362:
  1505  0114  1003               	clrc
  1506  0115  0CBD               	rrf	___fladd@grs,f
  1507  0116                     l1364:
  1508  0116  1C2A               	btfss	___fladd@b,0
  1509  0117  2919               	goto	u1211
  1510  0118  291A               	goto	u1210
  1511  0119                     u1211:
  1512  0119  291B               	goto	l1368
  1513  011A                     u1210:
  1514  011A                     l1366:
  1515  011A  17BD               	bsf	___fladd@grs,7
  1516  011B                     l1368:
  1517  011B  3001               	movlw	1
  1518  011C  00B2               	movwf	??___fladd
  1519  011D                     u1225:
  1520  011D  0D2D               	rlf	___fladd@b+3,w
  1521  011E  0CAD               	rrf	___fladd@b+3,f
  1522  011F  0CAC               	rrf	___fladd@b+2,f
  1523  0120  0CAB               	rrf	___fladd@b+1,f
  1524  0121  0CAA               	rrf	___fladd@b,f
  1525  0122  0BB2               	decfsz	??___fladd& (0+127),f
  1526  0123  291D               	goto	u1225
  1527  0124                     l1370:
  1528  0124  3001               	movlw	1
  1529  0125  00B2               	movwf	??___fladd
  1530  0126  0832               	movf	??___fladd,w
  1531  0127  07BC               	addwf	___fladd@bexp,f
  1532  0128                     l1372:
  1533  0128  1283               	bcf	3,5	;RP0=0, select bank0
  1534  0129  1303               	bcf	3,6	;RP1=0, select bank0
  1535  012A  083B               	movf	___fladd@aexp,w
  1536  012B  023C               	subwf	___fladd@bexp,w
  1537  012C  1C03               	skipc
  1538  012D  292F               	goto	u1231
  1539  012E  2930               	goto	u1230
  1540  012F                     u1231:
  1541  012F  2907               	goto	l499
  1542  0130                     u1230:
  1543  0130                     l497:
  1544  0130  1B3A               	btfsc	___fladd@signs,6
  1545  0131  2933               	goto	u1241
  1546  0132  2934               	goto	u1240
  1547  0133                     u1241:
  1548  0133  297F               	goto	l1398
  1549  0134                     u1240:
  1550  0134                     l1374:
  1551  0134  083C               	movf	___fladd@bexp,w
  1552  0135  1D03               	btfss	3,2
  1553  0136  2938               	goto	u1251
  1554  0137  2939               	goto	u1250
  1555  0138                     u1251:
  1556  0138  2942               	goto	l1380
  1557  0139                     u1250:
  1558  0139                     l1376:
  1559  0139  3000               	movlw	0
  1560  013A  00AD               	movwf	?___fladd+3
  1561  013B  3000               	movlw	0
  1562  013C  00AC               	movwf	?___fladd+2
  1563  013D  3000               	movlw	0
  1564  013E  00AB               	movwf	?___fladd+1
  1565  013F  3000               	movlw	0
  1566  0140  00AA               	movwf	?___fladd
  1567  0141  2AAD               	goto	l506
  1568  0142                     l1380:
  1569  0142  082E               	movf	___fladd@a,w
  1570  0143  07AA               	addwf	___fladd@b,f
  1571  0144  082F               	movf	___fladd@a+1,w
  1572  0145  1103               	clrz
  1573  0146  1803               	skipnc
  1574  0147  3E01               	addlw	1
  1575  0148  1903               	skipnz
  1576  0149  294B               	goto	u1261
  1577  014A  07AB               	addwf	___fladd@b+1,f
  1578  014B                     u1261:
  1579  014B  0830               	movf	___fladd@a+2,w
  1580  014C  1103               	clrz
  1581  014D  1803               	skipnc
  1582  014E  3E01               	addlw	1
  1583  014F  1903               	skipnz
  1584  0150  2952               	goto	u1262
  1585  0151  07AC               	addwf	___fladd@b+2,f
  1586  0152                     u1262:
  1587  0152  0831               	movf	___fladd@a+3,w
  1588  0153  1103               	clrz
  1589  0154  1803               	skipnc
  1590  0155  3E01               	addlw	1
  1591  0156  1903               	skipnz
  1592  0157  2959               	goto	u1263
  1593  0158  07AD               	addwf	___fladd@b+3,f
  1594  0159                     u1263:
  1595  0159                     l1382:
  1596  0159  1C2D               	btfss	___fladd@b+3,0
  1597  015A  295C               	goto	u1271
  1598  015B  295D               	goto	u1270
  1599  015C                     u1271:
  1600  015C  2A33               	goto	l1432
  1601  015D                     u1270:
  1602  015D                     l1384:
  1603  015D  1C3D               	btfss	___fladd@grs,0
  1604  015E  2960               	goto	u1281
  1605  015F  2961               	goto	u1280
  1606  0160                     u1281:
  1607  0160  296A               	goto	l1388
  1608  0161                     u1280:
  1609  0161                     l1386:
  1610  0161  083D               	movf	___fladd@grs,w
  1611  0162  00B2               	movwf	??___fladd
  1612  0163  1003               	clrc
  1613  0164  0C32               	rrf	??___fladd,w
  1614  0165  3801               	iorlw	1
  1615  0166  00B3               	movwf	??___fladd+1
  1616  0167  0833               	movf	??___fladd+1,w
  1617  0168  00BD               	movwf	___fladd@grs
  1618  0169  296C               	goto	l1390
  1619  016A                     l1388:
  1620  016A  1003               	clrc
  1621  016B  0CBD               	rrf	___fladd@grs,f
  1622  016C                     l1390:
  1623  016C  1C2A               	btfss	___fladd@b,0
  1624  016D  296F               	goto	u1291
  1625  016E  2970               	goto	u1290
  1626  016F                     u1291:
  1627  016F  2971               	goto	l1394
  1628  0170                     u1290:
  1629  0170                     l1392:
  1630  0170  17BD               	bsf	___fladd@grs,7
  1631  0171                     l1394:
  1632  0171  3001               	movlw	1
  1633  0172  00B2               	movwf	??___fladd
  1634  0173                     u1305:
  1635  0173  0D2D               	rlf	___fladd@b+3,w
  1636  0174  0CAD               	rrf	___fladd@b+3,f
  1637  0175  0CAC               	rrf	___fladd@b+2,f
  1638  0176  0CAB               	rrf	___fladd@b+1,f
  1639  0177  0CAA               	rrf	___fladd@b,f
  1640  0178  0BB2               	decfsz	??___fladd& (0+127),f
  1641  0179  2973               	goto	u1305
  1642  017A                     l1396:
  1643  017A  3001               	movlw	1
  1644  017B  00B2               	movwf	??___fladd
  1645  017C  0832               	movf	??___fladd,w
  1646  017D  07BC               	addwf	___fladd@bexp,f
  1647  017E  2A33               	goto	l1432
  1648  017F                     l1398:
  1649  017F  082D               	movf	___fladd@b+3,w
  1650  0180  3A80               	xorlw	128
  1651  0181  00FF               	movwf	btemp+1
  1652  0182  0831               	movf	___fladd@a+3,w
  1653  0183  3A80               	xorlw	128
  1654  0184  027F               	subwf	btemp+1,w
  1655  0185  1D03               	skipz
  1656  0186  2991               	goto	u1313
  1657  0187  0830               	movf	___fladd@a+2,w
  1658  0188  022C               	subwf	___fladd@b+2,w
  1659  0189  1D03               	skipz
  1660  018A  2991               	goto	u1313
  1661  018B  082F               	movf	___fladd@a+1,w
  1662  018C  022B               	subwf	___fladd@b+1,w
  1663  018D  1D03               	skipz
  1664  018E  2991               	goto	u1313
  1665  018F  082E               	movf	___fladd@a,w
  1666  0190  022A               	subwf	___fladd@b,w
  1667  0191                     u1313:
  1668  0191  1803               	skipnc
  1669  0192  2994               	goto	u1311
  1670  0193  2995               	goto	u1310
  1671  0194                     u1311:
  1672  0194  29ED               	goto	l1408
  1673  0195                     u1310:
  1674  0195                     l1400:
  1675  0195  30FF               	movlw	255
  1676  0196  00B2               	movwf	??___fladd
  1677  0197  30FF               	movlw	255
  1678  0198  00B3               	movwf	??___fladd+1
  1679  0199  30FF               	movlw	255
  1680  019A  00B4               	movwf	??___fladd+2
  1681  019B  30FF               	movlw	255
  1682  019C  00B5               	movwf	??___fladd+3
  1683  019D  082E               	movf	___fladd@a,w
  1684  019E  00B6               	movwf	??___fladd+4
  1685  019F  082F               	movf	___fladd@a+1,w
  1686  01A0  00B7               	movwf	??___fladd+5
  1687  01A1  0830               	movf	___fladd@a+2,w
  1688  01A2  00B8               	movwf	??___fladd+6
  1689  01A3  0831               	movf	___fladd@a+3,w
  1690  01A4  00B9               	movwf	??___fladd+7
  1691  01A5  082A               	movf	___fladd@b,w
  1692  01A6  02B6               	subwf	??___fladd+4,f
  1693  01A7  082B               	movf	___fladd@b+1,w
  1694  01A8  1C03               	skipc
  1695  01A9  0F2B               	incfsz	___fladd@b+1,w
  1696  01AA  29AC               	goto	u1321
  1697  01AB  29AD               	goto	u1322
  1698  01AC                     u1321:
  1699  01AC  02B7               	subwf	??___fladd+5,f
  1700  01AD                     u1322:
  1701  01AD  082C               	movf	___fladd@b+2,w
  1702  01AE  1C03               	skipc
  1703  01AF  0F2C               	incfsz	___fladd@b+2,w
  1704  01B0  29B2               	goto	u1323
  1705  01B1  29B3               	goto	u1324
  1706  01B2                     u1323:
  1707  01B2  02B8               	subwf	??___fladd+6,f
  1708  01B3                     u1324:
  1709  01B3  082D               	movf	___fladd@b+3,w
  1710  01B4  1C03               	skipc
  1711  01B5  0F2D               	incfsz	___fladd@b+3,w
  1712  01B6  29B8               	goto	u1325
  1713  01B7  29B9               	goto	u1326
  1714  01B8                     u1325:
  1715  01B8  02B9               	subwf	??___fladd+7,f
  1716  01B9                     u1326:
  1717  01B9  0836               	movf	??___fladd+4,w
  1718  01BA  07B2               	addwf	??___fladd,f
  1719  01BB  0837               	movf	??___fladd+5,w
  1720  01BC  1803               	skipnc
  1721  01BD  0F37               	incfsz	??___fladd+5,w
  1722  01BE  29C0               	goto	u1330
  1723  01BF  29C1               	goto	u1331
  1724  01C0                     u1330:
  1725  01C0  07B3               	addwf	??___fladd+1,f
  1726  01C1                     u1331:
  1727  01C1  0838               	movf	??___fladd+6,w
  1728  01C2  1803               	skipnc
  1729  01C3  0F38               	incfsz	??___fladd+6,w
  1730  01C4  29C6               	goto	u1332
  1731  01C5  29C7               	goto	u1333
  1732  01C6                     u1332:
  1733  01C6  07B4               	addwf	??___fladd+2,f
  1734  01C7                     u1333:
  1735  01C7  0839               	movf	??___fladd+7,w
  1736  01C8  1803               	skipnc
  1737  01C9  0A39               	incf	??___fladd+7,w
  1738  01CA  07B5               	addwf	??___fladd+3,f
  1739  01CB  0835               	movf	??___fladd+3,w
  1740  01CC  00AD               	movwf	___fladd@b+3
  1741  01CD  0834               	movf	??___fladd+2,w
  1742  01CE  00AC               	movwf	___fladd@b+2
  1743  01CF  0833               	movf	??___fladd+1,w
  1744  01D0  00AB               	movwf	___fladd@b+1
  1745  01D1  0832               	movf	??___fladd,w
  1746  01D2  00AA               	movwf	___fladd@b
  1747  01D3                     l1402:
  1748  01D3  3080               	movlw	128
  1749  01D4  00B2               	movwf	??___fladd
  1750  01D5  0832               	movf	??___fladd,w
  1751  01D6  06BA               	xorwf	___fladd@signs,f
  1752  01D7  09BD               	comf	___fladd@grs,f
  1753  01D8  0ABD               	incf	___fladd@grs,f
  1754  01D9                     l1404:
  1755  01D9  083D               	movf	___fladd@grs,w
  1756  01DA  1D03               	btfss	3,2
  1757  01DB  29DD               	goto	u1341
  1758  01DC  29DE               	goto	u1340
  1759  01DD                     u1341:
  1760  01DD  29FB               	goto	l514
  1761  01DE                     u1340:
  1762  01DE                     l1406:
  1763  01DE  3001               	movlw	1
  1764  01DF  07AA               	addwf	___fladd@b,f
  1765  01E0  3000               	movlw	0
  1766  01E1  1803               	skipnc
  1767  01E2  3001               	movlw	1
  1768  01E3  07AB               	addwf	___fladd@b+1,f
  1769  01E4  3000               	movlw	0
  1770  01E5  1803               	skipnc
  1771  01E6  3001               	movlw	1
  1772  01E7  07AC               	addwf	___fladd@b+2,f
  1773  01E8  3000               	movlw	0
  1774  01E9  1803               	skipnc
  1775  01EA  3001               	movlw	1
  1776  01EB  07AD               	addwf	___fladd@b+3,f
  1777  01EC  29FB               	goto	l514
  1778  01ED                     l1408:
  1779  01ED  082E               	movf	___fladd@a,w
  1780  01EE  02AA               	subwf	___fladd@b,f
  1781  01EF  082F               	movf	___fladd@a+1,w
  1782  01F0  1C03               	skipc
  1783  01F1  0F2F               	incfsz	___fladd@a+1,w
  1784  01F2  02AB               	subwf	___fladd@b+1,f
  1785  01F3  0830               	movf	___fladd@a+2,w
  1786  01F4  1C03               	skipc
  1787  01F5  0F30               	incfsz	___fladd@a+2,w
  1788  01F6  02AC               	subwf	___fladd@b+2,f
  1789  01F7  0831               	movf	___fladd@a+3,w
  1790  01F8  1C03               	skipc
  1791  01F9  0F31               	incfsz	___fladd@a+3,w
  1792  01FA  02AD               	subwf	___fladd@b+3,f
  1793  01FB                     l514:
  1794  01FB  082D               	movf	___fladd@b+3,w
  1795  01FC  042C               	iorwf	___fladd@b+2,w
  1796  01FD  042B               	iorwf	___fladd@b+1,w
  1797  01FE  042A               	iorwf	___fladd@b,w
  1798  01FF  1D03               	skipz
  1799  0200  2A02               	goto	u1351
  1800  0201  2A03               	goto	u1350
  1801  0202                     u1351:
  1802  0202  2A2F               	goto	l1430
  1803  0203                     u1350:
  1804  0203                     l1410:
  1805  0203  083D               	movf	___fladd@grs,w
  1806  0204  1D03               	btfss	3,2
  1807  0205  2A07               	goto	u1361
  1808  0206  2A08               	goto	u1360
  1809  0207                     u1361:
  1810  0207  2A2F               	goto	l1430
  1811  0208                     u1360:
  1812  0208                     l1412:
  1813  0208  3000               	movlw	0
  1814  0209  00AD               	movwf	?___fladd+3
  1815  020A  3000               	movlw	0
  1816  020B  00AC               	movwf	?___fladd+2
  1817  020C  3000               	movlw	0
  1818  020D  00AB               	movwf	?___fladd+1
  1819  020E  3000               	movlw	0
  1820  020F  00AA               	movwf	?___fladd
  1821  0210  2AAD               	goto	l506
  1822  0211                     l1416:
  1823  0211  3001               	movlw	1
  1824  0212  00B2               	movwf	??___fladd
  1825  0213                     u1375:
  1826  0213  1003               	clrc
  1827  0214  0DAA               	rlf	___fladd@b,f
  1828  0215  0DAB               	rlf	___fladd@b+1,f
  1829  0216  0DAC               	rlf	___fladd@b+2,f
  1830  0217  0DAD               	rlf	___fladd@b+3,f
  1831  0218  0BB2               	decfsz	??___fladd,f
  1832  0219  2A13               	goto	u1375
  1833  021A                     l1418:
  1834  021A  1FBD               	btfss	___fladd@grs,7
  1835  021B  2A1D               	goto	u1381
  1836  021C  2A1E               	goto	u1380
  1837  021D                     u1381:
  1838  021D  2A1F               	goto	l518
  1839  021E                     u1380:
  1840  021E                     l1420:
  1841  021E  142A               	bsf	___fladd@b,0
  1842  021F                     l518:
  1843  021F  1C3D               	btfss	___fladd@grs,0
  1844  0220  2A22               	goto	u1391
  1845  0221  2A23               	goto	u1390
  1846  0222                     u1391:
  1847  0222  2A26               	goto	l1424
  1848  0223                     u1390:
  1849  0223                     l1422:
  1850  0223  1403               	setc
  1851  0224  0DBD               	rlf	___fladd@grs,f
  1852  0225  2A28               	goto	l1426
  1853  0226                     l1424:
  1854  0226  1003               	clrc
  1855  0227  0DBD               	rlf	___fladd@grs,f
  1856  0228                     l1426:
  1857  0228  083C               	movf	___fladd@bexp,w
  1858  0229  1903               	btfsc	3,2
  1859  022A  2A2C               	goto	u1401
  1860  022B  2A2D               	goto	u1400
  1861  022C                     u1401:
  1862  022C  2A2F               	goto	l1430
  1863  022D                     u1400:
  1864  022D                     l1428:
  1865  022D  3001               	movlw	1
  1866  022E  02BC               	subwf	___fladd@bexp,f
  1867  022F                     l1430:
  1868  022F  1FAC               	btfss	___fladd@b+2,7
  1869  0230  2A32               	goto	u1411
  1870  0231  2A33               	goto	u1410
  1871  0232                     u1411:
  1872  0232  2A11               	goto	l1416
  1873  0233                     u1410:
  1874  0233                     l1432:
  1875  0233  01BB               	clrf	___fladd@aexp
  1876  0234                     l1434:
  1877  0234  1FBD               	btfss	___fladd@grs,7
  1878  0235  2A37               	goto	u1421
  1879  0236  2A38               	goto	u1420
  1880  0237                     u1421:
  1881  0237  2A46               	goto	l1442
  1882  0238                     u1420:
  1883  0238                     l1436:
  1884  0238  083D               	movf	___fladd@grs,w
  1885  0239  397F               	andlw	127
  1886  023A  1903               	btfsc	3,2
  1887  023B  2A3D               	goto	u1431
  1888  023C  2A3E               	goto	u1430
  1889  023D                     u1431:
  1890  023D  2A41               	goto	l524
  1891  023E                     u1430:
  1892  023E                     l1438:
  1893  023E  01BB               	clrf	___fladd@aexp
  1894  023F  0ABB               	incf	___fladd@aexp,f
  1895  0240  2A46               	goto	l1442
  1896  0241                     l524:
  1897  0241  1C2A               	btfss	___fladd@b,0
  1898  0242  2A44               	goto	u1441
  1899  0243  2A45               	goto	u1440
  1900  0244                     u1441:
  1901  0244  2A46               	goto	l1442
  1902  0245                     u1440:
  1903  0245  2A3E               	goto	l1438
  1904  0246                     l1442:
  1905  0246  083B               	movf	___fladd@aexp,w
  1906  0247  1903               	btfsc	3,2
  1907  0248  2A4A               	goto	u1451
  1908  0249  2A4B               	goto	u1450
  1909  024A                     u1451:
  1910  024A  2A7F               	goto	l527
  1911  024B                     u1450:
  1912  024B                     l1444:
  1913  024B  3001               	movlw	1
  1914  024C  07AA               	addwf	___fladd@b,f
  1915  024D  3000               	movlw	0
  1916  024E  1803               	skipnc
  1917  024F  3001               	movlw	1
  1918  0250  07AB               	addwf	___fladd@b+1,f
  1919  0251  3000               	movlw	0
  1920  0252  1803               	skipnc
  1921  0253  3001               	movlw	1
  1922  0254  07AC               	addwf	___fladd@b+2,f
  1923  0255  3000               	movlw	0
  1924  0256  1803               	skipnc
  1925  0257  3001               	movlw	1
  1926  0258  07AD               	addwf	___fladd@b+3,f
  1927  0259                     l1446:
  1928  0259  1C2D               	btfss	___fladd@b+3,0
  1929  025A  2A5C               	goto	u1461
  1930  025B  2A5D               	goto	u1460
  1931  025C                     u1461:
  1932  025C  2A7F               	goto	l527
  1933  025D                     u1460:
  1934  025D                     l1448:
  1935  025D  082A               	movf	___fladd@b,w
  1936  025E  00B2               	movwf	??___fladd
  1937  025F  082B               	movf	___fladd@b+1,w
  1938  0260  00B3               	movwf	??___fladd+1
  1939  0261  082C               	movf	___fladd@b+2,w
  1940  0262  00B4               	movwf	??___fladd+2
  1941  0263  082D               	movf	___fladd@b+3,w
  1942  0264  00B5               	movwf	??___fladd+3
  1943  0265  3001               	movlw	1
  1944  0266  00B6               	movwf	??___fladd+4
  1945  0267                     u1475:
  1946  0267  0D35               	rlf	??___fladd+3,w
  1947  0268  0CB5               	rrf	??___fladd+3,f
  1948  0269  0CB4               	rrf	??___fladd+2,f
  1949  026A  0CB3               	rrf	??___fladd+1,f
  1950  026B  0CB2               	rrf	??___fladd,f
  1951  026C                     u1470:
  1952  026C  0BB6               	decfsz	??___fladd+4,f
  1953  026D  2A67               	goto	u1475
  1954  026E  0835               	movf	??___fladd+3,w
  1955  026F  00AD               	movwf	___fladd@b+3
  1956  0270  0834               	movf	??___fladd+2,w
  1957  0271  00AC               	movwf	___fladd@b+2
  1958  0272  0833               	movf	??___fladd+1,w
  1959  0273  00AB               	movwf	___fladd@b+1
  1960  0274  0832               	movf	??___fladd,w
  1961  0275  00AA               	movwf	___fladd@b
  1962  0276  0A3C               	incf	___fladd@bexp,w
  1963  0277  1903               	btfsc	3,2
  1964  0278  2A7A               	goto	u1481
  1965  0279  2A7B               	goto	u1480
  1966  027A                     u1481:
  1967  027A  2A7F               	goto	l527
  1968  027B                     u1480:
  1969  027B                     l1450:
  1970  027B  3001               	movlw	1
  1971  027C  00B2               	movwf	??___fladd
  1972  027D  0832               	movf	??___fladd,w
  1973  027E  07BC               	addwf	___fladd@bexp,f
  1974  027F                     l527:
  1975  027F  0A3C               	incf	___fladd@bexp,w
  1976  0280  1903               	btfsc	3,2
  1977  0281  2A83               	goto	u1491
  1978  0282  2A84               	goto	u1490
  1979  0283                     u1491:
  1980  0283  2A89               	goto	l1454
  1981  0284                     u1490:
  1982  0284                     l1452:
  1983  0284  083C               	movf	___fladd@bexp,w
  1984  0285  1D03               	btfss	3,2
  1985  0286  2A88               	goto	u1501
  1986  0287  2A89               	goto	u1500
  1987  0288                     u1501:
  1988  0288  2A97               	goto	l1460
  1989  0289                     u1500:
  1990  0289                     l1454:
  1991  0289  3000               	movlw	0
  1992  028A  00AD               	movwf	___fladd@b+3
  1993  028B  3000               	movlw	0
  1994  028C  00AC               	movwf	___fladd@b+2
  1995  028D  3000               	movlw	0
  1996  028E  00AB               	movwf	___fladd@b+1
  1997  028F  3000               	movlw	0
  1998  0290  00AA               	movwf	___fladd@b
  1999  0291                     l1456:
  2000  0291  083C               	movf	___fladd@bexp,w
  2001  0292  1D03               	btfss	3,2
  2002  0293  2A95               	goto	u1511
  2003  0294  2A96               	goto	u1510
  2004  0295                     u1511:
  2005  0295  2A97               	goto	l1460
  2006  0296                     u1510:
  2007  0296                     l1458:
  2008  0296  01BA               	clrf	___fladd@signs
  2009  0297                     l1460:
  2010  0297  1C3C               	btfss	___fladd@bexp,0
  2011  0298  2A9A               	goto	u1521
  2012  0299  2A9B               	goto	u1520
  2013  029A                     u1521:
  2014  029A  2A9D               	goto	l1464
  2015  029B                     u1520:
  2016  029B                     l1462:
  2017  029B  17AC               	bsf	___fladd@b+2,7
  2018  029C  2AA1               	goto	l535
  2019  029D                     l1464:
  2020  029D  307F               	movlw	127
  2021  029E  00B2               	movwf	??___fladd
  2022  029F  0832               	movf	??___fladd,w
  2023  02A0  05AC               	andwf	___fladd@b+2,f
  2024  02A1                     l535:
  2025  02A1  083C               	movf	___fladd@bexp,w
  2026  02A2  00B2               	movwf	??___fladd
  2027  02A3  1003               	clrc
  2028  02A4  0C32               	rrf	??___fladd,w
  2029  02A5  00B3               	movwf	??___fladd+1
  2030  02A6  0833               	movf	??___fladd+1,w
  2031  02A7  00AD               	movwf	___fladd@b+3
  2032  02A8                     l1466:
  2033  02A8  1FBA               	btfss	___fladd@signs,7
  2034  02A9  2AAB               	goto	u1531
  2035  02AA  2AAC               	goto	u1530
  2036  02AB                     u1531:
  2037  02AB  2AAD               	goto	l536
  2038  02AC                     u1530:
  2039  02AC                     l1468:
  2040  02AC  17AD               	bsf	___fladd@b+3,7
  2041  02AD                     l536:
  2042  02AD                     l506:
  2043  02AD  0008               	return
  2044  02AE                     __end_of___fladd:
  2045                           
  2046                           	psect	text4
  2047  06E2                     __ptext4:	
  2048 ;; *************** function _setup *****************
  2049 ;; Defined at:
  2050 ;;		line 102 in file "C:/Users/Andy Bonilla/Documents/GitHub/ED2/Proyecto1_ED2/PIC_sensores.X/main_sensores.c"
  2051 ;; Parameters:    Size  Location     Type
  2052 ;;		None
  2053 ;; Auto vars:     Size  Location     Type
  2054 ;;		None
  2055 ;; Return value:  Size  Location     Type
  2056 ;;                  1    wreg      void 
  2057 ;; Registers used:
  2058 ;;		wreg, fsr0l, fsr0h, status,2, status,0, pclath, cstack
  2059 ;; Tracked objects:
  2060 ;;		On entry : 0/0
  2061 ;;		On exit  : 0/0
  2062 ;;		Unchanged: 0/0
  2063 ;; Data sizes:     COMMON   BANK0   BANK1   BANK3   BANK2
  2064 ;;      Params:         0       0       0       0       0
  2065 ;;      Locals:         0       0       0       0       0
  2066 ;;      Temps:          0       0       0       0       0
  2067 ;;      Totals:         0       0       0       0       0
  2068 ;;Total ram usage:        0 bytes
  2069 ;; Hardware stack levels used: 1
  2070 ;; Hardware stack levels required when called: 2
  2071 ;; This function calls:
  2072 ;;		_ADC_config
  2073 ;;		_osc_config
  2074 ;; This function is called by:
  2075 ;;		_main
  2076 ;; This function uses a non-reentrant model
  2077 ;;
  2078                           
  2079                           
  2080                           ;psect for function _setup
  2081  06E2                     _setup:
  2082  06E2                     l1514:	
  2083                           ;incstack = 0
  2084                           ; Regs used in _setup: [wreg-fsr0h+status,2+status,0+pclath+cstack]
  2085                           
  2086                           
  2087                           ;C:/Users/Andy Bonilla/Documents/GitHub/ED2/Proyecto1_ED2/PIC_sensores.X/main_sensores.c
      +                          : 105:     ANSEL=0;
  2088  06E2  1683               	bsf	3,5	;RP0=1, select bank3
  2089  06E3  1703               	bsf	3,6	;RP1=1, select bank3
  2090  06E4  0188               	clrf	8	;volatile
  2091                           
  2092                           ;C:/Users/Andy Bonilla/Documents/GitHub/ED2/Proyecto1_ED2/PIC_sensores.X/main_sensores.c
      +                          : 106:     ANSELH=0;
  2093  06E5  0189               	clrf	9	;volatile
  2094  06E6                     l1516:
  2095                           
  2096                           ;C:/Users/Andy Bonilla/Documents/GitHub/ED2/Proyecto1_ED2/PIC_sensores.X/main_sensores.c
      +                          : 107:     ANSELbits.ANS0=1;
  2097  06E6  1408               	bsf	8,0	;volatile
  2098  06E7                     l1518:
  2099                           
  2100                           ;C:/Users/Andy Bonilla/Documents/GitHub/ED2/Proyecto1_ED2/PIC_sensores.X/main_sensores.c
      +                          : 109:     TRISAbits.TRISA0=1;
  2101  06E7  1683               	bsf	3,5	;RP0=1, select bank1
  2102  06E8  1303               	bcf	3,6	;RP1=0, select bank1
  2103  06E9  1405               	bsf	5,0	;volatile
  2104  06EA                     l1520:
  2105                           
  2106                           ;C:/Users/Andy Bonilla/Documents/GitHub/ED2/Proyecto1_ED2/PIC_sensores.X/main_sensores.c
      +                          : 110:     TRISBbits.TRISB1=1;
  2107  06EA  1486               	bsf	6,1	;volatile
  2108  06EB                     l1522:
  2109                           
  2110                           ;C:/Users/Andy Bonilla/Documents/GitHub/ED2/Proyecto1_ED2/PIC_sensores.X/main_sensores.c
      +                          : 111:     TRISBbits.TRISB2=1;
  2111  06EB  1506               	bsf	6,2	;volatile
  2112  06EC                     l1524:
  2113                           
  2114                           ;C:/Users/Andy Bonilla/Documents/GitHub/ED2/Proyecto1_ED2/PIC_sensores.X/main_sensores.c
      +                          : 112:     TRISBbits.TRISB3=1;
  2115  06EC  1586               	bsf	6,3	;volatile
  2116  06ED                     l1526:
  2117                           
  2118                           ;C:/Users/Andy Bonilla/Documents/GitHub/ED2/Proyecto1_ED2/PIC_sensores.X/main_sensores.c
      +                          : 113:     TRISEbits.TRISE0=0;
  2119  06ED  1009               	bcf	9,0	;volatile
  2120  06EE                     l1528:
  2121                           
  2122                           ;C:/Users/Andy Bonilla/Documents/GitHub/ED2/Proyecto1_ED2/PIC_sensores.X/main_sensores.c
      +                          : 114:     TRISEbits.TRISE1=0;
  2123  06EE  1089               	bcf	9,1	;volatile
  2124                           
  2125                           ;C:/Users/Andy Bonilla/Documents/GitHub/ED2/Proyecto1_ED2/PIC_sensores.X/main_sensores.c
      +                          : 115:     TRISC=0;
  2126  06EF  0187               	clrf	7	;volatile
  2127                           
  2128                           ;C:/Users/Andy Bonilla/Documents/GitHub/ED2/Proyecto1_ED2/PIC_sensores.X/main_sensores.c
      +                          : 116:     TRISD=0;
  2129  06F0  0188               	clrf	8	;volatile
  2130                           
  2131                           ;C:/Users/Andy Bonilla/Documents/GitHub/ED2/Proyecto1_ED2/PIC_sensores.X/main_sensores.c
      +                          : 118:     PORTB=0;
  2132  06F1  1283               	bcf	3,5	;RP0=0, select bank0
  2133  06F2  1303               	bcf	3,6	;RP1=0, select bank0
  2134  06F3  0186               	clrf	6	;volatile
  2135                           
  2136                           ;C:/Users/Andy Bonilla/Documents/GitHub/ED2/Proyecto1_ED2/PIC_sensores.X/main_sensores.c
      +                          : 119:     PORTD=0;
  2137  06F4  0188               	clrf	8	;volatile
  2138                           
  2139                           ;C:/Users/Andy Bonilla/Documents/GitHub/ED2/Proyecto1_ED2/PIC_sensores.X/main_sensores.c
      +                          : 120:     PORTE=0;
  2140  06F5  0189               	clrf	9	;volatile
  2141  06F6                     l1530:
  2142                           
  2143                           ;C:/Users/Andy Bonilla/Documents/GitHub/ED2/Proyecto1_ED2/PIC_sensores.X/main_sensores.c
      +                          : 122:     osc_config(8);
  2144  06F6  3008               	movlw	8
  2145  06F7  120A  118A  26AB  120A  118A  	fcall	_osc_config
  2146  06FC                     l1532:
  2147                           
  2148                           ;C:/Users/Andy Bonilla/Documents/GitHub/ED2/Proyecto1_ED2/PIC_sensores.X/main_sensores.c
      +                          : 124:     ADC_config();
  2149  06FC  120A  118A  2702  120A  118A  	fcall	_ADC_config
  2150  0701                     l78:
  2151  0701  0008               	return
  2152  0702                     __end_of_setup:
  2153                           
  2154                           	psect	text5
  2155  06AB                     __ptext5:	
  2156 ;; *************** function _osc_config *****************
  2157 ;; Defined at:
  2158 ;;		line 16 in file "C:/Users/Andy Bonilla/Documents/GitHub/ED2/Proyecto1_ED2/PIC_sensores.X/Osc_config.c"
  2159 ;; Parameters:    Size  Location     Type
  2160 ;;  freq            1    wreg     unsigned char 
  2161 ;; Auto vars:     Size  Location     Type
  2162 ;;  freq            1    4[COMMON] unsigned char 
  2163 ;; Return value:  Size  Location     Type
  2164 ;;                  1    wreg      void 
  2165 ;; Registers used:
  2166 ;;		wreg, fsr0l, fsr0h, status,2, status,0
  2167 ;; Tracked objects:
  2168 ;;		On entry : 0/0
  2169 ;;		On exit  : 0/0
  2170 ;;		Unchanged: 0/0
  2171 ;; Data sizes:     COMMON   BANK0   BANK1   BANK3   BANK2
  2172 ;;      Params:         0       0       0       0       0
  2173 ;;      Locals:         1       0       0       0       0
  2174 ;;      Temps:          2       0       0       0       0
  2175 ;;      Totals:         3       0       0       0       0
  2176 ;;Total ram usage:        3 bytes
  2177 ;; Hardware stack levels used: 1
  2178 ;; Hardware stack levels required when called: 1
  2179 ;; This function calls:
  2180 ;;		Nothing
  2181 ;; This function is called by:
  2182 ;;		_setup
  2183 ;; This function uses a non-reentrant model
  2184 ;;
  2185                           
  2186                           
  2187                           ;psect for function _osc_config
  2188  06AB                     _osc_config:
  2189                           
  2190                           ;incstack = 0
  2191                           ; Regs used in _osc_config: [wreg-fsr0h+status,2+status,0]
  2192                           ;osc_config@freq stored from wreg
  2193  06AB  00F4               	movwf	osc_config@freq
  2194  06AC                     l1242:
  2195                           
  2196                           ;C:/Users/Andy Bonilla/Documents/GitHub/ED2/Proyecto1_ED2/PIC_sensores.X/Osc_config.c: 1
      +                          6: void osc_config(uint8_t freq);C:/Users/Andy Bonilla/Documents/GitHub/ED2/Proyecto1_ED
      +                          2/PIC_sensores.X/Osc_config.c: 17: {;C:/Users/Andy Bonilla/Documents/GitHub/ED2/Proyecto
      +                          1_ED2/PIC_sensores.X/Osc_config.c: 18:     switch(freq)
  2197  06AC  2ECB               	goto	l1262
  2198  06AD                     l1244:
  2199                           
  2200                           ;C:/Users/Andy Bonilla/Documents/GitHub/ED2/Proyecto1_ED2/PIC_sensores.X/Osc_config.c: 2
      +                          1:             OSCCONbits.IRCF=0b100;
  2201  06AD  1683               	bsf	3,5	;RP0=1, select bank1
  2202  06AE  1303               	bcf	3,6	;RP1=0, select bank1
  2203  06AF  080F               	movf	15,w	;volatile
  2204  06B0  398F               	andlw	-113
  2205  06B1  3840               	iorlw	64
  2206  06B2  008F               	movwf	15	;volatile
  2207  06B3                     l1246:
  2208                           
  2209                           ;C:/Users/Andy Bonilla/Documents/GitHub/ED2/Proyecto1_ED2/PIC_sensores.X/Osc_config.c: 2
      +                          2:             OSCCONbits.SCS=1;
  2210  06B3  140F               	bsf	15,0	;volatile
  2211                           
  2212                           ;C:/Users/Andy Bonilla/Documents/GitHub/ED2/Proyecto1_ED2/PIC_sensores.X/Osc_config.c: 2
      +                          3:             break;
  2213  06B4  2EE1               	goto	l105
  2214  06B5                     l1248:
  2215                           
  2216                           ;C:/Users/Andy Bonilla/Documents/GitHub/ED2/Proyecto1_ED2/PIC_sensores.X/Osc_config.c: 2
      +                          6:             OSCCONbits.IRCF=0b101;
  2217  06B5  1683               	bsf	3,5	;RP0=1, select bank1
  2218  06B6  1303               	bcf	3,6	;RP1=0, select bank1
  2219  06B7  080F               	movf	15,w	;volatile
  2220  06B8  398F               	andlw	-113
  2221  06B9  3850               	iorlw	80
  2222  06BA  008F               	movwf	15	;volatile
  2223  06BB                     l1250:
  2224                           
  2225                           ;C:/Users/Andy Bonilla/Documents/GitHub/ED2/Proyecto1_ED2/PIC_sensores.X/Osc_config.c: 2
      +                          7:             OSCCONbits.SCS=1;
  2226  06BB  140F               	bsf	15,0	;volatile
  2227                           
  2228                           ;C:/Users/Andy Bonilla/Documents/GitHub/ED2/Proyecto1_ED2/PIC_sensores.X/Osc_config.c: 2
      +                          8:             break;
  2229  06BC  2EE1               	goto	l105
  2230  06BD                     l1252:
  2231                           
  2232                           ;C:/Users/Andy Bonilla/Documents/GitHub/ED2/Proyecto1_ED2/PIC_sensores.X/Osc_config.c: 3
      +                          1:             OSCCONbits.IRCF=0b110;
  2233  06BD  1683               	bsf	3,5	;RP0=1, select bank1
  2234  06BE  1303               	bcf	3,6	;RP1=0, select bank1
  2235  06BF  080F               	movf	15,w	;volatile
  2236  06C0  398F               	andlw	-113
  2237  06C1  3860               	iorlw	96
  2238  06C2  008F               	movwf	15	;volatile
  2239  06C3                     l1254:
  2240                           
  2241                           ;C:/Users/Andy Bonilla/Documents/GitHub/ED2/Proyecto1_ED2/PIC_sensores.X/Osc_config.c: 3
      +                          2:             OSCCONbits.SCS=1;
  2242  06C3  140F               	bsf	15,0	;volatile
  2243                           
  2244                           ;C:/Users/Andy Bonilla/Documents/GitHub/ED2/Proyecto1_ED2/PIC_sensores.X/Osc_config.c: 3
      +                          3:             break;
  2245  06C4  2EE1               	goto	l105
  2246  06C5                     l1256:
  2247                           
  2248                           ;C:/Users/Andy Bonilla/Documents/GitHub/ED2/Proyecto1_ED2/PIC_sensores.X/Osc_config.c: 3
      +                          6:             OSCCONbits.IRCF=0b111;
  2249  06C5  3070               	movlw	112
  2250  06C6  1683               	bsf	3,5	;RP0=1, select bank1
  2251  06C7  1303               	bcf	3,6	;RP1=0, select bank1
  2252  06C8  048F               	iorwf	15,f	;volatile
  2253  06C9                     l1258:
  2254                           
  2255                           ;C:/Users/Andy Bonilla/Documents/GitHub/ED2/Proyecto1_ED2/PIC_sensores.X/Osc_config.c: 3
      +                          7:             OSCCONbits.SCS=1;
  2256  06C9  140F               	bsf	15,0	;volatile
  2257                           
  2258                           ;C:/Users/Andy Bonilla/Documents/GitHub/ED2/Proyecto1_ED2/PIC_sensores.X/Osc_config.c: 3
      +                          8:             break;
  2259  06CA  2EE1               	goto	l105
  2260  06CB                     l1262:
  2261  06CB  0874               	movf	osc_config@freq,w
  2262  06CC  00F2               	movwf	??_osc_config
  2263  06CD  01F3               	clrf	??_osc_config+1
  2264                           
  2265                           ; Switch on 2 bytes has been partitioned into a top level switch of size 1, and 1 sub-sw
      +                          itches
  2266                           ; Switch size 1, requested type "simple"
  2267                           ; Number of cases is 1, Range of values is 0 to 0
  2268                           ; switch strategies available:
  2269                           ; Name         Instructions Cycles
  2270                           ; simple_byte            4     3 (average)
  2271                           ; direct_byte           11     8 (fixed)
  2272                           ; jumptable            260     6 (fixed)
  2273                           ;	Chosen strategy is simple_byte
  2274  06CE  0873               	movf	??_osc_config+1,w
  2275  06CF  3A00               	xorlw	0	; case 0
  2276  06D0  1903               	skipnz
  2277  06D1  2ED3               	goto	l2040
  2278  06D2  2EE1               	goto	l105
  2279  06D3                     l2040:
  2280                           
  2281                           ; Switch size 1, requested type "simple"
  2282                           ; Number of cases is 4, Range of values is 1 to 8
  2283                           ; switch strategies available:
  2284                           ; Name         Instructions Cycles
  2285                           ; simple_byte           13     7 (average)
  2286                           ; direct_byte           35    11 (fixed)
  2287                           ; jumptable            263     9 (fixed)
  2288                           ;	Chosen strategy is simple_byte
  2289  06D3  0872               	movf	??_osc_config,w
  2290  06D4  3A01               	xorlw	1	; case 1
  2291  06D5  1903               	skipnz
  2292  06D6  2EAD               	goto	l1244
  2293  06D7  3A03               	xorlw	3	; case 2
  2294  06D8  1903               	skipnz
  2295  06D9  2EB5               	goto	l1248
  2296  06DA  3A06               	xorlw	6	; case 4
  2297  06DB  1903               	skipnz
  2298  06DC  2EBD               	goto	l1252
  2299  06DD  3A0C               	xorlw	12	; case 8
  2300  06DE  1903               	skipnz
  2301  06DF  2EC5               	goto	l1256
  2302  06E0  2EE1               	goto	l105
  2303  06E1                     l105:
  2304  06E1  0008               	return
  2305  06E2                     __end_of_osc_config:
  2306                           
  2307                           	psect	text6
  2308  0702                     __ptext6:	
  2309 ;; *************** function _ADC_config *****************
  2310 ;; Defined at:
  2311 ;;		line 22 in file "C:/Users/Andy Bonilla/Documents/GitHub/ED2/Proyecto1_ED2/PIC_sensores.X/ADC_CONFIG.c"
  2312 ;; Parameters:    Size  Location     Type
  2313 ;;		None
  2314 ;; Auto vars:     Size  Location     Type
  2315 ;;		None
  2316 ;; Return value:  Size  Location     Type
  2317 ;;                  1    wreg      void 
  2318 ;; Registers used:
  2319 ;;		wreg, status,2, status,0
  2320 ;; Tracked objects:
  2321 ;;		On entry : 0/0
  2322 ;;		On exit  : 0/0
  2323 ;;		Unchanged: 0/0
  2324 ;; Data sizes:     COMMON   BANK0   BANK1   BANK3   BANK2
  2325 ;;      Params:         0       0       0       0       0
  2326 ;;      Locals:         0       0       0       0       0
  2327 ;;      Temps:          1       0       0       0       0
  2328 ;;      Totals:         1       0       0       0       0
  2329 ;;Total ram usage:        1 bytes
  2330 ;; Hardware stack levels used: 1
  2331 ;; Hardware stack levels required when called: 1
  2332 ;; This function calls:
  2333 ;;		Nothing
  2334 ;; This function is called by:
  2335 ;;		_setup
  2336 ;; This function uses a non-reentrant model
  2337 ;;
  2338                           
  2339                           
  2340                           ;psect for function _ADC_config
  2341  0702                     _ADC_config:
  2342  0702                     l1268:	
  2343                           ;incstack = 0
  2344                           ; Regs used in _ADC_config: [wreg+status,2+status,0]
  2345                           
  2346                           
  2347                           ;C:/Users/Andy Bonilla/Documents/GitHub/ED2/Proyecto1_ED2/PIC_sensores.X/ADC_CONFIG.c: 2
      +                          5:     ADCON1bits.ADFM = 1 ;
  2348  0702  1683               	bsf	3,5	;RP0=1, select bank1
  2349  0703  1303               	bcf	3,6	;RP1=0, select bank1
  2350  0704  179F               	bsf	31,7	;volatile
  2351                           
  2352                           ;C:/Users/Andy Bonilla/Documents/GitHub/ED2/Proyecto1_ED2/PIC_sensores.X/ADC_CONFIG.c: 2
      +                          6:     ADCON1bits.VCFG0 = 0 ;
  2353  0705  121F               	bcf	31,4	;volatile
  2354                           
  2355                           ;C:/Users/Andy Bonilla/Documents/GitHub/ED2/Proyecto1_ED2/PIC_sensores.X/ADC_CONFIG.c: 2
      +                          7:     ADCON1bits.VCFG1 = 0 ;
  2356  0706  129F               	bcf	31,5	;volatile
  2357  0707                     l1270:
  2358                           
  2359                           ;C:/Users/Andy Bonilla/Documents/GitHub/ED2/Proyecto1_ED2/PIC_sensores.X/ADC_CONFIG.c: 2
      +                          9:     ADCON0bits.ADCS = 0b00;
  2360  0707  303F               	movlw	-193
  2361  0708  1283               	bcf	3,5	;RP0=0, select bank0
  2362  0709  1303               	bcf	3,6	;RP1=0, select bank0
  2363  070A  059F               	andwf	31,f	;volatile
  2364                           
  2365                           ;C:/Users/Andy Bonilla/Documents/GitHub/ED2/Proyecto1_ED2/PIC_sensores.X/ADC_CONFIG.c: 3
      +                          0:     ADCON0bits.CHS = 0;
  2366  070B  30C3               	movlw	-61
  2367  070C  059F               	andwf	31,f	;volatile
  2368  070D                     l1272:
  2369                           
  2370                           ;C:/Users/Andy Bonilla/Documents/GitHub/ED2/Proyecto1_ED2/PIC_sensores.X/ADC_CONFIG.c: 3
      +                          1:     _delay((unsigned long)((100)*(8000000/4000000.0)));
  2371  070D  3042               	movlw	66
  2372  070E  00F2               	movwf	??_ADC_config
  2373  070F                     u2707:
  2374  070F  0BF2               	decfsz	??_ADC_config,f
  2375  0710  2F0F               	goto	u2707
  2376  0711  0000               	nop
  2377  0712                     l1274:
  2378                           
  2379                           ;C:/Users/Andy Bonilla/Documents/GitHub/ED2/Proyecto1_ED2/PIC_sensores.X/ADC_CONFIG.c: 3
      +                          2:     ADCON0bits.ADON = 1 ;
  2380  0712  1283               	bcf	3,5	;RP0=0, select bank0
  2381  0713  1303               	bcf	3,6	;RP1=0, select bank0
  2382  0714  141F               	bsf	31,0	;volatile
  2383  0715                     l114:
  2384  0715  0008               	return
  2385  0716                     __end_of_ADC_config:
  2386                           
  2387                           	psect	text7
  2388  0673                     __ptext7:	
  2389 ;; *************** function _infrarrojos *****************
  2390 ;; Defined at:
  2391 ;;		line 135 in file "C:/Users/Andy Bonilla/Documents/GitHub/ED2/Proyecto1_ED2/PIC_sensores.X/main_sensores.c"
  2392 ;; Parameters:    Size  Location     Type
  2393 ;;		None
  2394 ;; Auto vars:     Size  Location     Type
  2395 ;;		None
  2396 ;; Return value:  Size  Location     Type
  2397 ;;                  1    wreg      void 
  2398 ;; Registers used:
  2399 ;;		wreg, status,2, status,0
  2400 ;; Tracked objects:
  2401 ;;		On entry : 0/0
  2402 ;;		On exit  : 0/0
  2403 ;;		Unchanged: 0/0
  2404 ;; Data sizes:     COMMON   BANK0   BANK1   BANK3   BANK2
  2405 ;;      Params:         0       0       0       0       0
  2406 ;;      Locals:         0       0       0       0       0
  2407 ;;      Temps:          2       0       0       0       0
  2408 ;;      Totals:         2       0       0       0       0
  2409 ;;Total ram usage:        2 bytes
  2410 ;; Hardware stack levels used: 1
  2411 ;; Hardware stack levels required when called: 1
  2412 ;; This function calls:
  2413 ;;		Nothing
  2414 ;; This function is called by:
  2415 ;;		_main
  2416 ;; This function uses a non-reentrant model
  2417 ;;
  2418                           
  2419                           
  2420                           ;psect for function _infrarrojos
  2421  0673                     _infrarrojos:
  2422  0673                     l1542:	
  2423                           ;incstack = 0
  2424                           ; Regs used in _infrarrojos: [wreg+status,2+status,0]
  2425                           
  2426                           
  2427                           ;C:/Users/Andy Bonilla/Documents/GitHub/ED2/Proyecto1_ED2/PIC_sensores.X/main_sensores.c
      +                          : 138:     if (PORTBbits.RB1==1)
  2428  0673  1283               	bcf	3,5	;RP0=0, select bank0
  2429  0674  1303               	bcf	3,6	;RP1=0, select bank0
  2430  0675  1C86               	btfss	6,1	;volatile
  2431  0676  2E78               	goto	u1691
  2432  0677  2E79               	goto	u1690
  2433  0678                     u1691:
  2434  0678  2E7D               	goto	l81
  2435  0679                     u1690:
  2436  0679                     l1544:
  2437                           
  2438                           ;C:/Users/Andy Bonilla/Documents/GitHub/ED2/Proyecto1_ED2/PIC_sensores.X/main_sensores.c
      +                          : 139:     {;C:/Users/Andy Bonilla/Documents/GitHub/ED2/Proyecto1_ED2/PIC_sensores.X/mai
      +                          n_sensores.c: 140:         PORTDbits.RD0=1;
  2439  0679  1408               	bsf	8,0	;volatile
  2440                           
  2441                           ;C:/Users/Andy Bonilla/Documents/GitHub/ED2/Proyecto1_ED2/PIC_sensores.X/main_sensores.c
      +                          : 141:         PORTDbits.RD1=0;
  2442  067A  1088               	bcf	8,1	;volatile
  2443                           
  2444                           ;C:/Users/Andy Bonilla/Documents/GitHub/ED2/Proyecto1_ED2/PIC_sensores.X/main_sensores.c
      +                          : 142:         infrarrojo1=1;
  2445  067B  01FA               	clrf	_infrarrojo1
  2446  067C  0AFA               	incf	_infrarrojo1,f
  2447  067D                     l81:	
  2448                           ;C:/Users/Andy Bonilla/Documents/GitHub/ED2/Proyecto1_ED2/PIC_sensores.X/main_sensores.c
      +                          : 143:     }
  2449                           
  2450                           
  2451                           ;C:/Users/Andy Bonilla/Documents/GitHub/ED2/Proyecto1_ED2/PIC_sensores.X/main_sensores.c
      +                          : 144:     if (PORTBbits.RB1==0)
  2452  067D  1886               	btfsc	6,1	;volatile
  2453  067E  2E80               	goto	u1701
  2454  067F  2E81               	goto	u1700
  2455  0680                     u1701:
  2456  0680  2E84               	goto	l1550
  2457  0681                     u1700:
  2458  0681                     l1546:
  2459                           
  2460                           ;C:/Users/Andy Bonilla/Documents/GitHub/ED2/Proyecto1_ED2/PIC_sensores.X/main_sensores.c
      +                          : 145:     {;C:/Users/Andy Bonilla/Documents/GitHub/ED2/Proyecto1_ED2/PIC_sensores.X/mai
      +                          n_sensores.c: 146:         PORTDbits.RD0=0;
  2461  0681  1008               	bcf	8,0	;volatile
  2462                           
  2463                           ;C:/Users/Andy Bonilla/Documents/GitHub/ED2/Proyecto1_ED2/PIC_sensores.X/main_sensores.c
      +                          : 147:         PORTDbits.RD1=1;
  2464  0682  1488               	bsf	8,1	;volatile
  2465  0683                     l1548:
  2466                           
  2467                           ;C:/Users/Andy Bonilla/Documents/GitHub/ED2/Proyecto1_ED2/PIC_sensores.X/main_sensores.c
      +                          : 148:         infrarrojo1=0;
  2468  0683  01FA               	clrf	_infrarrojo1
  2469  0684                     l1550:
  2470                           
  2471                           ;C:/Users/Andy Bonilla/Documents/GitHub/ED2/Proyecto1_ED2/PIC_sensores.X/main_sensores.c
      +                          : 151:     if (PORTBbits.RB2==1)
  2472  0684  1D06               	btfss	6,2	;volatile
  2473  0685  2E87               	goto	u1711
  2474  0686  2E88               	goto	u1710
  2475  0687                     u1711:
  2476  0687  2E8C               	goto	l83
  2477  0688                     u1710:
  2478  0688                     l1552:
  2479                           
  2480                           ;C:/Users/Andy Bonilla/Documents/GitHub/ED2/Proyecto1_ED2/PIC_sensores.X/main_sensores.c
      +                          : 152:     {;C:/Users/Andy Bonilla/Documents/GitHub/ED2/Proyecto1_ED2/PIC_sensores.X/mai
      +                          n_sensores.c: 153:         PORTDbits.RD2=1;
  2481  0688  1508               	bsf	8,2	;volatile
  2482                           
  2483                           ;C:/Users/Andy Bonilla/Documents/GitHub/ED2/Proyecto1_ED2/PIC_sensores.X/main_sensores.c
      +                          : 154:         PORTDbits.RD3=0;
  2484  0689  1188               	bcf	8,3	;volatile
  2485                           
  2486                           ;C:/Users/Andy Bonilla/Documents/GitHub/ED2/Proyecto1_ED2/PIC_sensores.X/main_sensores.c
      +                          : 155:         infrarrojo2=1;
  2487  068A  01F9               	clrf	_infrarrojo2
  2488  068B  0AF9               	incf	_infrarrojo2,f
  2489  068C                     l83:	
  2490                           ;C:/Users/Andy Bonilla/Documents/GitHub/ED2/Proyecto1_ED2/PIC_sensores.X/main_sensores.c
      +                          : 156:     }
  2491                           
  2492                           
  2493                           ;C:/Users/Andy Bonilla/Documents/GitHub/ED2/Proyecto1_ED2/PIC_sensores.X/main_sensores.c
      +                          : 157:     if (PORTBbits.RB2==0)
  2494  068C  1906               	btfsc	6,2	;volatile
  2495  068D  2E8F               	goto	u1721
  2496  068E  2E90               	goto	u1720
  2497  068F                     u1721:
  2498  068F  2E93               	goto	l1558
  2499  0690                     u1720:
  2500  0690                     l1554:
  2501                           
  2502                           ;C:/Users/Andy Bonilla/Documents/GitHub/ED2/Proyecto1_ED2/PIC_sensores.X/main_sensores.c
      +                          : 158:     {;C:/Users/Andy Bonilla/Documents/GitHub/ED2/Proyecto1_ED2/PIC_sensores.X/mai
      +                          n_sensores.c: 159:         PORTDbits.RD2=0;
  2503  0690  1108               	bcf	8,2	;volatile
  2504                           
  2505                           ;C:/Users/Andy Bonilla/Documents/GitHub/ED2/Proyecto1_ED2/PIC_sensores.X/main_sensores.c
      +                          : 160:         PORTDbits.RD3=1;
  2506  0691  1588               	bsf	8,3	;volatile
  2507  0692                     l1556:
  2508                           
  2509                           ;C:/Users/Andy Bonilla/Documents/GitHub/ED2/Proyecto1_ED2/PIC_sensores.X/main_sensores.c
      +                          : 161:         infrarrojo2=0;
  2510  0692  01F9               	clrf	_infrarrojo2
  2511  0693                     l1558:
  2512                           
  2513                           ;C:/Users/Andy Bonilla/Documents/GitHub/ED2/Proyecto1_ED2/PIC_sensores.X/main_sensores.c
      +                          : 164:     if (PORTBbits.RB3==1)
  2514  0693  1D86               	btfss	6,3	;volatile
  2515  0694  2E96               	goto	u1731
  2516  0695  2E97               	goto	u1730
  2517  0696                     u1731:
  2518  0696  2E9B               	goto	l85
  2519  0697                     u1730:
  2520  0697                     l1560:
  2521                           
  2522                           ;C:/Users/Andy Bonilla/Documents/GitHub/ED2/Proyecto1_ED2/PIC_sensores.X/main_sensores.c
      +                          : 165:     {;C:/Users/Andy Bonilla/Documents/GitHub/ED2/Proyecto1_ED2/PIC_sensores.X/mai
      +                          n_sensores.c: 166:         PORTDbits.RD4=1;
  2523  0697  1608               	bsf	8,4	;volatile
  2524                           
  2525                           ;C:/Users/Andy Bonilla/Documents/GitHub/ED2/Proyecto1_ED2/PIC_sensores.X/main_sensores.c
      +                          : 167:         PORTDbits.RD5=0;
  2526  0698  1288               	bcf	8,5	;volatile
  2527                           
  2528                           ;C:/Users/Andy Bonilla/Documents/GitHub/ED2/Proyecto1_ED2/PIC_sensores.X/main_sensores.c
      +                          : 168:         infrarrojo3=1;
  2529  0699  01F8               	clrf	_infrarrojo3
  2530  069A  0AF8               	incf	_infrarrojo3,f
  2531  069B                     l85:	
  2532                           ;C:/Users/Andy Bonilla/Documents/GitHub/ED2/Proyecto1_ED2/PIC_sensores.X/main_sensores.c
      +                          : 169:     }
  2533                           
  2534                           
  2535                           ;C:/Users/Andy Bonilla/Documents/GitHub/ED2/Proyecto1_ED2/PIC_sensores.X/main_sensores.c
      +                          : 170:     if (PORTBbits.RB3==0)
  2536  069B  1986               	btfsc	6,3	;volatile
  2537  069C  2E9E               	goto	u1741
  2538  069D  2E9F               	goto	u1740
  2539  069E                     u1741:
  2540  069E  2EA2               	goto	l1566
  2541  069F                     u1740:
  2542  069F                     l1562:
  2543                           
  2544                           ;C:/Users/Andy Bonilla/Documents/GitHub/ED2/Proyecto1_ED2/PIC_sensores.X/main_sensores.c
      +                          : 171:     {;C:/Users/Andy Bonilla/Documents/GitHub/ED2/Proyecto1_ED2/PIC_sensores.X/mai
      +                          n_sensores.c: 172:         PORTDbits.RD4=0;
  2545  069F  1208               	bcf	8,4	;volatile
  2546                           
  2547                           ;C:/Users/Andy Bonilla/Documents/GitHub/ED2/Proyecto1_ED2/PIC_sensores.X/main_sensores.c
      +                          : 173:         PORTDbits.RD5=1;
  2548  06A0  1688               	bsf	8,5	;volatile
  2549  06A1                     l1564:
  2550                           
  2551                           ;C:/Users/Andy Bonilla/Documents/GitHub/ED2/Proyecto1_ED2/PIC_sensores.X/main_sensores.c
      +                          : 174:         infrarrojo3=0;
  2552  06A1  01F8               	clrf	_infrarrojo3
  2553  06A2                     l1566:
  2554                           
  2555                           ;C:/Users/Andy Bonilla/Documents/GitHub/ED2/Proyecto1_ED2/PIC_sensores.X/main_sensores.c
      +                          : 176:     suma_ir=infrarrojo1+infrarrojo2+infrarrojo3;
  2556  06A2  0879               	movf	_infrarrojo2,w
  2557  06A3  077A               	addwf	_infrarrojo1,w
  2558  06A4  00F2               	movwf	??_infrarrojos
  2559  06A5  0878               	movf	_infrarrojo3,w
  2560  06A6  0772               	addwf	??_infrarrojos,w
  2561  06A7  00F3               	movwf	??_infrarrojos+1
  2562  06A8  0873               	movf	??_infrarrojos+1,w
  2563  06A9  00CE               	movwf	_suma_ir
  2564  06AA                     l87:
  2565  06AA  0008               	return
  2566  06AB                     __end_of_infrarrojos:
  2567                           
  2568                           	psect	text8
  2569  0547                     __ptext8:	
  2570 ;; *************** function ___fltol *****************
  2571 ;; Defined at:
  2572 ;;		line 43 in file "C:\Program Files\Microchip\xc8\v2.32\pic\sources\c90\common\fltol.c"
  2573 ;; Parameters:    Size  Location     Type
  2574 ;;  f1              4    2[COMMON] void 
  2575 ;; Auto vars:     Size  Location     Type
  2576 ;;  exp1            1    7[COMMON] unsigned char 
  2577 ;;  sign1           1    6[COMMON] unsigned char 
  2578 ;; Return value:  Size  Location     Type
  2579 ;;                  4    2[COMMON] long 
  2580 ;; Registers used:
  2581 ;;		wreg, status,2, status,0
  2582 ;; Tracked objects:
  2583 ;;		On entry : 0/0
  2584 ;;		On exit  : 0/0
  2585 ;;		Unchanged: 0/0
  2586 ;; Data sizes:     COMMON   BANK0   BANK1   BANK3   BANK2
  2587 ;;      Params:         4       0       0       0       0
  2588 ;;      Locals:         2       0       0       0       0
  2589 ;;      Temps:          0       5       0       0       0
  2590 ;;      Totals:         6       5       0       0       0
  2591 ;;Total ram usage:       11 bytes
  2592 ;; Hardware stack levels used: 1
  2593 ;; Hardware stack levels required when called: 1
  2594 ;; This function calls:
  2595 ;;		Nothing
  2596 ;; This function is called by:
  2597 ;;		_main
  2598 ;; This function uses a non-reentrant model
  2599 ;;
  2600                           
  2601                           
  2602                           ;psect for function ___fltol
  2603  0547                     ___fltol:
  2604  0547                     l1830:	
  2605                           ;incstack = 0
  2606                           ; Regs used in ___fltol: [wreg+status,2+status,0]
  2607                           
  2608  0547  1003               	clrc
  2609  0548  0D74               	rlf	___fltol@f1+2,w
  2610  0549  0D75               	rlf	___fltol@f1+3,w
  2611  054A  1283               	bcf	3,5	;RP0=0, select bank0
  2612  054B  1303               	bcf	3,6	;RP1=0, select bank0
  2613  054C  00A0               	movwf	??___fltol
  2614  054D  0820               	movf	??___fltol,w
  2615  054E  00F7               	movwf	___fltol@exp1
  2616  054F  0877               	movf	___fltol@exp1,w
  2617  0550  1D03               	btfss	3,2
  2618  0551  2D53               	goto	u2301
  2619  0552  2D54               	goto	u2300
  2620  0553                     u2301:
  2621  0553  2D5D               	goto	l1836
  2622  0554                     u2300:
  2623  0554                     l1832:
  2624  0554  3000               	movlw	0
  2625  0555  00F5               	movwf	?___fltol+3
  2626  0556  3000               	movlw	0
  2627  0557  00F4               	movwf	?___fltol+2
  2628  0558  3000               	movlw	0
  2629  0559  00F3               	movwf	?___fltol+1
  2630  055A  3000               	movlw	0
  2631  055B  00F2               	movwf	?___fltol
  2632  055C  2DC2               	goto	l386
  2633  055D                     l1836:
  2634  055D  0872               	movf	___fltol@f1,w
  2635  055E  00A0               	movwf	??___fltol
  2636  055F  0873               	movf	___fltol@f1+1,w
  2637  0560  00A1               	movwf	??___fltol+1
  2638  0561  0874               	movf	___fltol@f1+2,w
  2639  0562  00A2               	movwf	??___fltol+2
  2640  0563  0875               	movf	___fltol@f1+3,w
  2641  0564  00A3               	movwf	??___fltol+3
  2642  0565  301F               	movlw	31
  2643  0566                     u2315:
  2644  0566  1003               	clrc
  2645  0567  0CA3               	rrf	??___fltol+3,f
  2646  0568  0CA2               	rrf	??___fltol+2,f
  2647  0569  0CA1               	rrf	??___fltol+1,f
  2648  056A  0CA0               	rrf	??___fltol,f
  2649  056B                     u2310:
  2650  056B  3EFF               	addlw	-1
  2651  056C  1D03               	skipz
  2652  056D  2D66               	goto	u2315
  2653  056E  0820               	movf	??___fltol,w
  2654  056F  00A4               	movwf	??___fltol+4
  2655  0570  0824               	movf	??___fltol+4,w
  2656  0571  00F6               	movwf	___fltol@sign1
  2657  0572                     l1838:
  2658  0572  17F4               	bsf	___fltol@f1+2,7
  2659  0573                     l1840:
  2660  0573  30FF               	movlw	255
  2661  0574  05F2               	andwf	___fltol@f1,f
  2662  0575  30FF               	movlw	255
  2663  0576  05F3               	andwf	___fltol@f1+1,f
  2664  0577  30FF               	movlw	255
  2665  0578  05F4               	andwf	___fltol@f1+2,f
  2666  0579  3000               	movlw	0
  2667  057A  05F5               	andwf	___fltol@f1+3,f
  2668  057B                     l1842:
  2669  057B  3096               	movlw	150
  2670  057C  02F7               	subwf	___fltol@exp1,f
  2671  057D                     l1844:
  2672  057D  1FF7               	btfss	___fltol@exp1,7
  2673  057E  2D80               	goto	u2321
  2674  057F  2D81               	goto	u2320
  2675  0580                     u2321:
  2676  0580  2D9B               	goto	l1854
  2677  0581                     u2320:
  2678  0581                     l1846:
  2679  0581  0877               	movf	___fltol@exp1,w
  2680  0582  3A80               	xorlw	128
  2681  0583  3E97               	addlw	151
  2682  0584  1803               	skipnc
  2683  0585  2D87               	goto	u2331
  2684  0586  2D88               	goto	u2330
  2685  0587                     u2331:
  2686  0587  2D89               	goto	l1852
  2687  0588                     u2330:
  2688  0588  2D54               	goto	l1832
  2689  0589                     l1852:
  2690  0589  3001               	movlw	1
  2691  058A                     u2345:
  2692  058A  1003               	clrc
  2693  058B  0CF5               	rrf	___fltol@f1+3,f
  2694  058C  0CF4               	rrf	___fltol@f1+2,f
  2695  058D  0CF3               	rrf	___fltol@f1+1,f
  2696  058E  0CF2               	rrf	___fltol@f1,f
  2697  058F  3EFF               	addlw	-1
  2698  0590  1D03               	skipz
  2699  0591  2D8A               	goto	u2345
  2700  0592  3001               	movlw	1
  2701  0593  00A0               	movwf	??___fltol
  2702  0594  0820               	movf	??___fltol,w
  2703  0595  07F7               	addwf	___fltol@exp1,f
  2704  0596  1D03               	btfss	3,2
  2705  0597  2D99               	goto	u2351
  2706  0598  2D9A               	goto	u2350
  2707  0599                     u2351:
  2708  0599  2D89               	goto	l1852
  2709  059A                     u2350:
  2710  059A  2DB2               	goto	l1862
  2711  059B                     l1854:
  2712  059B  3020               	movlw	32
  2713  059C  0277               	subwf	___fltol@exp1,w
  2714  059D  1C03               	skipc
  2715  059E  2DA0               	goto	u2361
  2716  059F  2DA1               	goto	u2360
  2717  05A0                     u2361:
  2718  05A0  2DAD               	goto	l393
  2719  05A1                     u2360:
  2720  05A1  2D54               	goto	l1832
  2721  05A2                     l1860:
  2722  05A2  3001               	movlw	1
  2723  05A3  00A0               	movwf	??___fltol
  2724  05A4                     u2375:
  2725  05A4  1003               	clrc
  2726  05A5  0DF2               	rlf	___fltol@f1,f
  2727  05A6  0DF3               	rlf	___fltol@f1+1,f
  2728  05A7  0DF4               	rlf	___fltol@f1+2,f
  2729  05A8  0DF5               	rlf	___fltol@f1+3,f
  2730  05A9  0BA0               	decfsz	??___fltol,f
  2731  05AA  2DA4               	goto	u2375
  2732  05AB  3001               	movlw	1
  2733  05AC  02F7               	subwf	___fltol@exp1,f
  2734  05AD                     l393:
  2735  05AD  0877               	movf	___fltol@exp1,w
  2736  05AE  1D03               	btfss	3,2
  2737  05AF  2DB1               	goto	u2381
  2738  05B0  2DB2               	goto	u2380
  2739  05B1                     u2381:
  2740  05B1  2DA2               	goto	l1860
  2741  05B2                     u2380:
  2742  05B2                     l1862:
  2743  05B2  0876               	movf	___fltol@sign1,w
  2744  05B3  1903               	btfsc	3,2
  2745  05B4  2DB6               	goto	u2391
  2746  05B5  2DB7               	goto	u2390
  2747  05B6                     u2391:
  2748  05B6  2DC2               	goto	l396
  2749  05B7                     u2390:
  2750  05B7                     l1864:
  2751  05B7  09F2               	comf	___fltol@f1,f
  2752  05B8  09F3               	comf	___fltol@f1+1,f
  2753  05B9  09F4               	comf	___fltol@f1+2,f
  2754  05BA  09F5               	comf	___fltol@f1+3,f
  2755  05BB  0AF2               	incf	___fltol@f1,f
  2756  05BC  1903               	skipnz
  2757  05BD  0AF3               	incf	___fltol@f1+1,f
  2758  05BE  1903               	skipnz
  2759  05BF  0AF4               	incf	___fltol@f1+2,f
  2760  05C0  1903               	skipnz
  2761  05C1  0AF5               	incf	___fltol@f1+3,f
  2762  05C2                     l396:
  2763  05C2                     l386:
  2764  05C2  0008               	return
  2765  05C3                     __end_of___fltol:
  2766                           
  2767                           	psect	text9
  2768  02AE                     __ptext9:	
  2769 ;; *************** function ___fldiv *****************
  2770 ;; Defined at:
  2771 ;;		line 8 in file "C:\Program Files\Microchip\xc8\v2.32\pic\sources\c90\common\sprcdiv.c"
  2772 ;; Parameters:    Size  Location     Type
  2773 ;;  a               4    0[BANK0 ] long 
  2774 ;;  b               4    4[BANK0 ] long 
  2775 ;; Auto vars:     Size  Location     Type
  2776 ;;  grs             4   15[BANK0 ] unsigned long 
  2777 ;;  rem             4    8[BANK0 ] unsigned long 
  2778 ;;  new_exp         2   13[BANK0 ] int 
  2779 ;;  aexp            1   20[BANK0 ] unsigned char 
  2780 ;;  bexp            1   19[BANK0 ] unsigned char 
  2781 ;;  sign            1   12[BANK0 ] unsigned char 
  2782 ;; Return value:  Size  Location     Type
  2783 ;;                  4    0[BANK0 ] unsigned char 
  2784 ;; Registers used:
  2785 ;;		wreg, status,2, status,0, btemp+1
  2786 ;; Tracked objects:
  2787 ;;		On entry : 0/0
  2788 ;;		On exit  : 0/0
  2789 ;;		Unchanged: 0/0
  2790 ;; Data sizes:     COMMON   BANK0   BANK1   BANK3   BANK2
  2791 ;;      Params:         0       8       0       0       0
  2792 ;;      Locals:         0      13       0       0       0
  2793 ;;      Temps:          5       0       0       0       0
  2794 ;;      Totals:         5      21       0       0       0
  2795 ;;Total ram usage:       26 bytes
  2796 ;; Hardware stack levels used: 1
  2797 ;; Hardware stack levels required when called: 1
  2798 ;; This function calls:
  2799 ;;		Nothing
  2800 ;; This function is called by:
  2801 ;;		_main
  2802 ;;		_temperatura
  2803 ;; This function uses a non-reentrant model
  2804 ;;
  2805                           
  2806                           
  2807                           ;psect for function ___fldiv
  2808  02AE                     ___fldiv:
  2809  02AE                     l1866:	
  2810                           ;incstack = 0
  2811                           ; Regs used in ___fldiv: [wreg+status,2+status,0+btemp+1]
  2812                           
  2813  02AE  1283               	bcf	3,5	;RP0=0, select bank0
  2814  02AF  1303               	bcf	3,6	;RP1=0, select bank0
  2815  02B0  0827               	movf	___fldiv@b+3,w
  2816  02B1  3980               	andlw	128
  2817  02B2  00F2               	movwf	??___fldiv
  2818  02B3  0872               	movf	??___fldiv,w
  2819  02B4  00AC               	movwf	___fldiv@sign
  2820  02B5                     l1868:
  2821  02B5  0827               	movf	___fldiv@b+3,w
  2822  02B6  00F2               	movwf	??___fldiv
  2823  02B7  0772               	addwf	??___fldiv,w
  2824  02B8  00F3               	movwf	??___fldiv+1
  2825  02B9  0873               	movf	??___fldiv+1,w
  2826  02BA  00B3               	movwf	___fldiv@bexp
  2827  02BB                     l1870:
  2828  02BB  1FA6               	btfss	___fldiv@b+2,7
  2829  02BC  2ABE               	goto	u2401
  2830  02BD  2ABF               	goto	u2400
  2831  02BE                     u2401:
  2832  02BE  2AC0               	goto	l1874
  2833  02BF                     u2400:
  2834  02BF                     l1872:
  2835  02BF  1433               	bsf	___fldiv@bexp,0
  2836  02C0                     l1874:
  2837  02C0  0833               	movf	___fldiv@bexp,w
  2838  02C1  1903               	btfsc	3,2
  2839  02C2  2AC4               	goto	u2411
  2840  02C3  2AC5               	goto	u2410
  2841  02C4                     u2411:
  2842  02C4  2AD5               	goto	l1884
  2843  02C5                     u2410:
  2844  02C5                     l1876:
  2845  02C5  0A33               	incf	___fldiv@bexp,w
  2846  02C6  1D03               	btfss	3,2
  2847  02C7  2AC9               	goto	u2421
  2848  02C8  2ACA               	goto	u2420
  2849  02C9                     u2421:
  2850  02C9  2AD2               	goto	l1880
  2851  02CA                     u2420:
  2852  02CA                     l1878:
  2853  02CA  3000               	movlw	0
  2854  02CB  00A7               	movwf	___fldiv@b+3
  2855  02CC  3000               	movlw	0
  2856  02CD  00A6               	movwf	___fldiv@b+2
  2857  02CE  3000               	movlw	0
  2858  02CF  00A5               	movwf	___fldiv@b+1
  2859  02D0  3000               	movlw	0
  2860  02D1  00A4               	movwf	___fldiv@b
  2861  02D2                     l1880:
  2862  02D2  17A6               	bsf	___fldiv@b+2,7
  2863  02D3                     l1882:
  2864  02D3  01A7               	clrf	___fldiv@b+3
  2865  02D4  2ADD               	goto	l1886
  2866  02D5                     l1884:
  2867  02D5  3000               	movlw	0
  2868  02D6  00A7               	movwf	___fldiv@b+3
  2869  02D7  3000               	movlw	0
  2870  02D8  00A6               	movwf	___fldiv@b+2
  2871  02D9  3000               	movlw	0
  2872  02DA  00A5               	movwf	___fldiv@b+1
  2873  02DB  3000               	movlw	0
  2874  02DC  00A4               	movwf	___fldiv@b
  2875  02DD                     l1886:
  2876  02DD  0823               	movf	___fldiv@a+3,w
  2877  02DE  3980               	andlw	128
  2878  02DF  00F2               	movwf	??___fldiv
  2879  02E0  0872               	movf	??___fldiv,w
  2880  02E1  06AC               	xorwf	___fldiv@sign,f
  2881  02E2                     l1888:
  2882  02E2  0823               	movf	___fldiv@a+3,w
  2883  02E3  00F2               	movwf	??___fldiv
  2884  02E4  0772               	addwf	??___fldiv,w
  2885  02E5  00F3               	movwf	??___fldiv+1
  2886  02E6  0873               	movf	??___fldiv+1,w
  2887  02E7  00B4               	movwf	___fldiv@aexp
  2888  02E8                     l1890:
  2889  02E8  1FA2               	btfss	___fldiv@a+2,7
  2890  02E9  2AEB               	goto	u2431
  2891  02EA  2AEC               	goto	u2430
  2892  02EB                     u2431:
  2893  02EB  2AED               	goto	l1894
  2894  02EC                     u2430:
  2895  02EC                     l1892:
  2896  02EC  1434               	bsf	___fldiv@aexp,0
  2897  02ED                     l1894:
  2898  02ED  0834               	movf	___fldiv@aexp,w
  2899  02EE  1903               	btfsc	3,2
  2900  02EF  2AF1               	goto	u2441
  2901  02F0  2AF2               	goto	u2440
  2902  02F1                     u2441:
  2903  02F1  2B02               	goto	l1904
  2904  02F2                     u2440:
  2905  02F2                     l1896:
  2906  02F2  0A34               	incf	___fldiv@aexp,w
  2907  02F3  1D03               	btfss	3,2
  2908  02F4  2AF6               	goto	u2451
  2909  02F5  2AF7               	goto	u2450
  2910  02F6                     u2451:
  2911  02F6  2AFF               	goto	l1900
  2912  02F7                     u2450:
  2913  02F7                     l1898:
  2914  02F7  3000               	movlw	0
  2915  02F8  00A3               	movwf	___fldiv@a+3
  2916  02F9  3000               	movlw	0
  2917  02FA  00A2               	movwf	___fldiv@a+2
  2918  02FB  3000               	movlw	0
  2919  02FC  00A1               	movwf	___fldiv@a+1
  2920  02FD  3000               	movlw	0
  2921  02FE  00A0               	movwf	___fldiv@a
  2922  02FF                     l1900:
  2923  02FF  17A2               	bsf	___fldiv@a+2,7
  2924  0300                     l1902:
  2925  0300  01A3               	clrf	___fldiv@a+3
  2926  0301  2B0A               	goto	l549
  2927  0302                     l1904:
  2928  0302  3000               	movlw	0
  2929  0303  00A3               	movwf	___fldiv@a+3
  2930  0304  3000               	movlw	0
  2931  0305  00A2               	movwf	___fldiv@a+2
  2932  0306  3000               	movlw	0
  2933  0307  00A1               	movwf	___fldiv@a+1
  2934  0308  3000               	movlw	0
  2935  0309  00A0               	movwf	___fldiv@a
  2936  030A                     l549:
  2937  030A  0823               	movf	___fldiv@a+3,w
  2938  030B  0422               	iorwf	___fldiv@a+2,w
  2939  030C  0421               	iorwf	___fldiv@a+1,w
  2940  030D  0420               	iorwf	___fldiv@a,w
  2941  030E  1D03               	skipz
  2942  030F  2B11               	goto	u2461
  2943  0310  2B12               	goto	u2460
  2944  0311                     u2461:
  2945  0311  2B2B               	goto	l1914
  2946  0312                     u2460:
  2947  0312                     l1906:
  2948  0312  3000               	movlw	0
  2949  0313  00A7               	movwf	___fldiv@b+3
  2950  0314  3000               	movlw	0
  2951  0315  00A6               	movwf	___fldiv@b+2
  2952  0316  3000               	movlw	0
  2953  0317  00A5               	movwf	___fldiv@b+1
  2954  0318  3000               	movlw	0
  2955  0319  00A4               	movwf	___fldiv@b
  2956  031A  3080               	movlw	128
  2957  031B  04A6               	iorwf	___fldiv@b+2,f
  2958  031C  307F               	movlw	127
  2959  031D  04A7               	iorwf	___fldiv@b+3,f
  2960  031E                     l1908:
  2961  031E  082C               	movf	___fldiv@sign,w
  2962  031F  00F2               	movwf	??___fldiv
  2963  0320  0872               	movf	??___fldiv,w
  2964  0321  04A7               	iorwf	___fldiv@b+3,f
  2965  0322                     l1910:
  2966  0322  0827               	movf	___fldiv@b+3,w
  2967  0323  00A3               	movwf	?___fldiv+3
  2968  0324  0826               	movf	___fldiv@b+2,w
  2969  0325  00A2               	movwf	?___fldiv+2
  2970  0326  0825               	movf	___fldiv@b+1,w
  2971  0327  00A1               	movwf	?___fldiv+1
  2972  0328  0824               	movf	___fldiv@b,w
  2973  0329  00A0               	movwf	?___fldiv
  2974  032A  2C8A               	goto	l551
  2975  032B                     l1914:
  2976  032B  0833               	movf	___fldiv@bexp,w
  2977  032C  1D03               	btfss	3,2
  2978  032D  2B2F               	goto	u2471
  2979  032E  2B30               	goto	u2470
  2980  032F                     u2471:
  2981  032F  2B39               	goto	l1920
  2982  0330                     u2470:
  2983  0330                     l1916:
  2984  0330  3000               	movlw	0
  2985  0331  00A3               	movwf	?___fldiv+3
  2986  0332  3000               	movlw	0
  2987  0333  00A2               	movwf	?___fldiv+2
  2988  0334  3000               	movlw	0
  2989  0335  00A1               	movwf	?___fldiv+1
  2990  0336  3000               	movlw	0
  2991  0337  00A0               	movwf	?___fldiv
  2992  0338  2C8A               	goto	l551
  2993  0339                     l1920:
  2994  0339  0833               	movf	___fldiv@bexp,w
  2995  033A  00F2               	movwf	??___fldiv
  2996  033B  01F3               	clrf	??___fldiv+1
  2997  033C  0873               	movf	??___fldiv+1,w
  2998  033D  00F5               	movwf	??___fldiv+3
  2999  033E  0834               	movf	___fldiv@aexp,w
  3000  033F  0272               	subwf	??___fldiv,w
  3001  0340  00F4               	movwf	??___fldiv+2
  3002  0341  1C03               	skipc
  3003  0342  03F5               	decf	??___fldiv+3,f
  3004  0343  0874               	movf	??___fldiv+2,w
  3005  0344  3E7F               	addlw	127
  3006  0345  00AD               	movwf	___fldiv@new_exp
  3007  0346  0875               	movf	??___fldiv+3,w
  3008  0347  1803               	skipnc
  3009  0348  3E01               	addlw	1
  3010  0349  3E00               	addlw	0
  3011  034A  00AE               	movwf	___fldiv@new_exp+1
  3012  034B                     l1922:
  3013  034B  0827               	movf	___fldiv@b+3,w
  3014  034C  00AB               	movwf	___fldiv@rem+3
  3015  034D  0826               	movf	___fldiv@b+2,w
  3016  034E  00AA               	movwf	___fldiv@rem+2
  3017  034F  0825               	movf	___fldiv@b+1,w
  3018  0350  00A9               	movwf	___fldiv@rem+1
  3019  0351  0824               	movf	___fldiv@b,w
  3020  0352  00A8               	movwf	___fldiv@rem
  3021  0353                     l1924:
  3022  0353  3000               	movlw	0
  3023  0354  00A7               	movwf	___fldiv@b+3
  3024  0355  3000               	movlw	0
  3025  0356  00A6               	movwf	___fldiv@b+2
  3026  0357  3000               	movlw	0
  3027  0358  00A5               	movwf	___fldiv@b+1
  3028  0359  3000               	movlw	0
  3029  035A  00A4               	movwf	___fldiv@b
  3030  035B                     l1926:
  3031  035B  3000               	movlw	0
  3032  035C  00B2               	movwf	___fldiv@grs+3
  3033  035D  3000               	movlw	0
  3034  035E  00B1               	movwf	___fldiv@grs+2
  3035  035F  3000               	movlw	0
  3036  0360  00B0               	movwf	___fldiv@grs+1
  3037  0361  3000               	movlw	0
  3038  0362  00AF               	movwf	___fldiv@grs
  3039  0363                     l1928:
  3040  0363  01B4               	clrf	___fldiv@aexp
  3041  0364  2BAF               	goto	l1948
  3042  0365                     l1930:
  3043  0365  0834               	movf	___fldiv@aexp,w
  3044  0366  1903               	btfsc	3,2
  3045  0367  2B69               	goto	u2481
  3046  0368  2B6A               	goto	u2480
  3047  0369                     u2481:
  3048  0369  2B8A               	goto	l1940
  3049  036A                     u2480:
  3050  036A                     l1932:
  3051  036A  3001               	movlw	1
  3052  036B  00F2               	movwf	??___fldiv
  3053  036C                     u2495:
  3054  036C  1003               	clrc
  3055  036D  0DA8               	rlf	___fldiv@rem,f
  3056  036E  0DA9               	rlf	___fldiv@rem+1,f
  3057  036F  0DAA               	rlf	___fldiv@rem+2,f
  3058  0370  0DAB               	rlf	___fldiv@rem+3,f
  3059  0371  0BF2               	decfsz	??___fldiv,f
  3060  0372  2B6C               	goto	u2495
  3061  0373  3001               	movlw	1
  3062  0374  00F2               	movwf	??___fldiv
  3063  0375                     u2505:
  3064  0375  1003               	clrc
  3065  0376  0DA4               	rlf	___fldiv@b,f
  3066  0377  0DA5               	rlf	___fldiv@b+1,f
  3067  0378  0DA6               	rlf	___fldiv@b+2,f
  3068  0379  0DA7               	rlf	___fldiv@b+3,f
  3069  037A  0BF2               	decfsz	??___fldiv,f
  3070  037B  2B75               	goto	u2505
  3071  037C                     l1934:
  3072  037C  1FB2               	btfss	___fldiv@grs+3,7
  3073  037D  2B7F               	goto	u2511
  3074  037E  2B80               	goto	u2510
  3075  037F                     u2511:
  3076  037F  2B81               	goto	l1938
  3077  0380                     u2510:
  3078  0380                     l1936:
  3079  0380  1424               	bsf	___fldiv@b,0
  3080  0381                     l1938:
  3081  0381  3001               	movlw	1
  3082  0382  00F2               	movwf	??___fldiv
  3083  0383                     u2525:
  3084  0383  1003               	clrc
  3085  0384  0DAF               	rlf	___fldiv@grs,f
  3086  0385  0DB0               	rlf	___fldiv@grs+1,f
  3087  0386  0DB1               	rlf	___fldiv@grs+2,f
  3088  0387  0DB2               	rlf	___fldiv@grs+3,f
  3089  0388  0BF2               	decfsz	??___fldiv,f
  3090  0389  2B83               	goto	u2525
  3091  038A                     l1940:
  3092  038A  0823               	movf	___fldiv@a+3,w
  3093  038B  022B               	subwf	___fldiv@rem+3,w
  3094  038C  1D03               	skipz
  3095  038D  2B98               	goto	u2535
  3096  038E  0822               	movf	___fldiv@a+2,w
  3097  038F  022A               	subwf	___fldiv@rem+2,w
  3098  0390  1D03               	skipz
  3099  0391  2B98               	goto	u2535
  3100  0392  0821               	movf	___fldiv@a+1,w
  3101  0393  0229               	subwf	___fldiv@rem+1,w
  3102  0394  1D03               	skipz
  3103  0395  2B98               	goto	u2535
  3104  0396  0820               	movf	___fldiv@a,w
  3105  0397  0228               	subwf	___fldiv@rem,w
  3106  0398                     u2535:
  3107  0398  1C03               	skipc
  3108  0399  2B9B               	goto	u2531
  3109  039A  2B9C               	goto	u2530
  3110  039B                     u2531:
  3111  039B  2BAB               	goto	l1946
  3112  039C                     u2530:
  3113  039C                     l1942:
  3114  039C  1732               	bsf	___fldiv@grs+3,6
  3115  039D                     l1944:
  3116  039D  0820               	movf	___fldiv@a,w
  3117  039E  02A8               	subwf	___fldiv@rem,f
  3118  039F  0821               	movf	___fldiv@a+1,w
  3119  03A0  1C03               	skipc
  3120  03A1  0F21               	incfsz	___fldiv@a+1,w
  3121  03A2  02A9               	subwf	___fldiv@rem+1,f
  3122  03A3  0822               	movf	___fldiv@a+2,w
  3123  03A4  1C03               	skipc
  3124  03A5  0F22               	incfsz	___fldiv@a+2,w
  3125  03A6  02AA               	subwf	___fldiv@rem+2,f
  3126  03A7  0823               	movf	___fldiv@a+3,w
  3127  03A8  1C03               	skipc
  3128  03A9  0F23               	incfsz	___fldiv@a+3,w
  3129  03AA  02AB               	subwf	___fldiv@rem+3,f
  3130  03AB                     l1946:
  3131  03AB  3001               	movlw	1
  3132  03AC  00F2               	movwf	??___fldiv
  3133  03AD  0872               	movf	??___fldiv,w
  3134  03AE  07B4               	addwf	___fldiv@aexp,f
  3135  03AF                     l1948:
  3136  03AF  301A               	movlw	26
  3137  03B0  0234               	subwf	___fldiv@aexp,w
  3138  03B1  1C03               	skipc
  3139  03B2  2BB4               	goto	u2541
  3140  03B3  2BB5               	goto	u2540
  3141  03B4                     u2541:
  3142  03B4  2B65               	goto	l1930
  3143  03B5                     u2540:
  3144  03B5                     l1950:
  3145  03B5  082B               	movf	___fldiv@rem+3,w
  3146  03B6  042A               	iorwf	___fldiv@rem+2,w
  3147  03B7  0429               	iorwf	___fldiv@rem+1,w
  3148  03B8  0428               	iorwf	___fldiv@rem,w
  3149  03B9  1903               	skipnz
  3150  03BA  2BBC               	goto	u2551
  3151  03BB  2BBD               	goto	u2550
  3152  03BC                     u2551:
  3153  03BC  2BDC               	goto	l1964
  3154  03BD                     u2550:
  3155  03BD                     l1952:
  3156  03BD  142F               	bsf	___fldiv@grs,0
  3157  03BE  2BDC               	goto	l1964
  3158  03BF                     l1954:
  3159  03BF  3001               	movlw	1
  3160  03C0  00F2               	movwf	??___fldiv
  3161  03C1                     u2565:
  3162  03C1  1003               	clrc
  3163  03C2  0DA4               	rlf	___fldiv@b,f
  3164  03C3  0DA5               	rlf	___fldiv@b+1,f
  3165  03C4  0DA6               	rlf	___fldiv@b+2,f
  3166  03C5  0DA7               	rlf	___fldiv@b+3,f
  3167  03C6  0BF2               	decfsz	??___fldiv,f
  3168  03C7  2BC1               	goto	u2565
  3169  03C8                     l1956:
  3170  03C8  1FB2               	btfss	___fldiv@grs+3,7
  3171  03C9  2BCB               	goto	u2571
  3172  03CA  2BCC               	goto	u2570
  3173  03CB                     u2571:
  3174  03CB  2BCD               	goto	l1960
  3175  03CC                     u2570:
  3176  03CC                     l1958:
  3177  03CC  1424               	bsf	___fldiv@b,0
  3178  03CD                     l1960:
  3179  03CD  3001               	movlw	1
  3180  03CE  00F2               	movwf	??___fldiv
  3181  03CF                     u2585:
  3182  03CF  1003               	clrc
  3183  03D0  0DAF               	rlf	___fldiv@grs,f
  3184  03D1  0DB0               	rlf	___fldiv@grs+1,f
  3185  03D2  0DB1               	rlf	___fldiv@grs+2,f
  3186  03D3  0DB2               	rlf	___fldiv@grs+3,f
  3187  03D4  0BF2               	decfsz	??___fldiv,f
  3188  03D5  2BCF               	goto	u2585
  3189  03D6                     l1962:
  3190  03D6  30FF               	movlw	255
  3191  03D7  07AD               	addwf	___fldiv@new_exp,f
  3192  03D8  1803               	skipnc
  3193  03D9  0AAE               	incf	___fldiv@new_exp+1,f
  3194  03DA  30FF               	movlw	255
  3195  03DB  07AE               	addwf	___fldiv@new_exp+1,f
  3196  03DC                     l1964:
  3197  03DC  1FA6               	btfss	___fldiv@b+2,7
  3198  03DD  2BDF               	goto	u2591
  3199  03DE  2BE0               	goto	u2590
  3200  03DF                     u2591:
  3201  03DF  2BBF               	goto	l1954
  3202  03E0                     u2590:
  3203  03E0                     l1966:
  3204  03E0  01B4               	clrf	___fldiv@aexp
  3205  03E1                     l1968:
  3206  03E1  1FB2               	btfss	___fldiv@grs+3,7
  3207  03E2  2BE4               	goto	u2601
  3208  03E3  2BE5               	goto	u2600
  3209  03E4                     u2601:
  3210  03E4  2C01               	goto	l1976
  3211  03E5                     u2600:
  3212  03E5                     l1970:
  3213  03E5  30FF               	movlw	255
  3214  03E6  052F               	andwf	___fldiv@grs,w
  3215  03E7  00F2               	movwf	??___fldiv
  3216  03E8  30FF               	movlw	255
  3217  03E9  0530               	andwf	___fldiv@grs+1,w
  3218  03EA  00F3               	movwf	??___fldiv+1
  3219  03EB  30FF               	movlw	255
  3220  03EC  0531               	andwf	___fldiv@grs+2,w
  3221  03ED  00F4               	movwf	??___fldiv+2
  3222  03EE  307F               	movlw	127
  3223  03EF  0532               	andwf	___fldiv@grs+3,w
  3224  03F0  00F5               	movwf	??___fldiv+3
  3225  03F1  0875               	movf	??___fldiv+3,w
  3226  03F2  0474               	iorwf	??___fldiv+2,w
  3227  03F3  0473               	iorwf	??___fldiv+1,w
  3228  03F4  0472               	iorwf	??___fldiv,w
  3229  03F5  1903               	skipnz
  3230  03F6  2BF8               	goto	u2611
  3231  03F7  2BF9               	goto	u2610
  3232  03F8                     u2611:
  3233  03F8  2BFC               	goto	l565
  3234  03F9                     u2610:
  3235  03F9                     l1972:
  3236  03F9  01B4               	clrf	___fldiv@aexp
  3237  03FA  0AB4               	incf	___fldiv@aexp,f
  3238  03FB  2C01               	goto	l1976
  3239  03FC                     l565:
  3240  03FC  1C24               	btfss	___fldiv@b,0
  3241  03FD  2BFF               	goto	u2621
  3242  03FE  2C00               	goto	u2620
  3243  03FF                     u2621:
  3244  03FF  2C01               	goto	l1976
  3245  0400                     u2620:
  3246  0400  2BF9               	goto	l1972
  3247  0401                     l1976:
  3248  0401  0834               	movf	___fldiv@aexp,w
  3249  0402  1903               	btfsc	3,2
  3250  0403  2C05               	goto	u2631
  3251  0404  2C06               	goto	u2630
  3252  0405                     u2631:
  3253  0405  2C37               	goto	l1986
  3254  0406                     u2630:
  3255  0406                     l1978:
  3256  0406  3001               	movlw	1
  3257  0407  07A4               	addwf	___fldiv@b,f
  3258  0408  3000               	movlw	0
  3259  0409  1803               	skipnc
  3260  040A  3001               	movlw	1
  3261  040B  07A5               	addwf	___fldiv@b+1,f
  3262  040C  3000               	movlw	0
  3263  040D  1803               	skipnc
  3264  040E  3001               	movlw	1
  3265  040F  07A6               	addwf	___fldiv@b+2,f
  3266  0410  3000               	movlw	0
  3267  0411  1803               	skipnc
  3268  0412  3001               	movlw	1
  3269  0413  07A7               	addwf	___fldiv@b+3,f
  3270  0414                     l1980:
  3271  0414  1C27               	btfss	___fldiv@b+3,0
  3272  0415  2C17               	goto	u2641
  3273  0416  2C18               	goto	u2640
  3274  0417                     u2641:
  3275  0417  2C37               	goto	l1986
  3276  0418                     u2640:
  3277  0418                     l1982:
  3278  0418  0824               	movf	___fldiv@b,w
  3279  0419  00F2               	movwf	??___fldiv
  3280  041A  0825               	movf	___fldiv@b+1,w
  3281  041B  00F3               	movwf	??___fldiv+1
  3282  041C  0826               	movf	___fldiv@b+2,w
  3283  041D  00F4               	movwf	??___fldiv+2
  3284  041E  0827               	movf	___fldiv@b+3,w
  3285  041F  00F5               	movwf	??___fldiv+3
  3286  0420  3001               	movlw	1
  3287  0421  00F6               	movwf	??___fldiv+4
  3288  0422                     u2655:
  3289  0422  0D75               	rlf	??___fldiv+3,w
  3290  0423  0CF5               	rrf	??___fldiv+3,f
  3291  0424  0CF4               	rrf	??___fldiv+2,f
  3292  0425  0CF3               	rrf	??___fldiv+1,f
  3293  0426  0CF2               	rrf	??___fldiv,f
  3294  0427                     u2650:
  3295  0427  0BF6               	decfsz	??___fldiv+4,f
  3296  0428  2C22               	goto	u2655
  3297  0429  0875               	movf	??___fldiv+3,w
  3298  042A  00A7               	movwf	___fldiv@b+3
  3299  042B  0874               	movf	??___fldiv+2,w
  3300  042C  00A6               	movwf	___fldiv@b+2
  3301  042D  0873               	movf	??___fldiv+1,w
  3302  042E  00A5               	movwf	___fldiv@b+1
  3303  042F  0872               	movf	??___fldiv,w
  3304  0430  00A4               	movwf	___fldiv@b
  3305  0431                     l1984:
  3306  0431  3001               	movlw	1
  3307  0432  07AD               	addwf	___fldiv@new_exp,f
  3308  0433  1803               	skipnc
  3309  0434  0AAE               	incf	___fldiv@new_exp+1,f
  3310  0435  3000               	movlw	0
  3311  0436  07AE               	addwf	___fldiv@new_exp+1,f
  3312  0437                     l1986:
  3313  0437  082E               	movf	___fldiv@new_exp+1,w
  3314  0438  3A80               	xorlw	128
  3315  0439  00FF               	movwf	btemp+1
  3316  043A  3080               	movlw	128
  3317  043B  027F               	subwf	btemp+1,w
  3318  043C  1D03               	skipz
  3319  043D  2C40               	goto	u2665
  3320  043E  30FF               	movlw	255
  3321  043F  022D               	subwf	___fldiv@new_exp,w
  3322  0440                     u2665:
  3323  0440  1C03               	skipc
  3324  0441  2C43               	goto	u2661
  3325  0442  2C44               	goto	u2660
  3326  0443                     u2661:
  3327  0443  2C52               	goto	l1990
  3328  0444                     u2660:
  3329  0444                     l1988:
  3330  0444  30FF               	movlw	255
  3331  0445  1283               	bcf	3,5	;RP0=0, select bank0
  3332  0446  1303               	bcf	3,6	;RP1=0, select bank0
  3333  0447  00AD               	movwf	___fldiv@new_exp
  3334  0448  3000               	movlw	0
  3335  0449  00AE               	movwf	___fldiv@new_exp+1
  3336  044A  3000               	movlw	0
  3337  044B  00A7               	movwf	___fldiv@b+3
  3338  044C  3000               	movlw	0
  3339  044D  00A6               	movwf	___fldiv@b+2
  3340  044E  3000               	movlw	0
  3341  044F  00A5               	movwf	___fldiv@b+1
  3342  0450  3000               	movlw	0
  3343  0451  00A4               	movwf	___fldiv@b
  3344  0452                     l1990:
  3345  0452  1283               	bcf	3,5	;RP0=0, select bank0
  3346  0453  1303               	bcf	3,6	;RP1=0, select bank0
  3347  0454  082E               	movf	___fldiv@new_exp+1,w
  3348  0455  3A80               	xorlw	128
  3349  0456  00FF               	movwf	btemp+1
  3350  0457  3080               	movlw	128
  3351  0458  027F               	subwf	btemp+1,w
  3352  0459  1D03               	skipz
  3353  045A  2C5D               	goto	u2675
  3354  045B  3001               	movlw	1
  3355  045C  022D               	subwf	___fldiv@new_exp,w
  3356  045D                     u2675:
  3357  045D  1803               	skipnc
  3358  045E  2C60               	goto	u2671
  3359  045F  2C61               	goto	u2670
  3360  0460                     u2671:
  3361  0460  2C6E               	goto	l571
  3362  0461                     u2670:
  3363  0461                     l1992:
  3364  0461  1283               	bcf	3,5	;RP0=0, select bank0
  3365  0462  1303               	bcf	3,6	;RP1=0, select bank0
  3366  0463  01AD               	clrf	___fldiv@new_exp
  3367  0464  01AE               	clrf	___fldiv@new_exp+1
  3368  0465                     l1994:
  3369  0465  3000               	movlw	0
  3370  0466  00A7               	movwf	___fldiv@b+3
  3371  0467  3000               	movlw	0
  3372  0468  00A6               	movwf	___fldiv@b+2
  3373  0469  3000               	movlw	0
  3374  046A  00A5               	movwf	___fldiv@b+1
  3375  046B  3000               	movlw	0
  3376  046C  00A4               	movwf	___fldiv@b
  3377  046D                     l1996:
  3378  046D  01AC               	clrf	___fldiv@sign
  3379  046E                     l571:
  3380  046E  1283               	bcf	3,5	;RP0=0, select bank0
  3381  046F  1303               	bcf	3,6	;RP1=0, select bank0
  3382  0470  082D               	movf	___fldiv@new_exp,w
  3383  0471  00F2               	movwf	??___fldiv
  3384  0472  0872               	movf	??___fldiv,w
  3385  0473  00B3               	movwf	___fldiv@bexp
  3386  0474                     l1998:
  3387  0474  1C33               	btfss	___fldiv@bexp,0
  3388  0475  2C77               	goto	u2681
  3389  0476  2C78               	goto	u2680
  3390  0477                     u2681:
  3391  0477  2C7A               	goto	l2002
  3392  0478                     u2680:
  3393  0478                     l2000:
  3394  0478  17A6               	bsf	___fldiv@b+2,7
  3395  0479  2C7E               	goto	l573
  3396  047A                     l2002:
  3397  047A  307F               	movlw	127
  3398  047B  00F2               	movwf	??___fldiv
  3399  047C  0872               	movf	??___fldiv,w
  3400  047D  05A6               	andwf	___fldiv@b+2,f
  3401  047E                     l573:
  3402  047E  0833               	movf	___fldiv@bexp,w
  3403  047F  00F2               	movwf	??___fldiv
  3404  0480  1003               	clrc
  3405  0481  0C72               	rrf	??___fldiv,w
  3406  0482  00F3               	movwf	??___fldiv+1
  3407  0483  0873               	movf	??___fldiv+1,w
  3408  0484  00A7               	movwf	___fldiv@b+3
  3409  0485  082C               	movf	___fldiv@sign,w
  3410  0486  00F2               	movwf	??___fldiv
  3411  0487  0872               	movf	??___fldiv,w
  3412  0488  04A7               	iorwf	___fldiv@b+3,f
  3413  0489  2B22               	goto	l1910
  3414  048A                     l551:
  3415  048A  0008               	return
  3416  048B                     __end_of___fldiv:
  3417                           
  3418                           	psect	text10
  3419  0716                     __ptext10:	
  3420 ;; *************** function _isr *****************
  3421 ;; Defined at:
  3422 ;;		line 64 in file "C:/Users/Andy Bonilla/Documents/GitHub/ED2/Proyecto1_ED2/PIC_sensores.X/main_sensores.c"
  3423 ;; Parameters:    Size  Location     Type
  3424 ;;		None
  3425 ;; Auto vars:     Size  Location     Type
  3426 ;;		None
  3427 ;; Return value:  Size  Location     Type
  3428 ;;                  1    wreg      void 
  3429 ;; Registers used:
  3430 ;;		None
  3431 ;; Tracked objects:
  3432 ;;		On entry : 0/0
  3433 ;;		On exit  : 0/0
  3434 ;;		Unchanged: 0/0
  3435 ;; Data sizes:     COMMON   BANK0   BANK1   BANK3   BANK2
  3436 ;;      Params:         0       0       0       0       0
  3437 ;;      Locals:         0       0       0       0       0
  3438 ;;      Temps:          2       0       0       0       0
  3439 ;;      Totals:         2       0       0       0       0
  3440 ;;Total ram usage:        2 bytes
  3441 ;; Hardware stack levels used: 1
  3442 ;; This function calls:
  3443 ;;		Nothing
  3444 ;; This function is called by:
  3445 ;;		Interrupt level 1
  3446 ;; This function uses a non-reentrant model
  3447 ;;
  3448                           
  3449                           
  3450                           ;psect for function _isr
  3451  0716                     _isr:
  3452  0716                     i1l67:
  3453  0716  0871               	movf	??_isr+1,w
  3454  0717  008A               	movwf	10
  3455  0718  0E70               	swapf	??_isr,w
  3456  0719  0083               	movwf	3
  3457  071A  0EFE               	swapf	btemp,f
  3458  071B  0E7E               	swapf	btemp,w
  3459  071C  0009               	retfie
  3460  071D                     __end_of_isr:
  3461  007E                     btemp	set	126	;btemp
  3462  007E                     wtemp0	set	126
  3463                           
  3464                           	psect	intentry
  3465  0004                     __pintentry:	
  3466                           ;incstack = 0
  3467                           ; Regs used in _isr: []
  3468                           
  3469  0004                     interrupt_function:
  3470  007E                     saved_w	set	btemp
  3471  0004  00FE               	movwf	btemp
  3472  0005  0E03               	swapf	3,w
  3473  0006  00F0               	movwf	??_isr
  3474  0007  080A               	movf	10,w
  3475  0008  00F1               	movwf	??_isr+1
  3476  0009  120A  118A  2F16   	ljmp	_isr
  3477                           
  3478                           	psect	config
  3479                           
  3480                           ;Config register CONFIG1 @ 0x2007
  3481                           ;	Oscillator Selection bits
  3482                           ;	FOSC = INTRC_NOCLKOUT, INTOSCIO oscillator: I/O function on RA6/OSC2/CLKOUT pin, I/O f
      +                          unction on RA7/OSC1/CLKIN
  3483                           ;	Watchdog Timer Enable bit
  3484                           ;	WDTE = OFF, WDT disabled and can be enabled by SWDTEN bit of the WDTCON register
  3485                           ;	Power-up Timer Enable bit
  3486                           ;	PWRTE = OFF, PWRT disabled
  3487                           ;	RE3/MCLR pin function select bit
  3488                           ;	MCLRE = OFF, RE3/MCLR pin function is digital input, MCLR internally tied to VDD
  3489                           ;	Code Protection bit
  3490                           ;	CP = OFF, Program memory code protection is disabled
  3491                           ;	Data Code Protection bit
  3492                           ;	CPD = OFF, Data memory code protection is disabled
  3493                           ;	Brown Out Reset Selection bits
  3494                           ;	BOREN = OFF, BOR disabled
  3495                           ;	Internal External Switchover bit
  3496                           ;	IESO = OFF, Internal/External Switchover mode is disabled
  3497                           ;	Fail-Safe Clock Monitor Enabled bit
  3498                           ;	FCMEN = OFF, Fail-Safe Clock Monitor is disabled
  3499                           ;	Low Voltage Programming Enable bit
  3500                           ;	LVP = OFF, RB3 pin has digital I/O, HV on MCLR must be used for programming
  3501                           ;	In-Circuit Debugger Mode bit
  3502                           ;	DEBUG = 0x1, unprogrammed default
  3503  2007                     	org	8199
  3504  2007  20D4               	dw	8404
  3505                           
  3506                           ;Config register CONFIG2 @ 0x2008
  3507                           ;	Brown-out Reset Selection bit
  3508                           ;	BOR4V = BOR40V, Brown-out Reset set to 4.0V
  3509                           ;	Flash Program Memory Self Write Enable bits
  3510                           ;	WRT = OFF, Write protection off
  3511  2008                     	org	8200
  3512  2008  3FFF               	dw	16383

Data Sizes:
    Strings     0
    Constant    0
    Data        0
    BSS         17
    Persistent  0
    Stack       0

Auto Spaces:
    Space          Size  Autos    Used
    COMMON           14      8      11
    BANK0            80     34      48
    BANK1            80      0       0
    BANK3            96      0       0
    BANK2            96      0       0

Pointer List with Targets:

    None.

Critical Paths under _main in COMMON

    _main->___fltol
    _toggle_adc->___xxtofl
    ___fladd->___xxtofl
    _setup->_osc_config

Critical Paths under _isr in COMMON

    None.

Critical Paths under _main in BANK0

    _main->_toggle_adc
    _toggle_adc->___fladd
    ___fladd->___xxtofl

Critical Paths under _isr in BANK0

    None.

Critical Paths under _main in BANK1

    None.

Critical Paths under _isr in BANK1

    None.

Critical Paths under _main in BANK3

    None.

Critical Paths under _isr in BANK3

    None.

Critical Paths under _main in BANK2

    None.

Critical Paths under _isr in BANK2

    None.

Call Graph Tables:

 ---------------------------------------------------------------------------------
 (Depth) Function   	        Calls       Base Space   Used Autos Params    Refs
 ---------------------------------------------------------------------------------
 (0) _main                                                 0     0      0    5410
                            ___fldiv
                            ___fltol
                        _infrarrojos
                              _setup
                         _toggle_adc
 ---------------------------------------------------------------------------------
 (1) _toggle_adc                                           4     4      0    2918
                                             30 BANK0      4     4      0
                            ___fladd
                           ___xxtofl
 ---------------------------------------------------------------------------------
 (2) ___xxtofl                                            14    10      4     656
                                              2 COMMON     4     0      4
                                              0 BANK0     10    10      0
 ---------------------------------------------------------------------------------
 (2) ___fladd                                             20    12      8    2262
                                             10 BANK0     20    12      8
                           ___xxtofl (ARG)
 ---------------------------------------------------------------------------------
 (1) _setup                                                0     0      0      22
                         _ADC_config
                         _osc_config
 ---------------------------------------------------------------------------------
 (2) _osc_config                                           3     3      0      22
                                              2 COMMON     3     3      0
 ---------------------------------------------------------------------------------
 (2) _ADC_config                                           1     1      0       0
                                              2 COMMON     1     1      0
 ---------------------------------------------------------------------------------
 (1) _infrarrojos                                          2     2      0       0
                                              2 COMMON     2     2      0
 ---------------------------------------------------------------------------------
 (1) ___fltol                                             11     7      4     427
                                              2 COMMON     6     2      4
                                              0 BANK0      5     5      0
 ---------------------------------------------------------------------------------
 (1) ___fldiv                                             26    18      8    2043
                                              2 COMMON     5     5      0
                                              0 BANK0     21    13      8
 ---------------------------------------------------------------------------------
 Estimated maximum stack depth 2
 ---------------------------------------------------------------------------------
 (Depth) Function   	        Calls       Base Space   Used Autos Params    Refs
 ---------------------------------------------------------------------------------
 (3) _isr                                                  2     2      0       0
                                              0 COMMON     2     2      0
 ---------------------------------------------------------------------------------
 Estimated maximum stack depth 3
 ---------------------------------------------------------------------------------

 Call Graph Graphs:

 _main (ROOT)
   ___fldiv
   ___fltol
   _infrarrojos
   _setup
     _ADC_config
     _osc_config
   _toggle_adc
     ___fladd
       ___xxtofl (ARG)
     ___xxtofl

 _isr (ROOT)

 Address spaces:
Name               Size   Autos  Total    Cost      Usage
BITCOMMON            E      0       0       0        0.0%
EEDATA             100      0       0       0        0.0%
NULL                 0      0       0       0        0.0%
CODE                 0      0       0       0        0.0%
COMMON               E      8       B       1       78.6%
BITSFR0              0      0       0       1        0.0%
SFR0                 0      0       0       1        0.0%
BITSFR1              0      0       0       2        0.0%
SFR1                 0      0       0       2        0.0%
STACK                0      0       0       2        0.0%
ABS                  0      0      3B       3        0.0%
BITBANK0            50      0       0       4        0.0%
BITSFR3              0      0       0       4        0.0%
SFR3                 0      0       0       4        0.0%
BANK0               50     22      30       5       60.0%
BITSFR2              0      0       0       5        0.0%
SFR2                 0      0       0       5        0.0%
BITBANK1            50      0       0       6        0.0%
BANK1               50      0       0       7        0.0%
BITBANK3            60      0       0       8        0.0%
BANK3               60      0       0       9        0.0%
BITBANK2            60      0       0      10        0.0%
BANK2               60      0       0      11        0.0%
DATA                 0      0      3B      12        0.0%


Microchip Technology PIC Macro Assembler V2.32 build 20210201212658 
Symbol Table                                                                                   Sun Aug 22 17:27:23 2021

           ___fldiv@aexp 0034             ___fldiv@bexp 0033             ___fldiv@sign 002C  
                     l81 067D                       l83 068C                       l91 062D  
                     l85 069B                       l78 0701                       l87 06AA  
                    l105 06E1                      l114 0715                      l514 01FB  
                    l506 02AD                      l524 0241                      l518 021F  
                    l551 048A                      l535 02A1                      l527 027F  
                    l536 02AD                      l393 05AD                      l633 04AF  
                    l386 05C2                      l571 046E                      l635 0546  
                    l396 05C2                      l573 047E                      l565 03FC  
                    l549 030A                      l493 0089                      l646 0510  
                    l647 051C                      l639 04F4                      l497 0130  
                    l499 0107                      _isr 0716      __size_of_ADC_config 0014  
           ___fltol@exp1 0077                     l2000 0478                     l2002 047A  
                   l2010 0633                     l1300 0060                     l2012 0638  
                   l1310 0071                     l1302 0061                     l2014 063D  
                   l2040 06D3                     l1400 0195                     l1320 008F  
                   l1312 0076                     l1304 0067                     l2016 065E  
                   l2008 062E                     l1250 06BB                     l1242 06AC  
                   l1410 0203                     l1402 01D3                     l1330 00A3  
                   l1322 0093                     l1314 007E                     l1306 006B  
                   l1252 06BD                     l1244 06AD                     l1420 021E  
                   l1412 0208                     l1404 01D9                     l1340 00B7  
                   l1332 00A7                     l1324 0097                     l1316 007F  
                   l1308 006C                     l1270 0707                     l1254 06C3  
                   l1246 06B3                     l1262 06CB                     l1422 0223  
                   l1430 022F                     l1406 01DE                     l1350 00CB  
                   l1342 00BB                     l1334 00AB                     l1326 009B  
                   l1318 0081                     l1272 070D                     l1256 06C5  
                   l1248 06B5                     l1520 06EA                     l1424 0226  
                   l1416 0211                     l1408 01ED                     l1432 0233  
                   l1360 010B                     l1352 00CF                     l1344 00BF  
                   l1336 00AF                     l1328 009F                     l1280 0033  
                   l1274 0712                     l1258 06C9                     l1530 06F6  
                   l1522 06EB                     l1514 06E2                     l1450 027B  
                   l1442 0246                     l1434 0234                     l1426 0228  
                   l1418 021A                     l1370 0124                     l1362 0114  
                   l1346 00C3                     l1338 00B3                     l1354 00D3  
                   l1290 004A                     l1282 0037                     l1268 0702  
                   l1532 06FC                     l1524 06EC                     l1516 06E6  
                   l1460 0297                     l1452 0284                     l1444 024B  
                   l1436 0238                     l1428 022D                     l1380 0142  
                   l1364 0116                     l1372 0128                     l1356 00D4  
                   l1348 00C7                     l1292 004B                     l1284 0038  
                   l1276 0026                     l1550 0684                     l1542 0673  
                   l1526 06ED                     l1518 06E7                     l1462 029B  
                   l1454 0289                     l1446 0259                     l1438 023E  
                   l1390 016C                     l1382 0159                     l1374 0134  
                   l1366 011A                     l1358 00EB                     l1286 003D  
                   l1294 004D                     l1278 002D                     l1560 0697  
                   l1552 0688                     l1544 0679                     l1528 06EE  
                   l1464 029D                     l1456 0291                     l1448 025D  
                   l1392 0170                     l1384 015D                     l1376 0139  
                   l1368 011B                     l1296 0055                     l1288 0042  
                   l1800 04EB                     l1562 069F                     l1554 0690  
                   l1546 0681                     l1466 02A8                     l1458 0296  
                   l1394 0171                     l1386 0161                     l1298 005A  
                   l1810 051E                     l1802 04FB                     l1900 02FF  
                   l1564 06A1                     l1556 0692                     l1548 0683  
                   l1468 02AC                     l1396 017A                     l1388 016A  
                   l1812 0534                     l1804 0506                     l1910 0322  
                   l1902 0300                     l1830 0547                     l1566 06A2  
                   l1558 0693                     l1398 017F                     l1814 0539  
                   l1806 050A                     l1822 05C3                     l1920 0339  
                   l1904 0302                     l1840 0573                     l1832 0554  
                   l1816 053D                     l1808 0514                     l1824 05C9  
                   l1930 0365                     l1922 034B                     l1906 0312  
                   l1914 032B                     l1842 057B                     l1818 053E  
                   l1826 0620                     l1932 036A                     l1940 038A  
                   l1924 0353                     l1916 0330                     l1908 031E  
                   l1860 05A2                     l1852 0589                     l1844 057D  
                   l1836 055D                     l1780 0493                     l1828 062A  
                   l1950 03B5                     l1942 039C                     l1934 037C  
                   l1926 035B                     l1870 02BB                     l1862 05B2  
                   l1846 0581                     l1854 059B                     l1838 0572  
                   l1790 04C0                     l1782 0497                     l1960 03CD  
                   l1952 03BD                     l1944 039D                     l1936 0380  
                   l1928 0363                     l1880 02D2                     l1872 02BF  
                   l1864 05B7                     l1792 04C5                     l1784 04A7  
                   l1970 03E5                     l1962 03D6                     l1954 03BF  
                   l1946 03AB                     l1938 0381                     l1890 02E8  
                   l1882 02D3                     l1874 02C0                     l1866 02AE  
                   l1794 04D2                     l1786 04B7                     l1778 048E  
                   l1980 0414                     l1972 03F9                     l1956 03C8  
                   l1964 03DC                     l1948 03AF                     l1892 02EC  
                   l1876 02C5                     l1884 02D5                     l1868 02B5  
                   l1796 04D9                     l1990 0452                     l1982 0418  
                   l1966 03E0                     l1958 03CC                     l1894 02ED  
                   l1886 02DD                     l1878 02CA                     l1798 04DD  
                   l1992 0461                     l1984 0431                     l1976 0401  
                   l1968 03E1                     l1896 02F2                     l1888 02E2  
                   l1994 0465                     l1978 0406                     l1986 0437  
                   l1898 02F7                     l1996 046D                     l1988 0444  
                   l1998 0474                     ?_isr 0070                     u1100 0042  
                   u1101 0041                     u1110 0060                     u1111 005F  
                   u1200 010B                     u1120 006B                     u1201 010A  
                   u1121 006A                     u1210 011A                     u1130 0071  
                   u1211 0119                     u1131 0070                     u1140 0076  
                   u1141 0075                     u1310 0195                     u1230 0130  
                   u1150 008F                     u1311 0194                     u1231 012F  
                   u1151 008E                     u1400 022D                     u1240 0134  
                   u1160 0093                     u1080 0037                     u1401 022C  
                   u1321 01AC                     u1313 0191                     u1305 0173  
                   u1241 0133                     u1225 011D                     u1161 0092  
                   u1081 0036                     u1410 0233                     u1330 01C0  
                   u1322 01AD                     u1250 0139                     u1170 00EB  
                   u1090 003D                     u2210 04FA                     u1411 0232  
                   u1331 01C1                     u1323 01B2                     u1251 0138  
                   u1171 00EA                     u1091 003C                     u2211 04F9  
                   u2300 0554                     u1500 0289                     u1420 0238  
                   u1340 01DE                     u1332 01C6                     u1324 01B3  
                   u1180 00F6                     u2301 0553                     u1501 0288  
                   u1421 0237                     u1341 01DD                     u1333 01C7  
                   u1325 01B8                     u1261 014B                     u1181 00F4  
                   u2205 04EC                     u2310 056B                     u1510 0296  
                   u1430 023E                     u1350 0203                     u1326 01B9  
                   u1270 015D                     u1262 0152                     u1190 00F7  
                   u2230 050A                     u2150 0493                     u1511 0295  
                   u1431 023D                     u1351 0202                     u1271 015C  
                   u1263 0159                     u1175 00E7                     u2231 0509  
                   u2151 0492                     u2400 02BF                     u2320 0581  
                   u1520 029B                     u1440 0245                     u1360 0208  
                   u1280 0161                     u2240 0510                     u2160 0497  
                   u2401 02BE                     u2321 0580                     u1521 029A  
                   u1441 0244                     u1361 0207                     u1281 0160  
                   u2241 050F                     u2225 04FF                     u2161 0496  
                   u2410 02C5                     u2330 0588                     u1530 02AC  
                   u1450 024B                     u1290 0170                     u2250 0514  
                   u2170 04B7                     u2411 02C4                     u2331 0587  
                   u2315 0566                     u1531 02AB                     u1451 024A  
                   u1291 016F                     u2251 0513                     u2171 04B6  
                   u2420 02CA                     u1700 0681                     u1460 025D  
                   u1380 021E                     u2260 0529                     u2421 02C9  
                   u1701 0680                     u1461 025C                     u1381 021D  
                   u2510 0380                     u2430 02EC                     u2350 059A  
                   u1710 0688                     u1470 026C                     u1390 0223  
                   u2270 0539                     u2190 04D8                     u2511 037F  
                   u2431 02EB                     u2351 0599                     u1711 0687  
                   u1391 0222                     u1375 0213                     u2271 0538  
                   u2191 04D7                     u2600 03E5                     u2440 02F2  
                   u2360 05A1                     u1720 0690                     u1480 027B  
                   u2280 053D                     u2601 03E4                     u2505 0375  
                   u2441 02F1                     u2361 05A0                     u2345 058A  
                   u1721 068F                     u1481 027A                     u2281 053C  
                   u2265 0524                     u2185 04CA                     u2610 03F9  
                   u2530 039C                     u2450 02F7                     u1730 0697  
                   u1490 0284                     u2290 05C9                     u2611 03F8  
                   u2531 039B                     u2451 02F6                     u1731 0696  
                   u1491 0283                     u1475 0267                     u2291 05C8  
                   u2620 0400                     u2540 03B5                     u2460 0312  
                   u2380 05B2                     u1740 069F                     u2621 03FF  
                   u2541 03B4                     u2525 0383                     u2461 0311  
                   u2381 05B1                     u1741 069E                     u2630 0406  
                   u2550 03BD                     u2470 0330                     u2390 05B7  
                   u2631 0405                     u2551 03BC                     u2535 0398  
                   u2471 032F                     u2391 05B6                     u2375 05A4  
                   u2640 0418                     u2480 036A                     u2641 0417  
                   u2481 0369                     u2650 0427                     u2570 03CC  
                   u1690 0679                     u2571 03CB                     u1691 0678  
                   u2707 070F                     u2660 0444                     u2661 0443  
                   u2565 03C1                     u2670 0461                     u2590 03E0  
                   u2671 0460                     u2655 0422                     u2591 03DF  
                   u2495 036C                     u2680 0478                     u2681 0477  
                   u2665 0440                     u2585 03CF                     u2675 045D  
                   u2697 0626                     i1l67 0716                     _main 062E  
                   btemp 007E                     start 000C          ___fldiv@new_exp 002D  
         osc_config@freq 0074                    ??_isr 0070             ?_infrarrojos 0070  
          ___fltol@sign1 0076          __end_of___fladd 02AE                    ?_main 0070  
        __end_of___fldiv 048B          __end_of___fltol 05C3                    _ANSEL 0188  
                  _PORTB 0006                    _PORTC 0007                    _PORTD 0008  
                  _PORTE 0009                    _TRISC 0087                    _TRISD 0088  
                  _setup 06E2                    pclath 000A                    status 0003  
                  wtemp0 007E          __initialization 000F             __end_of_main 0673  
                 ??_main 0078                   _ADRESH 001E                   _ADRESL 009E  
      _temperatura_aprox 0042                   ?_setup 0070                   _ANSELH 0189  
       __end_of___xxtofl 0547             ??_ADC_config 0072                ??___fladd 0032  
              ??___fldiv 0072                ??___fltol 0020                   saved_w 007E  
     __end_of_ADC_config 0716             ___xxtofl@arg 0026             ___xxtofl@exp 0025  
           ___xxtofl@val 0072  __end_of__initialization 0022               ___fltol@f1 0072  
         __pcstackCOMMON 0070            __end_of_setup 0702     __size_of_infrarrojos 0038  
                ??_setup 0075               __pbssBANK0 0042               __pmaintext 062E  
             __pintentry 0004                ?___xxtofl 0072                  ___fladd 0026  
                ___fldiv 02AE                  ___fltol 0547                _ANSELbits 0188  
                __ptext1 05C3                  __ptext2 048B                  __ptext3 0026  
                __ptext4 06E2                  __ptext5 06AB                  __ptext6 0702  
                __ptext7 0673                  __ptext8 0547                  __ptext9 02AE  
           __size_of_isr 0007               ??___xxtofl 0020                  _suma_ir 004E  
   end_of_initialization 0022               _osc_config 06AB                _PORTBbits 0006  
              _PORTDbits 0008              ___fladd@grs 003D               _toggle_adc 05C3  
          ___xxtofl@sign 0024                _TRISAbits 0085                _TRISBbits 0086  
              _TRISEbits 0089              ___fldiv@grs 002F              ___fldiv@rem 0028  
    start_initialization 000F              __end_of_isr 071D              ?_osc_config 0070  
          ??_infrarrojos 0072                ___fladd@a 002E                ___fladd@b 002A  
              ___fldiv@a 0020                ___fldiv@b 0024              ?_toggle_adc 0070  
            __pbssCOMMON 0078                ___latbits 0002            __pcstackBANK0 0020  
      __size_of___xxtofl 00BC                 ?___fladd 002A                 ?___fldiv 0020  
               ?___fltol 0072      __size_of_osc_config 0037      __end_of_infrarrojos 06AB  
         __size_of_setup 0020        interrupt_function 0004         _conversion_total 0046  
    __size_of_toggle_adc 006B              _antirrebote 004F               _ADCON0bits 001F  
             _ADCON1bits 009F              _conversion1 004A               _ADC_config 0702  
       __size_of___fladd 0288         __size_of___fldiv 01DD         __size_of___fltol 007C  
            _infrarrojo1 007A              _infrarrojo2 0079              _infrarrojo3 0078  
            _infrarrojos 0673                 ___xxtofl 048B                 __ptext10 0716  
           ??_osc_config 0072            __size_of_main 0045             ??_toggle_adc 003E  
     __end_of_osc_config 06E2                 intlevel1 0000               _OSCCONbits 008F  
            ?_ADC_config 0070       __end_of_toggle_adc 062E            ___fladd@signs 003A  
           ___fladd@aexp 003B             ___fladd@bexp 003C  
