

Microchip MPLAB XC8 Assembler V2.32 build 20210201212658 
                                                                                               Mon Aug 23 19:52:50 2021

Microchip MPLAB XC8 C Compiler v2.32 (Free license) build 20210201212658 Og1 
     1                           	processor	16F887
     2                           	pagewidth 120
     3                           	opt	flic
     4                           	psect	cinit,global,class=CODE,merge=1,delta=2
     5                           	psect	bssCOMMON,global,class=COMMON,space=1,delta=1,noexec
     6                           	psect	bssBANK0,global,class=BANK0,space=1,delta=1,noexec
     7                           	psect	cstackCOMMON,global,class=COMMON,space=1,delta=1,noexec
     8                           	psect	cstackBANK0,global,class=BANK0,space=1,delta=1,noexec
     9                           	psect	maintext,global,class=CODE,split=1,delta=2
    10                           	psect	text1,local,class=CODE,merge=1,delta=2
    11                           	psect	text2,local,class=CODE,merge=1,delta=2
    12                           	psect	text3,local,class=CODE,merge=1,delta=2
    13                           	psect	text4,local,class=CODE,merge=1,delta=2
    14                           	psect	text5,local,class=CODE,merge=1,delta=2
    15                           	psect	text6,local,class=CODE,merge=1,delta=2
    16                           	psect	text7,local,class=CODE,merge=1,delta=2
    17                           	psect	text8,local,class=CODE,merge=1,delta=2
    18                           	psect	text9,local,class=CODE,merge=1,delta=2
    19                           	psect	text10,local,class=CODE,merge=1,delta=2,group=1
    20                           	psect	text11,local,class=CODE,merge=1,delta=2
    21                           	psect	text12,local,class=CODE,merge=1,delta=2
    22                           	psect	text13,local,class=CODE,merge=1,delta=2,group=1
    23                           	psect	text14,local,class=CODE,merge=1,delta=2,group=1
    24                           	psect	text15,local,class=CODE,merge=1,delta=2
    25                           	psect	text16,local,class=CODE,merge=1,delta=2
    26                           	psect	text17,local,class=CODE,merge=1,delta=2
    27                           	psect	text18,local,class=CODE,merge=1,delta=2
    28                           	psect	text19,local,class=CODE,merge=1,delta=2
    29                           	psect	text20,local,class=CODE,merge=1,delta=2
    30                           	psect	text21,local,class=CODE,merge=1,delta=2
    31                           	psect	text22,local,class=CODE,merge=1,delta=2
    32                           	psect	text23,local,class=CODE,merge=1,delta=2
    33                           	psect	text24,local,class=CODE,merge=1,delta=2
    34                           	psect	intentry,global,class=CODE,delta=2
    35                           	psect	config,global,abs,ovrld,class=CONFIG,space=4,delta=2,noexec
    36                           	dabs	1,0x7E,2
    37  0000                     
    38                           ; Version 2.20
    39                           ; Generated 12/02/2020 GMT
    40                           ; 
    41                           ; Copyright © 2020, Microchip Technology Inc. and its subsidiaries ("Microchip")
    42                           ; All rights reserved.
    43                           ; 
    44                           ; This software is developed by Microchip Technology Inc. and its subsidiaries ("Microch
      +                          ip").
    45                           ; 
    46                           ; Redistribution and use in source and binary forms, with or without modification, are
    47                           ; permitted provided that the following conditions are met:
    48                           ; 
    49                           ;     1. Redistributions of source code must retain the above copyright notice, this lis
      +                          t of
    50                           ;        conditions and the following disclaimer.
    51                           ; 
    52                           ;     2. Redistributions in binary form must reproduce the above copyright notice, this 
      +                          list
    53                           ;        of conditions and the following disclaimer in the documentation and/or other
    54                           ;        materials provided with the distribution.
    55                           ; 
    56                           ;     3. Microchip's name may not be used to endorse or promote products derived from th
      +                          is
    57                           ;        software without specific prior written permission.
    58                           ; 
    59                           ; THIS SOFTWARE IS PROVIDED BY MICROCHIP "AS IS" AND ANY EXPRESS OR IMPLIED WARRANTIES,
    60                           ; INCLUDING, BUT NOT LIMITED TO, THE IMPLIED WARRANTIES OF MERCHANTABILITY AND FITNESS F
      +                          OR
    61                           ; PURPOSE ARE DISCLAIMED.  IN NO EVENT SHALL MICROCHIP BE LIABLE FOR ANY DIRECT, INDIREC
      +                          T,
    62                           ; INCIDENTAL, SPECIAL, EXEMPLARY, OR CONSEQUENTIAL DAMAGES (INCLUDING BUT NOT LIMITED TO
    63                           ; PROCUREMENT OF SUBSTITUTE GOODS OR SERVICES; LOSS OF USE, DATA OR PROFITS; OR BUSINESS
    64                           ; INTERRUPTION) HOWSOEVER CAUSED AND ON ANY THEORY OF LIABILITY, WHETHER IN CONTRACT, ST
      +                          RICT
    65                           ; LIABILITY, OR TORT (INCLUDING NEGLIGENCE OR OTHERWISE) ARISING IN ANY WAY OUT OF THE U
      +                          SE OF
    66                           ; THIS SOFTWARE, EVEN IF ADVISED OF THE POSSIBILITY OF SUCH DAMAGE.
    67                           ; 
    68                           ; 
    69                           ; Code-generator required, PIC16F887 Definitions
    70                           ; 
    71                           ; SFR Addresses
    72  0000                     	;# 
    73  0001                     	;# 
    74  0002                     	;# 
    75  0003                     	;# 
    76  0004                     	;# 
    77  0005                     	;# 
    78  0006                     	;# 
    79  0007                     	;# 
    80  0008                     	;# 
    81  0009                     	;# 
    82  000A                     	;# 
    83  000B                     	;# 
    84  000C                     	;# 
    85  000D                     	;# 
    86  000E                     	;# 
    87  000E                     	;# 
    88  000F                     	;# 
    89  0010                     	;# 
    90  0011                     	;# 
    91  0012                     	;# 
    92  0013                     	;# 
    93  0014                     	;# 
    94  0015                     	;# 
    95  0015                     	;# 
    96  0016                     	;# 
    97  0017                     	;# 
    98  0018                     	;# 
    99  0019                     	;# 
   100  001A                     	;# 
   101  001B                     	;# 
   102  001B                     	;# 
   103  001C                     	;# 
   104  001D                     	;# 
   105  001E                     	;# 
   106  001F                     	;# 
   107  0081                     	;# 
   108  0085                     	;# 
   109  0086                     	;# 
   110  0087                     	;# 
   111  0088                     	;# 
   112  0089                     	;# 
   113  008C                     	;# 
   114  008D                     	;# 
   115  008E                     	;# 
   116  008F                     	;# 
   117  0090                     	;# 
   118  0091                     	;# 
   119  0092                     	;# 
   120  0093                     	;# 
   121  0093                     	;# 
   122  0093                     	;# 
   123  0094                     	;# 
   124  0095                     	;# 
   125  0096                     	;# 
   126  0097                     	;# 
   127  0098                     	;# 
   128  0099                     	;# 
   129  009A                     	;# 
   130  009B                     	;# 
   131  009C                     	;# 
   132  009D                     	;# 
   133  009E                     	;# 
   134  009F                     	;# 
   135  0105                     	;# 
   136  0107                     	;# 
   137  0108                     	;# 
   138  0109                     	;# 
   139  010C                     	;# 
   140  010C                     	;# 
   141  010D                     	;# 
   142  010E                     	;# 
   143  010F                     	;# 
   144  0185                     	;# 
   145  0187                     	;# 
   146  0188                     	;# 
   147  0189                     	;# 
   148  018C                     	;# 
   149  018D                     	;# 
   150  0000                     	;# 
   151  0001                     	;# 
   152  0002                     	;# 
   153  0003                     	;# 
   154  0004                     	;# 
   155  0005                     	;# 
   156  0006                     	;# 
   157  0007                     	;# 
   158  0008                     	;# 
   159  0009                     	;# 
   160  000A                     	;# 
   161  000B                     	;# 
   162  000C                     	;# 
   163  000D                     	;# 
   164  000E                     	;# 
   165  000E                     	;# 
   166  000F                     	;# 
   167  0010                     	;# 
   168  0011                     	;# 
   169  0012                     	;# 
   170  0013                     	;# 
   171  0014                     	;# 
   172  0015                     	;# 
   173  0015                     	;# 
   174  0016                     	;# 
   175  0017                     	;# 
   176  0018                     	;# 
   177  0019                     	;# 
   178  001A                     	;# 
   179  001B                     	;# 
   180  001B                     	;# 
   181  001C                     	;# 
   182  001D                     	;# 
   183  001E                     	;# 
   184  001F                     	;# 
   185  0081                     	;# 
   186  0085                     	;# 
   187  0086                     	;# 
   188  0087                     	;# 
   189  0088                     	;# 
   190  0089                     	;# 
   191  008C                     	;# 
   192  008D                     	;# 
   193  008E                     	;# 
   194  008F                     	;# 
   195  0090                     	;# 
   196  0091                     	;# 
   197  0092                     	;# 
   198  0093                     	;# 
   199  0093                     	;# 
   200  0093                     	;# 
   201  0094                     	;# 
   202  0095                     	;# 
   203  0096                     	;# 
   204  0097                     	;# 
   205  0098                     	;# 
   206  0099                     	;# 
   207  009A                     	;# 
   208  009B                     	;# 
   209  009C                     	;# 
   210  009D                     	;# 
   211  009E                     	;# 
   212  009F                     	;# 
   213  0105                     	;# 
   214  0107                     	;# 
   215  0108                     	;# 
   216  0109                     	;# 
   217  010C                     	;# 
   218  010C                     	;# 
   219  010D                     	;# 
   220  010E                     	;# 
   221  010F                     	;# 
   222  0185                     	;# 
   223  0187                     	;# 
   224  0188                     	;# 
   225  0189                     	;# 
   226  018C                     	;# 
   227  018D                     	;# 
   228  0000                     	;# 
   229  0001                     	;# 
   230  0002                     	;# 
   231  0003                     	;# 
   232  0004                     	;# 
   233  0005                     	;# 
   234  0006                     	;# 
   235  0007                     	;# 
   236  0008                     	;# 
   237  0009                     	;# 
   238  000A                     	;# 
   239  000B                     	;# 
   240  000C                     	;# 
   241  000D                     	;# 
   242  000E                     	;# 
   243  000E                     	;# 
   244  000F                     	;# 
   245  0010                     	;# 
   246  0011                     	;# 
   247  0012                     	;# 
   248  0013                     	;# 
   249  0014                     	;# 
   250  0015                     	;# 
   251  0015                     	;# 
   252  0016                     	;# 
   253  0017                     	;# 
   254  0018                     	;# 
   255  0019                     	;# 
   256  001A                     	;# 
   257  001B                     	;# 
   258  001B                     	;# 
   259  001C                     	;# 
   260  001D                     	;# 
   261  001E                     	;# 
   262  001F                     	;# 
   263  0081                     	;# 
   264  0085                     	;# 
   265  0086                     	;# 
   266  0087                     	;# 
   267  0088                     	;# 
   268  0089                     	;# 
   269  008C                     	;# 
   270  008D                     	;# 
   271  008E                     	;# 
   272  008F                     	;# 
   273  0090                     	;# 
   274  0091                     	;# 
   275  0092                     	;# 
   276  0093                     	;# 
   277  0093                     	;# 
   278  0093                     	;# 
   279  0094                     	;# 
   280  0095                     	;# 
   281  0096                     	;# 
   282  0097                     	;# 
   283  0098                     	;# 
   284  0099                     	;# 
   285  009A                     	;# 
   286  009B                     	;# 
   287  009C                     	;# 
   288  009D                     	;# 
   289  009E                     	;# 
   290  009F                     	;# 
   291  0105                     	;# 
   292  0107                     	;# 
   293  0108                     	;# 
   294  0109                     	;# 
   295  010C                     	;# 
   296  010C                     	;# 
   297  010D                     	;# 
   298  010E                     	;# 
   299  010F                     	;# 
   300  0185                     	;# 
   301  0187                     	;# 
   302  0188                     	;# 
   303  0189                     	;# 
   304  018C                     	;# 
   305  018D                     	;# 
   306  0000                     	;# 
   307  0001                     	;# 
   308  0002                     	;# 
   309  0003                     	;# 
   310  0004                     	;# 
   311  0005                     	;# 
   312  0006                     	;# 
   313  0007                     	;# 
   314  0008                     	;# 
   315  0009                     	;# 
   316  000A                     	;# 
   317  000B                     	;# 
   318  000C                     	;# 
   319  000D                     	;# 
   320  000E                     	;# 
   321  000E                     	;# 
   322  000F                     	;# 
   323  0010                     	;# 
   324  0011                     	;# 
   325  0012                     	;# 
   326  0013                     	;# 
   327  0014                     	;# 
   328  0015                     	;# 
   329  0015                     	;# 
   330  0016                     	;# 
   331  0017                     	;# 
   332  0018                     	;# 
   333  0019                     	;# 
   334  001A                     	;# 
   335  001B                     	;# 
   336  001B                     	;# 
   337  001C                     	;# 
   338  001D                     	;# 
   339  001E                     	;# 
   340  001F                     	;# 
   341  0081                     	;# 
   342  0085                     	;# 
   343  0086                     	;# 
   344  0087                     	;# 
   345  0088                     	;# 
   346  0089                     	;# 
   347  008C                     	;# 
   348  008D                     	;# 
   349  008E                     	;# 
   350  008F                     	;# 
   351  0090                     	;# 
   352  0091                     	;# 
   353  0092                     	;# 
   354  0093                     	;# 
   355  0093                     	;# 
   356  0093                     	;# 
   357  0094                     	;# 
   358  0095                     	;# 
   359  0096                     	;# 
   360  0097                     	;# 
   361  0098                     	;# 
   362  0099                     	;# 
   363  009A                     	;# 
   364  009B                     	;# 
   365  009C                     	;# 
   366  009D                     	;# 
   367  009E                     	;# 
   368  009F                     	;# 
   369  0105                     	;# 
   370  0107                     	;# 
   371  0108                     	;# 
   372  0109                     	;# 
   373  010C                     	;# 
   374  010C                     	;# 
   375  010D                     	;# 
   376  010E                     	;# 
   377  010F                     	;# 
   378  0185                     	;# 
   379  0187                     	;# 
   380  0188                     	;# 
   381  0189                     	;# 
   382  018C                     	;# 
   383  018D                     	;# 
   384  0000                     	;# 
   385  0001                     	;# 
   386  0002                     	;# 
   387  0003                     	;# 
   388  0004                     	;# 
   389  0005                     	;# 
   390  0006                     	;# 
   391  0007                     	;# 
   392  0008                     	;# 
   393  0009                     	;# 
   394  000A                     	;# 
   395  000B                     	;# 
   396  000C                     	;# 
   397  000D                     	;# 
   398  000E                     	;# 
   399  000E                     	;# 
   400  000F                     	;# 
   401  0010                     	;# 
   402  0011                     	;# 
   403  0012                     	;# 
   404  0013                     	;# 
   405  0014                     	;# 
   406  0015                     	;# 
   407  0015                     	;# 
   408  0016                     	;# 
   409  0017                     	;# 
   410  0018                     	;# 
   411  0019                     	;# 
   412  001A                     	;# 
   413  001B                     	;# 
   414  001B                     	;# 
   415  001C                     	;# 
   416  001D                     	;# 
   417  001E                     	;# 
   418  001F                     	;# 
   419  0081                     	;# 
   420  0085                     	;# 
   421  0086                     	;# 
   422  0087                     	;# 
   423  0088                     	;# 
   424  0089                     	;# 
   425  008C                     	;# 
   426  008D                     	;# 
   427  008E                     	;# 
   428  008F                     	;# 
   429  0090                     	;# 
   430  0091                     	;# 
   431  0092                     	;# 
   432  0093                     	;# 
   433  0093                     	;# 
   434  0093                     	;# 
   435  0094                     	;# 
   436  0095                     	;# 
   437  0096                     	;# 
   438  0097                     	;# 
   439  0098                     	;# 
   440  0099                     	;# 
   441  009A                     	;# 
   442  009B                     	;# 
   443  009C                     	;# 
   444  009D                     	;# 
   445  009E                     	;# 
   446  009F                     	;# 
   447  0105                     	;# 
   448  0107                     	;# 
   449  0108                     	;# 
   450  0109                     	;# 
   451  010C                     	;# 
   452  010C                     	;# 
   453  010D                     	;# 
   454  010E                     	;# 
   455  010F                     	;# 
   456  0185                     	;# 
   457  0187                     	;# 
   458  0188                     	;# 
   459  0189                     	;# 
   460  018C                     	;# 
   461  018D                     	;# 
   462  0000                     	;# 
   463  0001                     	;# 
   464  0002                     	;# 
   465  0003                     	;# 
   466  0004                     	;# 
   467  0005                     	;# 
   468  0006                     	;# 
   469  0007                     	;# 
   470  0008                     	;# 
   471  0009                     	;# 
   472  000A                     	;# 
   473  000B                     	;# 
   474  000C                     	;# 
   475  000D                     	;# 
   476  000E                     	;# 
   477  000E                     	;# 
   478  000F                     	;# 
   479  0010                     	;# 
   480  0011                     	;# 
   481  0012                     	;# 
   482  0013                     	;# 
   483  0014                     	;# 
   484  0015                     	;# 
   485  0015                     	;# 
   486  0016                     	;# 
   487  0017                     	;# 
   488  0018                     	;# 
   489  0019                     	;# 
   490  001A                     	;# 
   491  001B                     	;# 
   492  001B                     	;# 
   493  001C                     	;# 
   494  001D                     	;# 
   495  001E                     	;# 
   496  001F                     	;# 
   497  0081                     	;# 
   498  0085                     	;# 
   499  0086                     	;# 
   500  0087                     	;# 
   501  0088                     	;# 
   502  0089                     	;# 
   503  008C                     	;# 
   504  008D                     	;# 
   505  008E                     	;# 
   506  008F                     	;# 
   507  0090                     	;# 
   508  0091                     	;# 
   509  0092                     	;# 
   510  0093                     	;# 
   511  0093                     	;# 
   512  0093                     	;# 
   513  0094                     	;# 
   514  0095                     	;# 
   515  0096                     	;# 
   516  0097                     	;# 
   517  0098                     	;# 
   518  0099                     	;# 
   519  009A                     	;# 
   520  009B                     	;# 
   521  009C                     	;# 
   522  009D                     	;# 
   523  009E                     	;# 
   524  009F                     	;# 
   525  0105                     	;# 
   526  0107                     	;# 
   527  0108                     	;# 
   528  0109                     	;# 
   529  010C                     	;# 
   530  010C                     	;# 
   531  010D                     	;# 
   532  010E                     	;# 
   533  010F                     	;# 
   534  0185                     	;# 
   535  0187                     	;# 
   536  0188                     	;# 
   537  0189                     	;# 
   538  018C                     	;# 
   539  018D                     	;# 
   540  0000                     	;# 
   541  0001                     	;# 
   542  0002                     	;# 
   543  0003                     	;# 
   544  0004                     	;# 
   545  0005                     	;# 
   546  0006                     	;# 
   547  0007                     	;# 
   548  0008                     	;# 
   549  0009                     	;# 
   550  000A                     	;# 
   551  000B                     	;# 
   552  000C                     	;# 
   553  000D                     	;# 
   554  000E                     	;# 
   555  000E                     	;# 
   556  000F                     	;# 
   557  0010                     	;# 
   558  0011                     	;# 
   559  0012                     	;# 
   560  0013                     	;# 
   561  0014                     	;# 
   562  0015                     	;# 
   563  0015                     	;# 
   564  0016                     	;# 
   565  0017                     	;# 
   566  0018                     	;# 
   567  0019                     	;# 
   568  001A                     	;# 
   569  001B                     	;# 
   570  001B                     	;# 
   571  001C                     	;# 
   572  001D                     	;# 
   573  001E                     	;# 
   574  001F                     	;# 
   575  0081                     	;# 
   576  0085                     	;# 
   577  0086                     	;# 
   578  0087                     	;# 
   579  0088                     	;# 
   580  0089                     	;# 
   581  008C                     	;# 
   582  008D                     	;# 
   583  008E                     	;# 
   584  008F                     	;# 
   585  0090                     	;# 
   586  0091                     	;# 
   587  0092                     	;# 
   588  0093                     	;# 
   589  0093                     	;# 
   590  0093                     	;# 
   591  0094                     	;# 
   592  0095                     	;# 
   593  0096                     	;# 
   594  0097                     	;# 
   595  0098                     	;# 
   596  0099                     	;# 
   597  009A                     	;# 
   598  009B                     	;# 
   599  009C                     	;# 
   600  009D                     	;# 
   601  009E                     	;# 
   602  009F                     	;# 
   603  0105                     	;# 
   604  0107                     	;# 
   605  0108                     	;# 
   606  0109                     	;# 
   607  010C                     	;# 
   608  010C                     	;# 
   609  010D                     	;# 
   610  010E                     	;# 
   611  010F                     	;# 
   612  0185                     	;# 
   613  0187                     	;# 
   614  0188                     	;# 
   615  0189                     	;# 
   616  018C                     	;# 
   617  018D                     	;# 
   618  0018                     _RCSTAbits	set	24
   619  0013                     _SSPBUF	set	19
   620  0014                     _SSPCON	set	20
   621  0009                     _PORTEbits	set	9
   622  0019                     _TXREG	set	25
   623  0008                     _PORTDbits	set	8
   624  000B                     _INTCONbits	set	11
   625  0008                     _PORTD	set	8
   626  0006                     _PORTB	set	6
   627  0005                     _PORTA	set	5
   628  000C                     _PIR1bits	set	12
   629  0063                     _SSPIF	set	99
   630  005E                     _PEIE	set	94
   631  005F                     _GIE	set	95
   632  0099                     _SPBRG	set	153
   633  009A                     _SPBRGH	set	154
   634  0098                     _TXSTAbits	set	152
   635  008F                     _OSCCONbits	set	143
   636  0091                     _SSPCON2bits	set	145
   637  0094                     _SSPSTAT	set	148
   638  0093                     _SSPADD	set	147
   639  0091                     _SSPCON2	set	145
   640  008C                     _PIE1bits	set	140
   641  0089                     _TRISE	set	137
   642  0088                     _TRISD	set	136
   643  0087                     _TRISCbits	set	135
   644  0086                     _TRISB	set	134
   645  0085                     _TRISA	set	133
   646  0463                     _SSPIE	set	1123
   647  043C                     _TRISC4	set	1084
   648  043B                     _TRISC3	set	1083
   649  0187                     _BAUDCTLbits	set	391
   650  0189                     _ANSELH	set	393
   651  0188                     _ANSEL	set	392
   652                           
   653                           	psect	cinit
   654  000F                     start_initialization:	
   655                           ; #config settings
   656                           
   657  000F                     __initialization:
   658                           
   659                           ; Clear objects allocated to COMMON
   660  000F  01F8               	clrf	__pbssCOMMON& (0+127)
   661  0010  01F9               	clrf	(__pbssCOMMON+1)& (0+127)
   662  0011  01FA               	clrf	(__pbssCOMMON+2)& (0+127)
   663                           
   664                           ; Clear objects allocated to BANK0
   665  0012  1283               	bcf	3,5	;RP0=0, select bank0
   666  0013  1303               	bcf	3,6	;RP1=0, select bank0
   667  0014  01C0               	clrf	__pbssBANK0& (0+127)
   668  0015  01C1               	clrf	(__pbssBANK0+1)& (0+127)
   669  0016  01C2               	clrf	(__pbssBANK0+2)& (0+127)
   670  0017  01C3               	clrf	(__pbssBANK0+3)& (0+127)
   671  0018  01C4               	clrf	(__pbssBANK0+4)& (0+127)
   672  0019  01C5               	clrf	(__pbssBANK0+5)& (0+127)
   673  001A  01C6               	clrf	(__pbssBANK0+6)& (0+127)
   674  001B  01C7               	clrf	(__pbssBANK0+7)& (0+127)
   675  001C  01C8               	clrf	(__pbssBANK0+8)& (0+127)
   676  001D  01C9               	clrf	(__pbssBANK0+9)& (0+127)
   677  001E  01CA               	clrf	(__pbssBANK0+10)& (0+127)
   678  001F  01CB               	clrf	(__pbssBANK0+11)& (0+127)
   679  0020  01CC               	clrf	(__pbssBANK0+12)& (0+127)
   680  0021  01CD               	clrf	(__pbssBANK0+13)& (0+127)
   681  0022  01CE               	clrf	(__pbssBANK0+14)& (0+127)
   682  0023                     end_of_initialization:	
   683                           ;End of C runtime variable initialization code
   684                           
   685  0023                     __end_of__initialization:
   686  0023  0183               	clrf	3
   687  0024  120A  118A  2827   	ljmp	_main	;jump to C main() function
   688                           
   689                           	psect	bssCOMMON
   690  0078                     __pbssCOMMON:
   691  0078                     _con:
   692  0078                     	ds	1
   693  0079                     _MIN:
   694  0079                     	ds	1
   695  007A                     _DIA:
   696  007A                     	ds	1
   697                           
   698                           	psect	bssBANK0
   699  0040                     __pbssBANK0:
   700  0040                     _cuenta_uart:
   701  0040                     	ds	1
   702  0041                     _temperatura:
   703  0041                     	ds	1
   704  0042                     _CERRADO:
   705  0042                     	ds	1
   706  0043                     _DM:
   707  0043                     	ds	1
   708  0044                     _UM:
   709  0044                     	ds	1
   710  0045                     _DH:
   711  0045                     	ds	1
   712  0046                     _UH:
   713  0046                     	ds	1
   714  0047                     _C3:
   715  0047                     	ds	1
   716  0048                     _C2:
   717  0048                     	ds	1
   718  0049                     _C1:
   719  0049                     	ds	1
   720  004A                     _TEMP:
   721  004A                     	ds	1
   722  004B                     _HORA:
   723  004B                     	ds	1
   724  004C                     _BASURA:
   725  004C                     	ds	1
   726  004D                     _NUM:
   727  004D                     	ds	1
   728  004E                     _PARKH:
   729  004E                     	ds	1
   730                           
   731                           	psect	cstackCOMMON
   732  0070                     __pcstackCOMMON:
   733  0070                     ?_setup:
   734  0070                     ?_Lcd_Init:	
   735                           ; 1 bytes @ 0x0
   736                           
   737  0070                     ?_Lcd_Write_String:	
   738                           ; 1 bytes @ 0x0
   739                           
   740  0070                     ?_conver1:	
   741                           ; 1 bytes @ 0x0
   742                           
   743  0070                     ?_conver:	
   744                           ; 1 bytes @ 0x0
   745                           
   746  0070                     ?_LECT1:	
   747                           ; 1 bytes @ 0x0
   748                           
   749  0070                     ?_I2C_Master_Start:	
   750                           ; 1 bytes @ 0x0
   751                           
   752  0070                     ?_I2C_Master_Stop:	
   753                           ; 1 bytes @ 0x0
   754                           
   755  0070                     ?_mandar_datos:	
   756                           ; 1 bytes @ 0x0
   757                           
   758  0070                     ?_osc_config:	
   759                           ; 1 bytes @ 0x0
   760                           
   761  0070                     ?_uart_config:	
   762                           ; 1 bytes @ 0x0
   763                           
   764  0070                     ?_num_ascii:	
   765                           ; 1 bytes @ 0x0
   766                           
   767  0070                     ?_isr:	
   768                           ; 1 bytes @ 0x0
   769                           
   770  0070                     ??_isr:	
   771                           ; 1 bytes @ 0x0
   772                           
   773  0070                     ?_main:	
   774                           ; 1 bytes @ 0x0
   775                           
   776  0070                     ?_Lcd_Port:	
   777                           ; 1 bytes @ 0x0
   778                           
   779  0070                     ?_Lcd_Cmd:	
   780                           ; 1 bytes @ 0x0
   781                           
   782  0070                     ?_Lcd_Write_Char:	
   783                           ; 1 bytes @ 0x0
   784                           
   785  0070                     ?_I2C_Master_Wait:	
   786                           ; 1 bytes @ 0x0
   787                           
   788                           
   789                           ; 1 bytes @ 0x0
   790  0070                     	ds	3
   791  0073                     ??_conver:
   792  0073                     ??_I2C_Master_Start:	
   793                           ; 1 bytes @ 0x3
   794                           
   795  0073                     ?_I2C_Master_Write:	
   796                           ; 1 bytes @ 0x3
   797                           
   798  0073                     ??_I2C_Master_Stop:	
   799                           ; 1 bytes @ 0x3
   800                           
   801  0073                     ??_osc_config:	
   802                           ; 1 bytes @ 0x3
   803                           
   804  0073                     ??_uart_config:	
   805                           ; 1 bytes @ 0x3
   806                           
   807  0073                     ??_num_ascii:	
   808                           ; 1 bytes @ 0x3
   809                           
   810  0073                     ??_Lcd_Port:	
   811                           ; 1 bytes @ 0x3
   812                           
   813  0073                     ??_I2C_Master_Wait:	
   814                           ; 1 bytes @ 0x3
   815                           
   816  0073                     ??___lldiv:	
   817                           ; 1 bytes @ 0x3
   818                           
   819  0073                     ?_I2C_Master_Read:	
   820                           ; 1 bytes @ 0x3
   821                           
   822  0073                     ?___awdiv:	
   823                           ; 2 bytes @ 0x3
   824                           
   825  0073                     Lcd_Port@a:	
   826                           ; 2 bytes @ 0x3
   827                           
   828  0073                     I2C_Master_Write@d:	
   829                           ; 1 bytes @ 0x3
   830                           
   831  0073                     I2C_Master_Read@a:	
   832                           ; 2 bytes @ 0x3
   833                           
   834  0073                     ___awdiv@divisor:	
   835                           ; 2 bytes @ 0x3
   836                           
   837                           
   838                           ; 2 bytes @ 0x3
   839  0073                     	ds	1
   840  0074                     ??_I2C_Master_Init:
   841  0074                     ??_Lcd_Cmd:	
   842                           ; 1 bytes @ 0x4
   843                           
   844  0074                     ??_Lcd_Write_Char:	
   845                           ; 1 bytes @ 0x4
   846                           
   847                           
   848                           ; 1 bytes @ 0x4
   849  0074                     	ds	1
   850  0075                     ??_I2C_Master_Write:
   851  0075                     ??_I2C_Master_Read:	
   852                           ; 1 bytes @ 0x5
   853                           
   854  0075                     Lcd_Write_Char@a:	
   855                           ; 1 bytes @ 0x5
   856                           
   857  0075                     num_ascii@num:	
   858                           ; 1 bytes @ 0x5
   859                           
   860  0075                     osc_config@freq:	
   861                           ; 1 bytes @ 0x5
   862                           
   863  0075                     ___awdiv@dividend:	
   864                           ; 1 bytes @ 0x5
   865                           
   866                           
   867                           ; 2 bytes @ 0x5
   868  0075                     	ds	1
   869  0076                     ??_Lcd_Write_String:
   870  0076                     ??_LECT1:	
   871                           ; 1 bytes @ 0x6
   872                           
   873  0076                     Lcd_Cmd@a:	
   874                           ; 1 bytes @ 0x6
   875                           
   876                           
   877                           ; 1 bytes @ 0x6
   878  0076                     	ds	1
   879  0077                     ??_Lcd_Init:
   880  0077                     ?_Lcd_Set_Cursor:	
   881                           ; 1 bytes @ 0x7
   882                           
   883  0077                     ??___awdiv:	
   884                           ; 1 bytes @ 0x7
   885                           
   886  0077                     Lcd_Set_Cursor@b:	
   887                           ; 1 bytes @ 0x7
   888                           
   889                           
   890                           ; 1 bytes @ 0x7
   891  0077                     	ds	1
   892                           
   893                           	psect	cstackBANK0
   894  0020                     __pcstackBANK0:
   895  0020                     ??_Lcd_Set_Cursor:
   896  0020                     ?___lldiv:	
   897                           ; 1 bytes @ 0x0
   898                           
   899  0020                     ___awdiv@counter:	
   900                           ; 4 bytes @ 0x0
   901                           
   902  0020                     Lcd_Write_String@i:	
   903                           ; 1 bytes @ 0x0
   904                           
   905  0020                     I2C_Master_Read@temp:	
   906                           ; 2 bytes @ 0x0
   907                           
   908  0020                     ___lldiv@divisor:	
   909                           ; 2 bytes @ 0x0
   910                           
   911  0020                     conver@temporal:	
   912                           ; 4 bytes @ 0x0
   913                           
   914                           
   915                           ; 16 bytes @ 0x0
   916  0020                     	ds	1
   917  0021                     Lcd_Set_Cursor@a:
   918  0021                     ___awdiv@sign:	
   919                           ; 1 bytes @ 0x1
   920                           
   921                           
   922                           ; 1 bytes @ 0x1
   923  0021                     	ds	1
   924  0022                     Lcd_Set_Cursor@temp:
   925  0022                     Lcd_Write_String@a:	
   926                           ; 1 bytes @ 0x2
   927                           
   928  0022                     ___awdiv@quotient:	
   929                           ; 1 bytes @ 0x2
   930                           
   931                           
   932                           ; 2 bytes @ 0x2
   933  0022                     	ds	2
   934  0024                     ?___awmod:
   935  0024                     ___awmod@divisor:	
   936                           ; 2 bytes @ 0x4
   937                           
   938  0024                     ___lldiv@dividend:	
   939                           ; 2 bytes @ 0x4
   940                           
   941                           
   942                           ; 4 bytes @ 0x4
   943  0024                     	ds	2
   944  0026                     ___awmod@dividend:
   945                           
   946                           ; 2 bytes @ 0x6
   947  0026                     	ds	2
   948  0028                     ??___awmod:
   949  0028                     ___lldiv@quotient:	
   950                           ; 1 bytes @ 0x8
   951                           
   952                           
   953                           ; 4 bytes @ 0x8
   954  0028                     	ds	1
   955  0029                     ___awmod@counter:
   956                           
   957                           ; 1 bytes @ 0x9
   958  0029                     	ds	1
   959  002A                     ___awmod@sign:
   960                           
   961                           ; 1 bytes @ 0xA
   962  002A                     	ds	1
   963  002B                     ??_conver1:
   964  002B                     ??_mandar_datos:	
   965                           ; 1 bytes @ 0xB
   966                           
   967                           
   968                           ; 1 bytes @ 0xB
   969  002B                     	ds	1
   970  002C                     ___lldiv@counter:
   971                           
   972                           ; 1 bytes @ 0xC
   973  002C                     	ds	1
   974  002D                     ?_I2C_Master_Init:
   975  002D                     I2C_Master_Init@c:	
   976                           ; 1 bytes @ 0xD
   977                           
   978                           
   979                           ; 4 bytes @ 0xD
   980  002D                     	ds	1
   981  002E                     conver1@temporal:
   982                           
   983                           ; 16 bytes @ 0xE
   984  002E                     	ds	3
   985  0031                     ??_setup:
   986                           
   987                           ; 1 bytes @ 0x11
   988  0031                     	ds	13
   989  003E                     ??_main:
   990                           
   991                           ; 1 bytes @ 0x1E
   992  003E                     	ds	2
   993                           
   994                           	psect	maintext
   995  0027                     __pmaintext:	
   996 ;;
   997 ;;Main: autosize = 0, tempsize = 2, incstack = 0, save=0
   998 ;;
   999 ;; *************** function _main *****************
  1000 ;; Defined at:
  1001 ;;		line 89 in file "C:/Users/Andy Bonilla/Documents/GitHub/ED2/Proyecto1_ED2/PIC_maestro.X/main_mastre.c"
  1002 ;; Parameters:    Size  Location     Type
  1003 ;;		None
  1004 ;; Auto vars:     Size  Location     Type
  1005 ;;		None
  1006 ;; Return value:  Size  Location     Type
  1007 ;;                  1    wreg      void 
  1008 ;; Registers used:
  1009 ;;		wreg, fsr0l, fsr0h, status,2, status,0, pclath, cstack
  1010 ;; Tracked objects:
  1011 ;;		On entry : B00/0
  1012 ;;		On exit  : 0/0
  1013 ;;		Unchanged: 0/0
  1014 ;; Data sizes:     COMMON   BANK0   BANK1   BANK3   BANK2
  1015 ;;      Params:         0       0       0       0       0
  1016 ;;      Locals:         0       0       0       0       0
  1017 ;;      Temps:          0       2       0       0       0
  1018 ;;      Totals:         0       2       0       0       0
  1019 ;;Total ram usage:        2 bytes
  1020 ;; Hardware stack levels required when called: 4
  1021 ;; This function calls:
  1022 ;;		_I2C_Master_Read
  1023 ;;		_I2C_Master_Start
  1024 ;;		_I2C_Master_Stop
  1025 ;;		_I2C_Master_Write
  1026 ;;		_LECT1
  1027 ;;		_Lcd_Init
  1028 ;;		_Lcd_Set_Cursor
  1029 ;;		_Lcd_Write_String
  1030 ;;		_conver
  1031 ;;		_conver1
  1032 ;;		_mandar_datos
  1033 ;;		_setup
  1034 ;; This function is called by:
  1035 ;;		Startup code after reset
  1036 ;; This function uses a non-reentrant model
  1037 ;;
  1038                           
  1039                           
  1040                           ;psect for function _main
  1041  0027                     _main:
  1042  0027                     l2746:	
  1043                           ;incstack = 0
  1044                           ; Regs used in _main: [wreg-fsr0h+status,2+status,0+pclath+cstack]
  1045                           
  1046                           
  1047                           ;C:/Users/Andy Bonilla/Documents/GitHub/ED2/Proyecto1_ED2/PIC_maestro.X/main_mastre.c: 9
      +                          0:     setup();
  1048  0027  120A  118A  23B4  120A  118A  	fcall	_setup
  1049  002C                     l2748:
  1050                           
  1051                           ;C:/Users/Andy Bonilla/Documents/GitHub/ED2/Proyecto1_ED2/PIC_maestro.X/main_mastre.c: 9
      +                          1:     Lcd_Init();
  1052  002C  120A  118A  27E2  120A  118A  	fcall	_Lcd_Init
  1053  0031                     l2750:
  1054                           
  1055                           ;C:/Users/Andy Bonilla/Documents/GitHub/ED2/Proyecto1_ED2/PIC_maestro.X/main_mastre.c: 9
      +                          4:         Lcd_Set_Cursor(1,1);
  1056  0031  01F7               	clrf	Lcd_Set_Cursor@b
  1057  0032  0AF7               	incf	Lcd_Set_Cursor@b,f
  1058  0033  3001               	movlw	1
  1059  0034  120A  158A  2739  120A  118A  	fcall	_Lcd_Set_Cursor
  1060                           
  1061                           ;C:/Users/Andy Bonilla/Documents/GitHub/ED2/Proyecto1_ED2/PIC_maestro.X/main_mastre.c: 9
      +                          5:         Lcd_Write_String(conver1());
  1062  0039  120A  118A  2557  120A  118A  	fcall	_conver1
  1063  003E  120A  158A  2714  120A  118A  	fcall	_Lcd_Write_String
  1064  0043                     l2752:
  1065                           
  1066                           ;C:/Users/Andy Bonilla/Documents/GitHub/ED2/Proyecto1_ED2/PIC_maestro.X/main_mastre.c: 9
      +                          6:         Lcd_Set_Cursor(2,1);
  1067  0043  01F7               	clrf	Lcd_Set_Cursor@b
  1068  0044  0AF7               	incf	Lcd_Set_Cursor@b,f
  1069  0045  3002               	movlw	2
  1070  0046  120A  158A  2739  120A  118A  	fcall	_Lcd_Set_Cursor
  1071  004B                     l2754:
  1072                           
  1073                           ;C:/Users/Andy Bonilla/Documents/GitHub/ED2/Proyecto1_ED2/PIC_maestro.X/main_mastre.c: 9
      +                          7:         Lcd_Write_String(conver());
  1074  004B  120A  118A  275F  120A  118A  	fcall	_conver
  1075  0050  120A  158A  2714  120A  118A  	fcall	_Lcd_Write_String
  1076  0055                     l2756:
  1077                           
  1078                           ;C:/Users/Andy Bonilla/Documents/GitHub/ED2/Proyecto1_ED2/PIC_maestro.X/main_mastre.c: 9
      +                          8:         LECT1();
  1079  0055  120A  118A  2206  120A  118A  	fcall	_LECT1
  1080  005A                     l2758:
  1081                           
  1082                           ;C:/Users/Andy Bonilla/Documents/GitHub/ED2/Proyecto1_ED2/PIC_maestro.X/main_mastre.c: 1
      +                          00:         I2C_Master_Start();
  1083  005A  120A  158A  2695  120A  118A  	fcall	_I2C_Master_Start
  1084  005F                     l2760:
  1085                           
  1086                           ;C:/Users/Andy Bonilla/Documents/GitHub/ED2/Proyecto1_ED2/PIC_maestro.X/main_mastre.c: 1
      +                          01:         I2C_Master_Write(0x50);
  1087  005F  3050               	movlw	80
  1088  0060  00F3               	movwf	I2C_Master_Write@d
  1089  0061  3000               	movlw	0
  1090  0062  00F4               	movwf	I2C_Master_Write@d+1
  1091  0063  120A  158A  26A7  120A  118A  	fcall	_I2C_Master_Write
  1092  0068                     l2762:
  1093                           
  1094                           ;C:/Users/Andy Bonilla/Documents/GitHub/ED2/Proyecto1_ED2/PIC_maestro.X/main_mastre.c: 1
      +                          02:         I2C_Master_Write(0);
  1095  0068  3000               	movlw	0
  1096  0069  00F3               	movwf	I2C_Master_Write@d
  1097  006A  00F4               	movwf	I2C_Master_Write@d+1
  1098  006B  120A  158A  26A7  120A  118A  	fcall	_I2C_Master_Write
  1099  0070                     l2764:
  1100                           
  1101                           ;C:/Users/Andy Bonilla/Documents/GitHub/ED2/Proyecto1_ED2/PIC_maestro.X/main_mastre.c: 1
      +                          03:         I2C_Master_Stop();
  1102  0070  120A  158A  269E  120A  118A  	fcall	_I2C_Master_Stop
  1103  0075                     l2766:
  1104                           
  1105                           ;C:/Users/Andy Bonilla/Documents/GitHub/ED2/Proyecto1_ED2/PIC_maestro.X/main_mastre.c: 1
      +                          04:         _delay((unsigned long)((10)*(8000000/4000.0)));
  1106  0075  301A               	movlw	26
  1107  0076  1283               	bcf	3,5	;RP0=0, select bank0
  1108  0077  1303               	bcf	3,6	;RP1=0, select bank0
  1109  0078  00BF               	movwf	??_main+1
  1110  0079  30F7               	movlw	247
  1111  007A  00BE               	movwf	??_main
  1112  007B                     u1347:
  1113  007B  0BBE               	decfsz	??_main,f
  1114  007C  287B               	goto	u1347
  1115  007D  0BBF               	decfsz	??_main+1,f
  1116  007E  287B               	goto	u1347
  1117  007F  2880               	nop2
  1118  0080                     l2768:
  1119                           
  1120                           ;C:/Users/Andy Bonilla/Documents/GitHub/ED2/Proyecto1_ED2/PIC_maestro.X/main_mastre.c: 1
      +                          06:         I2C_Master_Start();
  1121  0080  120A  158A  2695  120A  118A  	fcall	_I2C_Master_Start
  1122  0085                     l2770:
  1123                           
  1124                           ;C:/Users/Andy Bonilla/Documents/GitHub/ED2/Proyecto1_ED2/PIC_maestro.X/main_mastre.c: 1
      +                          07:         I2C_Master_Write(0x51);
  1125  0085  3051               	movlw	81
  1126  0086  00F3               	movwf	I2C_Master_Write@d
  1127  0087  3000               	movlw	0
  1128  0088  00F4               	movwf	I2C_Master_Write@d+1
  1129  0089  120A  158A  26A7  120A  118A  	fcall	_I2C_Master_Write
  1130  008E                     l2772:
  1131                           
  1132                           ;C:/Users/Andy Bonilla/Documents/GitHub/ED2/Proyecto1_ED2/PIC_maestro.X/main_mastre.c: 1
      +                          08:         PARKH = I2C_Master_Read(0);
  1133  008E  3000               	movlw	0
  1134  008F  00F3               	movwf	I2C_Master_Read@a
  1135  0090  00F4               	movwf	I2C_Master_Read@a+1
  1136  0091  120A  158A  275F  120A  118A  	fcall	_I2C_Master_Read
  1137  0096  0873               	movf	?_I2C_Master_Read,w
  1138  0097  1283               	bcf	3,5	;RP0=0, select bank0
  1139  0098  1303               	bcf	3,6	;RP1=0, select bank0
  1140  0099  00BE               	movwf	??_main
  1141  009A  083E               	movf	??_main,w
  1142  009B  00CE               	movwf	_PARKH
  1143  009C                     l2774:
  1144                           
  1145                           ;C:/Users/Andy Bonilla/Documents/GitHub/ED2/Proyecto1_ED2/PIC_maestro.X/main_mastre.c: 1
      +                          09:         I2C_Master_Stop();
  1146  009C  120A  158A  269E  120A  118A  	fcall	_I2C_Master_Stop
  1147  00A1                     l2776:
  1148                           
  1149                           ;C:/Users/Andy Bonilla/Documents/GitHub/ED2/Proyecto1_ED2/PIC_maestro.X/main_mastre.c: 1
      +                          10:         _delay((unsigned long)((10)*(8000000/4000.0)));
  1150  00A1  301A               	movlw	26
  1151  00A2  1283               	bcf	3,5	;RP0=0, select bank0
  1152  00A3  1303               	bcf	3,6	;RP1=0, select bank0
  1153  00A4  00BF               	movwf	??_main+1
  1154  00A5  30F7               	movlw	247
  1155  00A6  00BE               	movwf	??_main
  1156  00A7                     u1357:
  1157  00A7  0BBE               	decfsz	??_main,f
  1158  00A8  28A7               	goto	u1357
  1159  00A9  0BBF               	decfsz	??_main+1,f
  1160  00AA  28A7               	goto	u1357
  1161  00AB  28AC               	nop2
  1162  00AC                     l2778:
  1163                           
  1164                           ;C:/Users/Andy Bonilla/Documents/GitHub/ED2/Proyecto1_ED2/PIC_maestro.X/main_mastre.c: 1
      +                          12:         I2C_Master_Start();
  1165  00AC  120A  158A  2695  120A  118A  	fcall	_I2C_Master_Start
  1166  00B1                     l2780:
  1167                           
  1168                           ;C:/Users/Andy Bonilla/Documents/GitHub/ED2/Proyecto1_ED2/PIC_maestro.X/main_mastre.c: 1
      +                          13:         I2C_Master_Write(0x60);
  1169  00B1  3060               	movlw	96
  1170  00B2  00F3               	movwf	I2C_Master_Write@d
  1171  00B3  3000               	movlw	0
  1172  00B4  00F4               	movwf	I2C_Master_Write@d+1
  1173  00B5  120A  158A  26A7  120A  118A  	fcall	_I2C_Master_Write
  1174  00BA                     l2782:
  1175                           
  1176                           ;C:/Users/Andy Bonilla/Documents/GitHub/ED2/Proyecto1_ED2/PIC_maestro.X/main_mastre.c: 1
      +                          14:         I2C_Master_Write(CERRADO);
  1177  00BA  1283               	bcf	3,5	;RP0=0, select bank0
  1178  00BB  1303               	bcf	3,6	;RP1=0, select bank0
  1179  00BC  0842               	movf	_CERRADO,w
  1180  00BD  00BE               	movwf	??_main
  1181  00BE  01BF               	clrf	??_main+1
  1182  00BF  083E               	movf	??_main,w
  1183  00C0  00F3               	movwf	I2C_Master_Write@d
  1184  00C1  083F               	movf	??_main+1,w
  1185  00C2  00F4               	movwf	I2C_Master_Write@d+1
  1186  00C3  120A  158A  26A7  120A  118A  	fcall	_I2C_Master_Write
  1187  00C8                     l2784:
  1188                           
  1189                           ;C:/Users/Andy Bonilla/Documents/GitHub/ED2/Proyecto1_ED2/PIC_maestro.X/main_mastre.c: 1
      +                          15:         I2C_Master_Stop();
  1190  00C8  120A  158A  269E  120A  118A  	fcall	_I2C_Master_Stop
  1191  00CD                     l2786:
  1192                           
  1193                           ;C:/Users/Andy Bonilla/Documents/GitHub/ED2/Proyecto1_ED2/PIC_maestro.X/main_mastre.c: 1
      +                          16:         _delay((unsigned long)((10)*(8000000/4000.0)));
  1194  00CD  301A               	movlw	26
  1195  00CE  1283               	bcf	3,5	;RP0=0, select bank0
  1196  00CF  1303               	bcf	3,6	;RP1=0, select bank0
  1197  00D0  00BF               	movwf	??_main+1
  1198  00D1  30F7               	movlw	247
  1199  00D2  00BE               	movwf	??_main
  1200  00D3                     u1367:
  1201  00D3  0BBE               	decfsz	??_main,f
  1202  00D4  28D3               	goto	u1367
  1203  00D5  0BBF               	decfsz	??_main+1,f
  1204  00D6  28D3               	goto	u1367
  1205  00D7  28D8               	nop2
  1206  00D8                     l2788:
  1207                           
  1208                           ;C:/Users/Andy Bonilla/Documents/GitHub/ED2/Proyecto1_ED2/PIC_maestro.X/main_mastre.c: 1
      +                          18:         I2C_Master_Start();
  1209  00D8  120A  158A  2695  120A  118A  	fcall	_I2C_Master_Start
  1210  00DD                     l2790:
  1211                           
  1212                           ;C:/Users/Andy Bonilla/Documents/GitHub/ED2/Proyecto1_ED2/PIC_maestro.X/main_mastre.c: 1
      +                          19:         I2C_Master_Write(0x61);
  1213  00DD  3061               	movlw	97
  1214  00DE  00F3               	movwf	I2C_Master_Write@d
  1215  00DF  3000               	movlw	0
  1216  00E0  00F4               	movwf	I2C_Master_Write@d+1
  1217  00E1  120A  158A  26A7  120A  118A  	fcall	_I2C_Master_Write
  1218  00E6                     l2792:
  1219                           
  1220                           ;C:/Users/Andy Bonilla/Documents/GitHub/ED2/Proyecto1_ED2/PIC_maestro.X/main_mastre.c: 1
      +                          20:         temperatura = I2C_Master_Read(0);
  1221  00E6  3000               	movlw	0
  1222  00E7  00F3               	movwf	I2C_Master_Read@a
  1223  00E8  00F4               	movwf	I2C_Master_Read@a+1
  1224  00E9  120A  158A  275F  120A  118A  	fcall	_I2C_Master_Read
  1225  00EE  0873               	movf	?_I2C_Master_Read,w
  1226  00EF  1283               	bcf	3,5	;RP0=0, select bank0
  1227  00F0  1303               	bcf	3,6	;RP1=0, select bank0
  1228  00F1  00BE               	movwf	??_main
  1229  00F2  083E               	movf	??_main,w
  1230  00F3  00C1               	movwf	_temperatura
  1231  00F4                     l2794:
  1232                           
  1233                           ;C:/Users/Andy Bonilla/Documents/GitHub/ED2/Proyecto1_ED2/PIC_maestro.X/main_mastre.c: 1
      +                          21:         I2C_Master_Stop();
  1234  00F4  120A  158A  269E  120A  118A  	fcall	_I2C_Master_Stop
  1235  00F9                     l2796:
  1236                           
  1237                           ;C:/Users/Andy Bonilla/Documents/GitHub/ED2/Proyecto1_ED2/PIC_maestro.X/main_mastre.c: 1
      +                          22:         _delay((unsigned long)((10)*(8000000/4000.0)));
  1238  00F9  301A               	movlw	26
  1239  00FA  1283               	bcf	3,5	;RP0=0, select bank0
  1240  00FB  1303               	bcf	3,6	;RP1=0, select bank0
  1241  00FC  00BF               	movwf	??_main+1
  1242  00FD  30F7               	movlw	247
  1243  00FE  00BE               	movwf	??_main
  1244  00FF                     u1377:
  1245  00FF  0BBE               	decfsz	??_main,f
  1246  0100  28FF               	goto	u1377
  1247  0101  0BBF               	decfsz	??_main+1,f
  1248  0102  28FF               	goto	u1377
  1249  0103  2904               	nop2
  1250  0104                     l2798:
  1251                           
  1252                           ;C:/Users/Andy Bonilla/Documents/GitHub/ED2/Proyecto1_ED2/PIC_maestro.X/main_mastre.c: 1
      +                          24:         I2C_Master_Start();
  1253  0104  120A  158A  2695  120A  118A  	fcall	_I2C_Master_Start
  1254  0109                     l2800:
  1255                           
  1256                           ;C:/Users/Andy Bonilla/Documents/GitHub/ED2/Proyecto1_ED2/PIC_maestro.X/main_mastre.c: 1
      +                          25:         I2C_Master_Write(0xD0);
  1257  0109  30D0               	movlw	208
  1258  010A  00F3               	movwf	I2C_Master_Write@d
  1259  010B  3000               	movlw	0
  1260  010C  00F4               	movwf	I2C_Master_Write@d+1
  1261  010D  120A  158A  26A7  120A  118A  	fcall	_I2C_Master_Write
  1262  0112                     l2802:
  1263                           
  1264                           ;C:/Users/Andy Bonilla/Documents/GitHub/ED2/Proyecto1_ED2/PIC_maestro.X/main_mastre.c: 1
      +                          26:         I2C_Master_Write(0x02);
  1265  0112  3002               	movlw	2
  1266  0113  00F3               	movwf	I2C_Master_Write@d
  1267  0114  3000               	movlw	0
  1268  0115  00F4               	movwf	I2C_Master_Write@d+1
  1269  0116  120A  158A  26A7  120A  118A  	fcall	_I2C_Master_Write
  1270  011B                     l2804:
  1271                           
  1272                           ;C:/Users/Andy Bonilla/Documents/GitHub/ED2/Proyecto1_ED2/PIC_maestro.X/main_mastre.c: 1
      +                          27:         I2C_Master_Stop();
  1273  011B  120A  158A  269E  120A  118A  	fcall	_I2C_Master_Stop
  1274  0120                     l2806:
  1275                           
  1276                           ;C:/Users/Andy Bonilla/Documents/GitHub/ED2/Proyecto1_ED2/PIC_maestro.X/main_mastre.c: 1
      +                          28:         _delay((unsigned long)((10)*(8000000/4000.0)));
  1277  0120  301A               	movlw	26
  1278  0121  1283               	bcf	3,5	;RP0=0, select bank0
  1279  0122  1303               	bcf	3,6	;RP1=0, select bank0
  1280  0123  00BF               	movwf	??_main+1
  1281  0124  30F7               	movlw	247
  1282  0125  00BE               	movwf	??_main
  1283  0126                     u1387:
  1284  0126  0BBE               	decfsz	??_main,f
  1285  0127  2926               	goto	u1387
  1286  0128  0BBF               	decfsz	??_main+1,f
  1287  0129  2926               	goto	u1387
  1288  012A  292B               	nop2
  1289  012B                     l2808:
  1290                           
  1291                           ;C:/Users/Andy Bonilla/Documents/GitHub/ED2/Proyecto1_ED2/PIC_maestro.X/main_mastre.c: 1
      +                          30:         I2C_Master_Start();
  1292  012B  120A  158A  2695  120A  118A  	fcall	_I2C_Master_Start
  1293  0130                     l2810:
  1294                           
  1295                           ;C:/Users/Andy Bonilla/Documents/GitHub/ED2/Proyecto1_ED2/PIC_maestro.X/main_mastre.c: 1
      +                          31:         I2C_Master_Write(0xD1);
  1296  0130  30D1               	movlw	209
  1297  0131  00F3               	movwf	I2C_Master_Write@d
  1298  0132  3000               	movlw	0
  1299  0133  00F4               	movwf	I2C_Master_Write@d+1
  1300  0134  120A  158A  26A7  120A  118A  	fcall	_I2C_Master_Write
  1301  0139                     l2812:
  1302                           
  1303                           ;C:/Users/Andy Bonilla/Documents/GitHub/ED2/Proyecto1_ED2/PIC_maestro.X/main_mastre.c: 1
      +                          32:         HORA = I2C_Master_Read(0);
  1304  0139  3000               	movlw	0
  1305  013A  00F3               	movwf	I2C_Master_Read@a
  1306  013B  00F4               	movwf	I2C_Master_Read@a+1
  1307  013C  120A  158A  275F  120A  118A  	fcall	_I2C_Master_Read
  1308  0141  0873               	movf	?_I2C_Master_Read,w
  1309  0142  1283               	bcf	3,5	;RP0=0, select bank0
  1310  0143  1303               	bcf	3,6	;RP1=0, select bank0
  1311  0144  00BE               	movwf	??_main
  1312  0145  083E               	movf	??_main,w
  1313  0146  00CB               	movwf	_HORA
  1314  0147                     l2814:
  1315                           
  1316                           ;C:/Users/Andy Bonilla/Documents/GitHub/ED2/Proyecto1_ED2/PIC_maestro.X/main_mastre.c: 1
      +                          33:         I2C_Master_Stop();
  1317  0147  120A  158A  269E  120A  118A  	fcall	_I2C_Master_Stop
  1318  014C                     l2816:
  1319                           
  1320                           ;C:/Users/Andy Bonilla/Documents/GitHub/ED2/Proyecto1_ED2/PIC_maestro.X/main_mastre.c: 1
      +                          34:         _delay((unsigned long)((10)*(8000000/4000.0)));
  1321  014C  301A               	movlw	26
  1322  014D  1283               	bcf	3,5	;RP0=0, select bank0
  1323  014E  1303               	bcf	3,6	;RP1=0, select bank0
  1324  014F  00BF               	movwf	??_main+1
  1325  0150  30F7               	movlw	247
  1326  0151  00BE               	movwf	??_main
  1327  0152                     u1397:
  1328  0152  0BBE               	decfsz	??_main,f
  1329  0153  2952               	goto	u1397
  1330  0154  0BBF               	decfsz	??_main+1,f
  1331  0155  2952               	goto	u1397
  1332  0156  2957               	nop2
  1333  0157                     l2818:
  1334                           
  1335                           ;C:/Users/Andy Bonilla/Documents/GitHub/ED2/Proyecto1_ED2/PIC_maestro.X/main_mastre.c: 1
      +                          36:         I2C_Master_Start();
  1336  0157  120A  158A  2695  120A  118A  	fcall	_I2C_Master_Start
  1337  015C                     l2820:
  1338                           
  1339                           ;C:/Users/Andy Bonilla/Documents/GitHub/ED2/Proyecto1_ED2/PIC_maestro.X/main_mastre.c: 1
      +                          37:         I2C_Master_Write(0xD0);
  1340  015C  30D0               	movlw	208
  1341  015D  00F3               	movwf	I2C_Master_Write@d
  1342  015E  3000               	movlw	0
  1343  015F  00F4               	movwf	I2C_Master_Write@d+1
  1344  0160  120A  158A  26A7  120A  118A  	fcall	_I2C_Master_Write
  1345  0165                     l2822:
  1346                           
  1347                           ;C:/Users/Andy Bonilla/Documents/GitHub/ED2/Proyecto1_ED2/PIC_maestro.X/main_mastre.c: 1
      +                          38:         I2C_Master_Write(0x03);
  1348  0165  3003               	movlw	3
  1349  0166  00F3               	movwf	I2C_Master_Write@d
  1350  0167  3000               	movlw	0
  1351  0168  00F4               	movwf	I2C_Master_Write@d+1
  1352  0169  120A  158A  26A7  120A  118A  	fcall	_I2C_Master_Write
  1353  016E                     l2824:
  1354                           
  1355                           ;C:/Users/Andy Bonilla/Documents/GitHub/ED2/Proyecto1_ED2/PIC_maestro.X/main_mastre.c: 1
      +                          39:         I2C_Master_Stop();
  1356  016E  120A  158A  269E  120A  118A  	fcall	_I2C_Master_Stop
  1357  0173                     l2826:
  1358                           
  1359                           ;C:/Users/Andy Bonilla/Documents/GitHub/ED2/Proyecto1_ED2/PIC_maestro.X/main_mastre.c: 1
      +                          40:         _delay((unsigned long)((10)*(8000000/4000.0)));
  1360  0173  301A               	movlw	26
  1361  0174  1283               	bcf	3,5	;RP0=0, select bank0
  1362  0175  1303               	bcf	3,6	;RP1=0, select bank0
  1363  0176  00BF               	movwf	??_main+1
  1364  0177  30F7               	movlw	247
  1365  0178  00BE               	movwf	??_main
  1366  0179                     u1407:
  1367  0179  0BBE               	decfsz	??_main,f
  1368  017A  2979               	goto	u1407
  1369  017B  0BBF               	decfsz	??_main+1,f
  1370  017C  2979               	goto	u1407
  1371  017D  297E               	nop2
  1372  017E                     l2828:
  1373                           
  1374                           ;C:/Users/Andy Bonilla/Documents/GitHub/ED2/Proyecto1_ED2/PIC_maestro.X/main_mastre.c: 1
      +                          42:         I2C_Master_Start();
  1375  017E  120A  158A  2695  120A  118A  	fcall	_I2C_Master_Start
  1376  0183                     l2830:
  1377                           
  1378                           ;C:/Users/Andy Bonilla/Documents/GitHub/ED2/Proyecto1_ED2/PIC_maestro.X/main_mastre.c: 1
      +                          43:         I2C_Master_Write(0xD1);
  1379  0183  30D1               	movlw	209
  1380  0184  00F3               	movwf	I2C_Master_Write@d
  1381  0185  3000               	movlw	0
  1382  0186  00F4               	movwf	I2C_Master_Write@d+1
  1383  0187  120A  158A  26A7  120A  118A  	fcall	_I2C_Master_Write
  1384  018C                     l2832:
  1385                           
  1386                           ;C:/Users/Andy Bonilla/Documents/GitHub/ED2/Proyecto1_ED2/PIC_maestro.X/main_mastre.c: 1
      +                          44:         DIA = I2C_Master_Read(0);
  1387  018C  3000               	movlw	0
  1388  018D  00F3               	movwf	I2C_Master_Read@a
  1389  018E  00F4               	movwf	I2C_Master_Read@a+1
  1390  018F  120A  158A  275F  120A  118A  	fcall	_I2C_Master_Read
  1391  0194  0873               	movf	?_I2C_Master_Read,w
  1392  0195  1283               	bcf	3,5	;RP0=0, select bank0
  1393  0196  1303               	bcf	3,6	;RP1=0, select bank0
  1394  0197  00BE               	movwf	??_main
  1395  0198  083E               	movf	??_main,w
  1396  0199  00FA               	movwf	_DIA
  1397  019A                     l2834:
  1398                           
  1399                           ;C:/Users/Andy Bonilla/Documents/GitHub/ED2/Proyecto1_ED2/PIC_maestro.X/main_mastre.c: 1
      +                          45:         I2C_Master_Stop();
  1400  019A  120A  158A  269E  120A  118A  	fcall	_I2C_Master_Stop
  1401  019F                     l2836:
  1402                           
  1403                           ;C:/Users/Andy Bonilla/Documents/GitHub/ED2/Proyecto1_ED2/PIC_maestro.X/main_mastre.c: 1
      +                          46:         _delay((unsigned long)((10)*(8000000/4000.0)));
  1404  019F  301A               	movlw	26
  1405  01A0  1283               	bcf	3,5	;RP0=0, select bank0
  1406  01A1  1303               	bcf	3,6	;RP1=0, select bank0
  1407  01A2  00BF               	movwf	??_main+1
  1408  01A3  30F7               	movlw	247
  1409  01A4  00BE               	movwf	??_main
  1410  01A5                     u1417:
  1411  01A5  0BBE               	decfsz	??_main,f
  1412  01A6  29A5               	goto	u1417
  1413  01A7  0BBF               	decfsz	??_main+1,f
  1414  01A8  29A5               	goto	u1417
  1415  01A9  29AA               	nop2
  1416  01AA                     l2838:
  1417                           
  1418                           ;C:/Users/Andy Bonilla/Documents/GitHub/ED2/Proyecto1_ED2/PIC_maestro.X/main_mastre.c: 1
      +                          48:         I2C_Master_Start();
  1419  01AA  120A  158A  2695  120A  118A  	fcall	_I2C_Master_Start
  1420  01AF                     l2840:
  1421                           
  1422                           ;C:/Users/Andy Bonilla/Documents/GitHub/ED2/Proyecto1_ED2/PIC_maestro.X/main_mastre.c: 1
      +                          49:         I2C_Master_Write(0xD0);
  1423  01AF  30D0               	movlw	208
  1424  01B0  00F3               	movwf	I2C_Master_Write@d
  1425  01B1  3000               	movlw	0
  1426  01B2  00F4               	movwf	I2C_Master_Write@d+1
  1427  01B3  120A  158A  26A7  120A  118A  	fcall	_I2C_Master_Write
  1428  01B8                     l2842:
  1429                           
  1430                           ;C:/Users/Andy Bonilla/Documents/GitHub/ED2/Proyecto1_ED2/PIC_maestro.X/main_mastre.c: 1
      +                          50:         I2C_Master_Write(0x01);
  1431  01B8  3001               	movlw	1
  1432  01B9  00F3               	movwf	I2C_Master_Write@d
  1433  01BA  3000               	movlw	0
  1434  01BB  00F4               	movwf	I2C_Master_Write@d+1
  1435  01BC  120A  158A  26A7  120A  118A  	fcall	_I2C_Master_Write
  1436  01C1                     l2844:
  1437                           
  1438                           ;C:/Users/Andy Bonilla/Documents/GitHub/ED2/Proyecto1_ED2/PIC_maestro.X/main_mastre.c: 1
      +                          51:         I2C_Master_Stop();
  1439  01C1  120A  158A  269E  120A  118A  	fcall	_I2C_Master_Stop
  1440  01C6                     l2846:
  1441                           
  1442                           ;C:/Users/Andy Bonilla/Documents/GitHub/ED2/Proyecto1_ED2/PIC_maestro.X/main_mastre.c: 1
      +                          52:         _delay((unsigned long)((10)*(8000000/4000.0)));
  1443  01C6  301A               	movlw	26
  1444  01C7  1283               	bcf	3,5	;RP0=0, select bank0
  1445  01C8  1303               	bcf	3,6	;RP1=0, select bank0
  1446  01C9  00BF               	movwf	??_main+1
  1447  01CA  30F7               	movlw	247
  1448  01CB  00BE               	movwf	??_main
  1449  01CC                     u1427:
  1450  01CC  0BBE               	decfsz	??_main,f
  1451  01CD  29CC               	goto	u1427
  1452  01CE  0BBF               	decfsz	??_main+1,f
  1453  01CF  29CC               	goto	u1427
  1454  01D0  29D1               	nop2
  1455  01D1                     l2848:
  1456                           
  1457                           ;C:/Users/Andy Bonilla/Documents/GitHub/ED2/Proyecto1_ED2/PIC_maestro.X/main_mastre.c: 1
      +                          54:         I2C_Master_Start();
  1458  01D1  120A  158A  2695  120A  118A  	fcall	_I2C_Master_Start
  1459  01D6                     l2850:
  1460                           
  1461                           ;C:/Users/Andy Bonilla/Documents/GitHub/ED2/Proyecto1_ED2/PIC_maestro.X/main_mastre.c: 1
      +                          55:         I2C_Master_Write(0xD1);
  1462  01D6  30D1               	movlw	209
  1463  01D7  00F3               	movwf	I2C_Master_Write@d
  1464  01D8  3000               	movlw	0
  1465  01D9  00F4               	movwf	I2C_Master_Write@d+1
  1466  01DA  120A  158A  26A7  120A  118A  	fcall	_I2C_Master_Write
  1467  01DF                     l2852:
  1468                           
  1469                           ;C:/Users/Andy Bonilla/Documents/GitHub/ED2/Proyecto1_ED2/PIC_maestro.X/main_mastre.c: 1
      +                          56:         MIN = I2C_Master_Read(0);
  1470  01DF  3000               	movlw	0
  1471  01E0  00F3               	movwf	I2C_Master_Read@a
  1472  01E1  00F4               	movwf	I2C_Master_Read@a+1
  1473  01E2  120A  158A  275F  120A  118A  	fcall	_I2C_Master_Read
  1474  01E7  0873               	movf	?_I2C_Master_Read,w
  1475  01E8  1283               	bcf	3,5	;RP0=0, select bank0
  1476  01E9  1303               	bcf	3,6	;RP1=0, select bank0
  1477  01EA  00BE               	movwf	??_main
  1478  01EB  083E               	movf	??_main,w
  1479  01EC  00F9               	movwf	_MIN
  1480  01ED                     l2854:
  1481                           
  1482                           ;C:/Users/Andy Bonilla/Documents/GitHub/ED2/Proyecto1_ED2/PIC_maestro.X/main_mastre.c: 1
      +                          57:         I2C_Master_Stop();
  1483  01ED  120A  158A  269E  120A  118A  	fcall	_I2C_Master_Stop
  1484  01F2                     l2856:
  1485                           
  1486                           ;C:/Users/Andy Bonilla/Documents/GitHub/ED2/Proyecto1_ED2/PIC_maestro.X/main_mastre.c: 1
      +                          58:         _delay((unsigned long)((10)*(8000000/4000.0)));
  1487  01F2  301A               	movlw	26
  1488  01F3  1283               	bcf	3,5	;RP0=0, select bank0
  1489  01F4  1303               	bcf	3,6	;RP1=0, select bank0
  1490  01F5  00BF               	movwf	??_main+1
  1491  01F6  30F7               	movlw	247
  1492  01F7  00BE               	movwf	??_main
  1493  01F8                     u1437:
  1494  01F8  0BBE               	decfsz	??_main,f
  1495  01F9  29F8               	goto	u1437
  1496  01FA  0BBF               	decfsz	??_main+1,f
  1497  01FB  29F8               	goto	u1437
  1498  01FC  29FD               	nop2
  1499  01FD                     l2858:
  1500                           
  1501                           ;C:/Users/Andy Bonilla/Documents/GitHub/ED2/Proyecto1_ED2/PIC_maestro.X/main_mastre.c: 1
      +                          61:         mandar_datos();
  1502  01FD  120A  118A  26A1  120A  118A  	fcall	_mandar_datos
  1503  0202  2831               	goto	l2750
  1504  0203  120A  118A  280C   	ljmp	start
  1505  0206                     __end_of_main:
  1506                           
  1507                           	psect	text1
  1508  03B4                     __ptext1:	
  1509 ;; *************** function _setup *****************
  1510 ;; Defined at:
  1511 ;;		line 168 in file "C:/Users/Andy Bonilla/Documents/GitHub/ED2/Proyecto1_ED2/PIC_maestro.X/main_mastre.c"
  1512 ;; Parameters:    Size  Location     Type
  1513 ;;		None
  1514 ;; Auto vars:     Size  Location     Type
  1515 ;;		None
  1516 ;; Return value:  Size  Location     Type
  1517 ;;                  1    wreg      void 
  1518 ;; Registers used:
  1519 ;;		wreg, fsr0l, fsr0h, status,2, status,0, pclath, cstack
  1520 ;; Tracked objects:
  1521 ;;		On entry : 0/0
  1522 ;;		On exit  : 0/0
  1523 ;;		Unchanged: 0/0
  1524 ;; Data sizes:     COMMON   BANK0   BANK1   BANK3   BANK2
  1525 ;;      Params:         0       0       0       0       0
  1526 ;;      Locals:         0       0       0       0       0
  1527 ;;      Temps:          0       2       0       0       0
  1528 ;;      Totals:         0       2       0       0       0
  1529 ;;Total ram usage:        2 bytes
  1530 ;; Hardware stack levels used: 1
  1531 ;; Hardware stack levels required when called: 3
  1532 ;; This function calls:
  1533 ;;		_I2C_Master_Init
  1534 ;;		_I2C_Master_Read
  1535 ;;		_I2C_Master_Start
  1536 ;;		_I2C_Master_Stop
  1537 ;;		_I2C_Master_Write
  1538 ;;		_osc_config
  1539 ;;		_uart_config
  1540 ;; This function is called by:
  1541 ;;		_main
  1542 ;; This function uses a non-reentrant model
  1543 ;;
  1544                           
  1545                           
  1546                           ;psect for function _setup
  1547  03B4                     _setup:
  1548  03B4                     l2586:	
  1549                           ;incstack = 0
  1550                           ; Regs used in _setup: [wreg-fsr0h+status,2+status,0+pclath+cstack]
  1551                           
  1552                           
  1553                           ;C:/Users/Andy Bonilla/Documents/GitHub/ED2/Proyecto1_ED2/PIC_maestro.X/main_mastre.c: 1
      +                          69:     ANSEL = 0;
  1554  03B4  1683               	bsf	3,5	;RP0=1, select bank3
  1555  03B5  1703               	bsf	3,6	;RP1=1, select bank3
  1556  03B6  0188               	clrf	8	;volatile
  1557                           
  1558                           ;C:/Users/Andy Bonilla/Documents/GitHub/ED2/Proyecto1_ED2/PIC_maestro.X/main_mastre.c: 1
      +                          70:     ANSELH = 0;
  1559  03B7  0189               	clrf	9	;volatile
  1560                           
  1561                           ;C:/Users/Andy Bonilla/Documents/GitHub/ED2/Proyecto1_ED2/PIC_maestro.X/main_mastre.c: 1
      +                          71:     TRISA = 0;
  1562  03B8  1683               	bsf	3,5	;RP0=1, select bank1
  1563  03B9  1303               	bcf	3,6	;RP1=0, select bank1
  1564  03BA  0185               	clrf	5	;volatile
  1565                           
  1566                           ;C:/Users/Andy Bonilla/Documents/GitHub/ED2/Proyecto1_ED2/PIC_maestro.X/main_mastre.c: 1
      +                          72:     TRISB = 0;
  1567  03BB  0186               	clrf	6	;volatile
  1568  03BC                     l2588:
  1569                           
  1570                           ;C:/Users/Andy Bonilla/Documents/GitHub/ED2/Proyecto1_ED2/PIC_maestro.X/main_mastre.c: 1
      +                          73:     TRISCbits.TRISC6=0;
  1571  03BC  1307               	bcf	7,6	;volatile
  1572  03BD                     l2590:
  1573                           
  1574                           ;C:/Users/Andy Bonilla/Documents/GitHub/ED2/Proyecto1_ED2/PIC_maestro.X/main_mastre.c: 1
      +                          74:     TRISCbits.TRISC7=1;
  1575  03BD  1787               	bsf	7,7	;volatile
  1576                           
  1577                           ;C:/Users/Andy Bonilla/Documents/GitHub/ED2/Proyecto1_ED2/PIC_maestro.X/main_mastre.c: 1
      +                          75:     TRISD = 0;
  1578  03BE  0188               	clrf	8	;volatile
  1579                           
  1580                           ;C:/Users/Andy Bonilla/Documents/GitHub/ED2/Proyecto1_ED2/PIC_maestro.X/main_mastre.c: 1
      +                          76:     TRISE = 0;
  1581  03BF  0189               	clrf	9	;volatile
  1582                           
  1583                           ;C:/Users/Andy Bonilla/Documents/GitHub/ED2/Proyecto1_ED2/PIC_maestro.X/main_mastre.c: 1
      +                          77:     PORTA = 0;
  1584  03C0  1283               	bcf	3,5	;RP0=0, select bank0
  1585  03C1  1303               	bcf	3,6	;RP1=0, select bank0
  1586  03C2  0185               	clrf	5	;volatile
  1587                           
  1588                           ;C:/Users/Andy Bonilla/Documents/GitHub/ED2/Proyecto1_ED2/PIC_maestro.X/main_mastre.c: 1
      +                          78:     PORTB = 0;
  1589  03C3  0186               	clrf	6	;volatile
  1590                           
  1591                           ;C:/Users/Andy Bonilla/Documents/GitHub/ED2/Proyecto1_ED2/PIC_maestro.X/main_mastre.c: 1
      +                          79:     PORTD = 0;
  1592  03C4  0188               	clrf	8	;volatile
  1593  03C5                     l2592:
  1594                           
  1595                           ;C:/Users/Andy Bonilla/Documents/GitHub/ED2/Proyecto1_ED2/PIC_maestro.X/main_mastre.c: 1
      +                          80:     osc_config(8);
  1596  03C5  3008               	movlw	8
  1597  03C6  120A  158A  278F  120A  118A  	fcall	_osc_config
  1598  03CB                     l2594:
  1599                           
  1600                           ;C:/Users/Andy Bonilla/Documents/GitHub/ED2/Proyecto1_ED2/PIC_maestro.X/main_mastre.c: 1
      +                          81:     uart_config();
  1601  03CB  120A  158A  26E5  120A  118A  	fcall	_uart_config
  1602  03D0                     l2596:
  1603                           
  1604                           ;C:/Users/Andy Bonilla/Documents/GitHub/ED2/Proyecto1_ED2/PIC_maestro.X/main_mastre.c: 1
      +                          82:     I2C_Master_Init(100000);
  1605  03D0  3000               	movlw	0
  1606  03D1  1283               	bcf	3,5	;RP0=0, select bank0
  1607  03D2  1303               	bcf	3,6	;RP1=0, select bank0
  1608  03D3  00B0               	movwf	I2C_Master_Init@c+3
  1609  03D4  3001               	movlw	1
  1610  03D5  00AF               	movwf	I2C_Master_Init@c+2
  1611  03D6  3086               	movlw	134
  1612  03D7  00AE               	movwf	I2C_Master_Init@c+1
  1613  03D8  30A0               	movlw	160
  1614  03D9  00AD               	movwf	I2C_Master_Init@c
  1615  03DA  120A  158A  27C6  120A  118A  	fcall	_I2C_Master_Init
  1616  03DF                     l2598:
  1617                           
  1618                           ;C:/Users/Andy Bonilla/Documents/GitHub/ED2/Proyecto1_ED2/PIC_maestro.X/main_mastre.c: 1
      +                          84:     INTCONbits.GIE=1;
  1619  03DF  178B               	bsf	11,7	;volatile
  1620  03E0                     l2600:
  1621                           
  1622                           ;C:/Users/Andy Bonilla/Documents/GitHub/ED2/Proyecto1_ED2/PIC_maestro.X/main_mastre.c: 1
      +                          85:     INTCONbits.PEIE=1;
  1623  03E0  170B               	bsf	11,6	;volatile
  1624  03E1                     l2602:
  1625                           
  1626                           ;C:/Users/Andy Bonilla/Documents/GitHub/ED2/Proyecto1_ED2/PIC_maestro.X/main_mastre.c: 1
      +                          86:     PIE1bits.TXIE=1;
  1627  03E1  1683               	bsf	3,5	;RP0=1, select bank1
  1628  03E2  1303               	bcf	3,6	;RP1=0, select bank1
  1629  03E3  160C               	bsf	12,4	;volatile
  1630  03E4                     l2604:
  1631                           
  1632                           ;C:/Users/Andy Bonilla/Documents/GitHub/ED2/Proyecto1_ED2/PIC_maestro.X/main_mastre.c: 1
      +                          87:     PIR1bits.TXIF=0;
  1633  03E4  1283               	bcf	3,5	;RP0=0, select bank0
  1634  03E5  1303               	bcf	3,6	;RP1=0, select bank0
  1635  03E6  120C               	bcf	12,4	;volatile
  1636  03E7                     l2606:
  1637                           
  1638                           ;C:/Users/Andy Bonilla/Documents/GitHub/ED2/Proyecto1_ED2/PIC_maestro.X/main_mastre.c: 1
      +                          89:     I2C_Master_Start();
  1639  03E7  120A  158A  2695  120A  118A  	fcall	_I2C_Master_Start
  1640  03EC                     l2608:
  1641                           
  1642                           ;C:/Users/Andy Bonilla/Documents/GitHub/ED2/Proyecto1_ED2/PIC_maestro.X/main_mastre.c: 1
      +                          90:     I2C_Master_Write(0xD0);
  1643  03EC  30D0               	movlw	208
  1644  03ED  00F3               	movwf	I2C_Master_Write@d
  1645  03EE  3000               	movlw	0
  1646  03EF  00F4               	movwf	I2C_Master_Write@d+1
  1647  03F0  120A  158A  26A7  120A  118A  	fcall	_I2C_Master_Write
  1648  03F5                     l2610:
  1649                           
  1650                           ;C:/Users/Andy Bonilla/Documents/GitHub/ED2/Proyecto1_ED2/PIC_maestro.X/main_mastre.c: 1
      +                          91:     I2C_Master_Write(0x02);
  1651  03F5  3002               	movlw	2
  1652  03F6  00F3               	movwf	I2C_Master_Write@d
  1653  03F7  3000               	movlw	0
  1654  03F8  00F4               	movwf	I2C_Master_Write@d+1
  1655  03F9  120A  158A  26A7  120A  118A  	fcall	_I2C_Master_Write
  1656  03FE                     l2612:
  1657                           
  1658                           ;C:/Users/Andy Bonilla/Documents/GitHub/ED2/Proyecto1_ED2/PIC_maestro.X/main_mastre.c: 1
      +                          92:     I2C_Master_Write(0x06);
  1659  03FE  3006               	movlw	6
  1660  03FF  00F3               	movwf	I2C_Master_Write@d
  1661  0400  3000               	movlw	0
  1662  0401  00F4               	movwf	I2C_Master_Write@d+1
  1663  0402  120A  158A  26A7  120A  118A  	fcall	_I2C_Master_Write
  1664  0407                     l2614:
  1665                           
  1666                           ;C:/Users/Andy Bonilla/Documents/GitHub/ED2/Proyecto1_ED2/PIC_maestro.X/main_mastre.c: 1
      +                          93:     I2C_Master_Stop();
  1667  0407  120A  158A  269E  120A  118A  	fcall	_I2C_Master_Stop
  1668  040C                     l2616:
  1669                           
  1670                           ;C:/Users/Andy Bonilla/Documents/GitHub/ED2/Proyecto1_ED2/PIC_maestro.X/main_mastre.c: 1
      +                          94:     _delay((unsigned long)((10)*(8000000/4000.0)));
  1671  040C  301A               	movlw	26
  1672  040D  1283               	bcf	3,5	;RP0=0, select bank0
  1673  040E  1303               	bcf	3,6	;RP1=0, select bank0
  1674  040F  00B2               	movwf	??_setup+1
  1675  0410  30F7               	movlw	247
  1676  0411  00B1               	movwf	??_setup
  1677  0412                     u1447:
  1678  0412  0BB1               	decfsz	??_setup,f
  1679  0413  2C12               	goto	u1447
  1680  0414  0BB2               	decfsz	??_setup+1,f
  1681  0415  2C12               	goto	u1447
  1682  0416  2C17               	nop2
  1683  0417                     l2618:
  1684                           
  1685                           ;C:/Users/Andy Bonilla/Documents/GitHub/ED2/Proyecto1_ED2/PIC_maestro.X/main_mastre.c: 1
      +                          96:     I2C_Master_Start();
  1686  0417  120A  158A  2695  120A  118A  	fcall	_I2C_Master_Start
  1687  041C                     l2620:
  1688                           
  1689                           ;C:/Users/Andy Bonilla/Documents/GitHub/ED2/Proyecto1_ED2/PIC_maestro.X/main_mastre.c: 1
      +                          97:     I2C_Master_Write(0xD1);
  1690  041C  30D1               	movlw	209
  1691  041D  00F3               	movwf	I2C_Master_Write@d
  1692  041E  3000               	movlw	0
  1693  041F  00F4               	movwf	I2C_Master_Write@d+1
  1694  0420  120A  158A  26A7  120A  118A  	fcall	_I2C_Master_Write
  1695  0425                     l2622:
  1696                           
  1697                           ;C:/Users/Andy Bonilla/Documents/GitHub/ED2/Proyecto1_ED2/PIC_maestro.X/main_mastre.c: 1
      +                          98:     BASURA = I2C_Master_Read(0);
  1698  0425  3000               	movlw	0
  1699  0426  00F3               	movwf	I2C_Master_Read@a
  1700  0427  00F4               	movwf	I2C_Master_Read@a+1
  1701  0428  120A  158A  275F  120A  118A  	fcall	_I2C_Master_Read
  1702  042D  0873               	movf	?_I2C_Master_Read,w
  1703  042E  1283               	bcf	3,5	;RP0=0, select bank0
  1704  042F  1303               	bcf	3,6	;RP1=0, select bank0
  1705  0430  00B1               	movwf	??_setup
  1706  0431  0831               	movf	??_setup,w
  1707  0432  00CC               	movwf	_BASURA
  1708  0433                     l2624:
  1709                           
  1710                           ;C:/Users/Andy Bonilla/Documents/GitHub/ED2/Proyecto1_ED2/PIC_maestro.X/main_mastre.c: 1
      +                          99:     I2C_Master_Stop();
  1711  0433  120A  158A  269E  120A  118A  	fcall	_I2C_Master_Stop
  1712  0438                     l2626:
  1713                           
  1714                           ;C:/Users/Andy Bonilla/Documents/GitHub/ED2/Proyecto1_ED2/PIC_maestro.X/main_mastre.c: 2
      +                          00:     _delay((unsigned long)((10)*(8000000/4000.0)));
  1715  0438  301A               	movlw	26
  1716  0439  1283               	bcf	3,5	;RP0=0, select bank0
  1717  043A  1303               	bcf	3,6	;RP1=0, select bank0
  1718  043B  00B2               	movwf	??_setup+1
  1719  043C  30F7               	movlw	247
  1720  043D  00B1               	movwf	??_setup
  1721  043E                     u1457:
  1722  043E  0BB1               	decfsz	??_setup,f
  1723  043F  2C3E               	goto	u1457
  1724  0440  0BB2               	decfsz	??_setup+1,f
  1725  0441  2C3E               	goto	u1457
  1726  0442  2C43               	nop2
  1727  0443                     l2628:
  1728                           
  1729                           ;C:/Users/Andy Bonilla/Documents/GitHub/ED2/Proyecto1_ED2/PIC_maestro.X/main_mastre.c: 2
      +                          02:     I2C_Master_Start();
  1730  0443  120A  158A  2695  120A  118A  	fcall	_I2C_Master_Start
  1731  0448                     l2630:
  1732                           
  1733                           ;C:/Users/Andy Bonilla/Documents/GitHub/ED2/Proyecto1_ED2/PIC_maestro.X/main_mastre.c: 2
      +                          03:     I2C_Master_Write(0xD0);
  1734  0448  30D0               	movlw	208
  1735  0449  00F3               	movwf	I2C_Master_Write@d
  1736  044A  3000               	movlw	0
  1737  044B  00F4               	movwf	I2C_Master_Write@d+1
  1738  044C  120A  158A  26A7  120A  118A  	fcall	_I2C_Master_Write
  1739  0451                     l2632:
  1740                           
  1741                           ;C:/Users/Andy Bonilla/Documents/GitHub/ED2/Proyecto1_ED2/PIC_maestro.X/main_mastre.c: 2
      +                          04:     I2C_Master_Write(0x01);
  1742  0451  3001               	movlw	1
  1743  0452  00F3               	movwf	I2C_Master_Write@d
  1744  0453  3000               	movlw	0
  1745  0454  00F4               	movwf	I2C_Master_Write@d+1
  1746  0455  120A  158A  26A7  120A  118A  	fcall	_I2C_Master_Write
  1747  045A                     l2634:
  1748                           
  1749                           ;C:/Users/Andy Bonilla/Documents/GitHub/ED2/Proyecto1_ED2/PIC_maestro.X/main_mastre.c: 2
      +                          05:     I2C_Master_Write(0x59);
  1750  045A  3059               	movlw	89
  1751  045B  00F3               	movwf	I2C_Master_Write@d
  1752  045C  3000               	movlw	0
  1753  045D  00F4               	movwf	I2C_Master_Write@d+1
  1754  045E  120A  158A  26A7  120A  118A  	fcall	_I2C_Master_Write
  1755  0463                     l2636:
  1756                           
  1757                           ;C:/Users/Andy Bonilla/Documents/GitHub/ED2/Proyecto1_ED2/PIC_maestro.X/main_mastre.c: 2
      +                          06:     I2C_Master_Stop();
  1758  0463  120A  158A  269E  120A  118A  	fcall	_I2C_Master_Stop
  1759  0468                     l2638:
  1760                           
  1761                           ;C:/Users/Andy Bonilla/Documents/GitHub/ED2/Proyecto1_ED2/PIC_maestro.X/main_mastre.c: 2
      +                          07:     _delay((unsigned long)((10)*(8000000/4000.0)));
  1762  0468  301A               	movlw	26
  1763  0469  1283               	bcf	3,5	;RP0=0, select bank0
  1764  046A  1303               	bcf	3,6	;RP1=0, select bank0
  1765  046B  00B2               	movwf	??_setup+1
  1766  046C  30F7               	movlw	247
  1767  046D  00B1               	movwf	??_setup
  1768  046E                     u1467:
  1769  046E  0BB1               	decfsz	??_setup,f
  1770  046F  2C6E               	goto	u1467
  1771  0470  0BB2               	decfsz	??_setup+1,f
  1772  0471  2C6E               	goto	u1467
  1773  0472  2C73               	nop2
  1774  0473                     l2640:
  1775                           
  1776                           ;C:/Users/Andy Bonilla/Documents/GitHub/ED2/Proyecto1_ED2/PIC_maestro.X/main_mastre.c: 2
      +                          09:     I2C_Master_Start();
  1777  0473  120A  158A  2695  120A  118A  	fcall	_I2C_Master_Start
  1778  0478                     l2642:
  1779                           
  1780                           ;C:/Users/Andy Bonilla/Documents/GitHub/ED2/Proyecto1_ED2/PIC_maestro.X/main_mastre.c: 2
      +                          10:     I2C_Master_Write(0xD1);
  1781  0478  30D1               	movlw	209
  1782  0479  00F3               	movwf	I2C_Master_Write@d
  1783  047A  3000               	movlw	0
  1784  047B  00F4               	movwf	I2C_Master_Write@d+1
  1785  047C  120A  158A  26A7  120A  118A  	fcall	_I2C_Master_Write
  1786  0481                     l2644:
  1787                           
  1788                           ;C:/Users/Andy Bonilla/Documents/GitHub/ED2/Proyecto1_ED2/PIC_maestro.X/main_mastre.c: 2
      +                          11:     BASURA = I2C_Master_Read(0);
  1789  0481  3000               	movlw	0
  1790  0482  00F3               	movwf	I2C_Master_Read@a
  1791  0483  00F4               	movwf	I2C_Master_Read@a+1
  1792  0484  120A  158A  275F  120A  118A  	fcall	_I2C_Master_Read
  1793  0489  0873               	movf	?_I2C_Master_Read,w
  1794  048A  1283               	bcf	3,5	;RP0=0, select bank0
  1795  048B  1303               	bcf	3,6	;RP1=0, select bank0
  1796  048C  00B1               	movwf	??_setup
  1797  048D  0831               	movf	??_setup,w
  1798  048E  00CC               	movwf	_BASURA
  1799  048F                     l2646:
  1800                           
  1801                           ;C:/Users/Andy Bonilla/Documents/GitHub/ED2/Proyecto1_ED2/PIC_maestro.X/main_mastre.c: 2
      +                          12:     I2C_Master_Stop();
  1802  048F  120A  158A  269E  120A  118A  	fcall	_I2C_Master_Stop
  1803  0494                     l2648:
  1804                           
  1805                           ;C:/Users/Andy Bonilla/Documents/GitHub/ED2/Proyecto1_ED2/PIC_maestro.X/main_mastre.c: 2
      +                          13:     _delay((unsigned long)((10)*(8000000/4000.0)));
  1806  0494  301A               	movlw	26
  1807  0495  1283               	bcf	3,5	;RP0=0, select bank0
  1808  0496  1303               	bcf	3,6	;RP1=0, select bank0
  1809  0497  00B2               	movwf	??_setup+1
  1810  0498  30F7               	movlw	247
  1811  0499  00B1               	movwf	??_setup
  1812  049A                     u1477:
  1813  049A  0BB1               	decfsz	??_setup,f
  1814  049B  2C9A               	goto	u1477
  1815  049C  0BB2               	decfsz	??_setup+1,f
  1816  049D  2C9A               	goto	u1477
  1817  049E  2C9F               	nop2
  1818  049F                     l2650:
  1819                           
  1820                           ;C:/Users/Andy Bonilla/Documents/GitHub/ED2/Proyecto1_ED2/PIC_maestro.X/main_mastre.c: 2
      +                          15:     I2C_Master_Start();
  1821  049F  120A  158A  2695  120A  118A  	fcall	_I2C_Master_Start
  1822  04A4                     l2652:
  1823                           
  1824                           ;C:/Users/Andy Bonilla/Documents/GitHub/ED2/Proyecto1_ED2/PIC_maestro.X/main_mastre.c: 2
      +                          16:     I2C_Master_Write(0xD0);
  1825  04A4  30D0               	movlw	208
  1826  04A5  00F3               	movwf	I2C_Master_Write@d
  1827  04A6  3000               	movlw	0
  1828  04A7  00F4               	movwf	I2C_Master_Write@d+1
  1829  04A8  120A  158A  26A7  120A  118A  	fcall	_I2C_Master_Write
  1830  04AD                     l2654:
  1831                           
  1832                           ;C:/Users/Andy Bonilla/Documents/GitHub/ED2/Proyecto1_ED2/PIC_maestro.X/main_mastre.c: 2
      +                          17:     I2C_Master_Write(0x00);
  1833  04AD  3000               	movlw	0
  1834  04AE  00F3               	movwf	I2C_Master_Write@d
  1835  04AF  00F4               	movwf	I2C_Master_Write@d+1
  1836  04B0  120A  158A  26A7  120A  118A  	fcall	_I2C_Master_Write
  1837  04B5                     l2656:
  1838                           
  1839                           ;C:/Users/Andy Bonilla/Documents/GitHub/ED2/Proyecto1_ED2/PIC_maestro.X/main_mastre.c: 2
      +                          18:     I2C_Master_Write(0x58);
  1840  04B5  3058               	movlw	88
  1841  04B6  00F3               	movwf	I2C_Master_Write@d
  1842  04B7  3000               	movlw	0
  1843  04B8  00F4               	movwf	I2C_Master_Write@d+1
  1844  04B9  120A  158A  26A7  120A  118A  	fcall	_I2C_Master_Write
  1845  04BE                     l2658:
  1846                           
  1847                           ;C:/Users/Andy Bonilla/Documents/GitHub/ED2/Proyecto1_ED2/PIC_maestro.X/main_mastre.c: 2
      +                          19:     I2C_Master_Stop();
  1848  04BE  120A  158A  269E  120A  118A  	fcall	_I2C_Master_Stop
  1849  04C3                     l2660:
  1850                           
  1851                           ;C:/Users/Andy Bonilla/Documents/GitHub/ED2/Proyecto1_ED2/PIC_maestro.X/main_mastre.c: 2
      +                          20:     _delay((unsigned long)((10)*(8000000/4000.0)));
  1852  04C3  301A               	movlw	26
  1853  04C4  1283               	bcf	3,5	;RP0=0, select bank0
  1854  04C5  1303               	bcf	3,6	;RP1=0, select bank0
  1855  04C6  00B2               	movwf	??_setup+1
  1856  04C7  30F7               	movlw	247
  1857  04C8  00B1               	movwf	??_setup
  1858  04C9                     u1487:
  1859  04C9  0BB1               	decfsz	??_setup,f
  1860  04CA  2CC9               	goto	u1487
  1861  04CB  0BB2               	decfsz	??_setup+1,f
  1862  04CC  2CC9               	goto	u1487
  1863  04CD  2CCE               	nop2
  1864  04CE                     l2662:
  1865                           
  1866                           ;C:/Users/Andy Bonilla/Documents/GitHub/ED2/Proyecto1_ED2/PIC_maestro.X/main_mastre.c: 2
      +                          22:     I2C_Master_Start();
  1867  04CE  120A  158A  2695  120A  118A  	fcall	_I2C_Master_Start
  1868  04D3                     l2664:
  1869                           
  1870                           ;C:/Users/Andy Bonilla/Documents/GitHub/ED2/Proyecto1_ED2/PIC_maestro.X/main_mastre.c: 2
      +                          23:     I2C_Master_Write(0xD1);
  1871  04D3  30D1               	movlw	209
  1872  04D4  00F3               	movwf	I2C_Master_Write@d
  1873  04D5  3000               	movlw	0
  1874  04D6  00F4               	movwf	I2C_Master_Write@d+1
  1875  04D7  120A  158A  26A7  120A  118A  	fcall	_I2C_Master_Write
  1876  04DC                     l2666:
  1877                           
  1878                           ;C:/Users/Andy Bonilla/Documents/GitHub/ED2/Proyecto1_ED2/PIC_maestro.X/main_mastre.c: 2
      +                          24:     BASURA = I2C_Master_Read(0);
  1879  04DC  3000               	movlw	0
  1880  04DD  00F3               	movwf	I2C_Master_Read@a
  1881  04DE  00F4               	movwf	I2C_Master_Read@a+1
  1882  04DF  120A  158A  275F  120A  118A  	fcall	_I2C_Master_Read
  1883  04E4  0873               	movf	?_I2C_Master_Read,w
  1884  04E5  1283               	bcf	3,5	;RP0=0, select bank0
  1885  04E6  1303               	bcf	3,6	;RP1=0, select bank0
  1886  04E7  00B1               	movwf	??_setup
  1887  04E8  0831               	movf	??_setup,w
  1888  04E9  00CC               	movwf	_BASURA
  1889  04EA                     l2668:
  1890                           
  1891                           ;C:/Users/Andy Bonilla/Documents/GitHub/ED2/Proyecto1_ED2/PIC_maestro.X/main_mastre.c: 2
      +                          25:     I2C_Master_Stop();
  1892  04EA  120A  158A  269E  120A  118A  	fcall	_I2C_Master_Stop
  1893  04EF                     l2670:
  1894                           
  1895                           ;C:/Users/Andy Bonilla/Documents/GitHub/ED2/Proyecto1_ED2/PIC_maestro.X/main_mastre.c: 2
      +                          26:     _delay((unsigned long)((10)*(8000000/4000.0)));
  1896  04EF  301A               	movlw	26
  1897  04F0  1283               	bcf	3,5	;RP0=0, select bank0
  1898  04F1  1303               	bcf	3,6	;RP1=0, select bank0
  1899  04F2  00B2               	movwf	??_setup+1
  1900  04F3  30F7               	movlw	247
  1901  04F4  00B1               	movwf	??_setup
  1902  04F5                     u1497:
  1903  04F5  0BB1               	decfsz	??_setup,f
  1904  04F6  2CF5               	goto	u1497
  1905  04F7  0BB2               	decfsz	??_setup+1,f
  1906  04F8  2CF5               	goto	u1497
  1907  04F9  2CFA               	nop2
  1908  04FA                     l2672:
  1909                           
  1910                           ;C:/Users/Andy Bonilla/Documents/GitHub/ED2/Proyecto1_ED2/PIC_maestro.X/main_mastre.c: 2
      +                          28:     I2C_Master_Start();
  1911  04FA  120A  158A  2695  120A  118A  	fcall	_I2C_Master_Start
  1912  04FF                     l2674:
  1913                           
  1914                           ;C:/Users/Andy Bonilla/Documents/GitHub/ED2/Proyecto1_ED2/PIC_maestro.X/main_mastre.c: 2
      +                          29:     I2C_Master_Write(0xD0);
  1915  04FF  30D0               	movlw	208
  1916  0500  00F3               	movwf	I2C_Master_Write@d
  1917  0501  3000               	movlw	0
  1918  0502  00F4               	movwf	I2C_Master_Write@d+1
  1919  0503  120A  158A  26A7  120A  118A  	fcall	_I2C_Master_Write
  1920  0508                     l2676:
  1921                           
  1922                           ;C:/Users/Andy Bonilla/Documents/GitHub/ED2/Proyecto1_ED2/PIC_maestro.X/main_mastre.c: 2
      +                          30:     I2C_Master_Write(0x03);
  1923  0508  3003               	movlw	3
  1924  0509  00F3               	movwf	I2C_Master_Write@d
  1925  050A  3000               	movlw	0
  1926  050B  00F4               	movwf	I2C_Master_Write@d+1
  1927  050C  120A  158A  26A7  120A  118A  	fcall	_I2C_Master_Write
  1928  0511                     l2678:
  1929                           
  1930                           ;C:/Users/Andy Bonilla/Documents/GitHub/ED2/Proyecto1_ED2/PIC_maestro.X/main_mastre.c: 2
      +                          31:     I2C_Master_Write(0x06);
  1931  0511  3006               	movlw	6
  1932  0512  00F3               	movwf	I2C_Master_Write@d
  1933  0513  3000               	movlw	0
  1934  0514  00F4               	movwf	I2C_Master_Write@d+1
  1935  0515  120A  158A  26A7  120A  118A  	fcall	_I2C_Master_Write
  1936  051A                     l2680:
  1937                           
  1938                           ;C:/Users/Andy Bonilla/Documents/GitHub/ED2/Proyecto1_ED2/PIC_maestro.X/main_mastre.c: 2
      +                          32:     I2C_Master_Stop();
  1939  051A  120A  158A  269E  120A  118A  	fcall	_I2C_Master_Stop
  1940  051F                     l2682:
  1941                           
  1942                           ;C:/Users/Andy Bonilla/Documents/GitHub/ED2/Proyecto1_ED2/PIC_maestro.X/main_mastre.c: 2
      +                          33:     _delay((unsigned long)((10)*(8000000/4000.0)));
  1943  051F  301A               	movlw	26
  1944  0520  1283               	bcf	3,5	;RP0=0, select bank0
  1945  0521  1303               	bcf	3,6	;RP1=0, select bank0
  1946  0522  00B2               	movwf	??_setup+1
  1947  0523  30F7               	movlw	247
  1948  0524  00B1               	movwf	??_setup
  1949  0525                     u1507:
  1950  0525  0BB1               	decfsz	??_setup,f
  1951  0526  2D25               	goto	u1507
  1952  0527  0BB2               	decfsz	??_setup+1,f
  1953  0528  2D25               	goto	u1507
  1954  0529  2D2A               	nop2
  1955  052A                     l2684:
  1956                           
  1957                           ;C:/Users/Andy Bonilla/Documents/GitHub/ED2/Proyecto1_ED2/PIC_maestro.X/main_mastre.c: 2
      +                          35:     I2C_Master_Start();
  1958  052A  120A  158A  2695  120A  118A  	fcall	_I2C_Master_Start
  1959  052F                     l2686:
  1960                           
  1961                           ;C:/Users/Andy Bonilla/Documents/GitHub/ED2/Proyecto1_ED2/PIC_maestro.X/main_mastre.c: 2
      +                          36:     I2C_Master_Write(0xD1);
  1962  052F  30D1               	movlw	209
  1963  0530  00F3               	movwf	I2C_Master_Write@d
  1964  0531  3000               	movlw	0
  1965  0532  00F4               	movwf	I2C_Master_Write@d+1
  1966  0533  120A  158A  26A7  120A  118A  	fcall	_I2C_Master_Write
  1967  0538                     l2688:
  1968                           
  1969                           ;C:/Users/Andy Bonilla/Documents/GitHub/ED2/Proyecto1_ED2/PIC_maestro.X/main_mastre.c: 2
      +                          37:     BASURA = I2C_Master_Read(0);
  1970  0538  3000               	movlw	0
  1971  0539  00F3               	movwf	I2C_Master_Read@a
  1972  053A  00F4               	movwf	I2C_Master_Read@a+1
  1973  053B  120A  158A  275F  120A  118A  	fcall	_I2C_Master_Read
  1974  0540  0873               	movf	?_I2C_Master_Read,w
  1975  0541  1283               	bcf	3,5	;RP0=0, select bank0
  1976  0542  1303               	bcf	3,6	;RP1=0, select bank0
  1977  0543  00B1               	movwf	??_setup
  1978  0544  0831               	movf	??_setup,w
  1979  0545  00CC               	movwf	_BASURA
  1980  0546                     l2690:
  1981                           
  1982                           ;C:/Users/Andy Bonilla/Documents/GitHub/ED2/Proyecto1_ED2/PIC_maestro.X/main_mastre.c: 2
      +                          38:     I2C_Master_Stop();
  1983  0546  120A  158A  269E  120A  118A  	fcall	_I2C_Master_Stop
  1984  054B                     l2692:
  1985                           
  1986                           ;C:/Users/Andy Bonilla/Documents/GitHub/ED2/Proyecto1_ED2/PIC_maestro.X/main_mastre.c: 2
      +                          39:     _delay((unsigned long)((10)*(8000000/4000.0)));
  1987  054B  301A               	movlw	26
  1988  054C  1283               	bcf	3,5	;RP0=0, select bank0
  1989  054D  1303               	bcf	3,6	;RP1=0, select bank0
  1990  054E  00B2               	movwf	??_setup+1
  1991  054F  30F7               	movlw	247
  1992  0550  00B1               	movwf	??_setup
  1993  0551                     u1517:
  1994  0551  0BB1               	decfsz	??_setup,f
  1995  0552  2D51               	goto	u1517
  1996  0553  0BB2               	decfsz	??_setup+1,f
  1997  0554  2D51               	goto	u1517
  1998  0555  2D56               	nop2
  1999  0556                     l117:
  2000  0556  0008               	return
  2001  0557                     __end_of_setup:
  2002                           
  2003                           	psect	text2
  2004  0EE5                     __ptext2:	
  2005 ;; *************** function _uart_config *****************
  2006 ;; Defined at:
  2007 ;;		line 21 in file "C:/Users/Andy Bonilla/Documents/GitHub/ED2/Proyecto1_ED2/PIC_maestro.X/UART_CONFIG.c"
  2008 ;; Parameters:    Size  Location     Type
  2009 ;;		None
  2010 ;; Auto vars:     Size  Location     Type
  2011 ;;		None
  2012 ;; Return value:  Size  Location     Type
  2013 ;;                  1    wreg      void 
  2014 ;; Registers used:
  2015 ;;		wreg, status,2
  2016 ;; Tracked objects:
  2017 ;;		On entry : 0/0
  2018 ;;		On exit  : 0/0
  2019 ;;		Unchanged: 0/0
  2020 ;; Data sizes:     COMMON   BANK0   BANK1   BANK3   BANK2
  2021 ;;      Params:         0       0       0       0       0
  2022 ;;      Locals:         0       0       0       0       0
  2023 ;;      Temps:          0       0       0       0       0
  2024 ;;      Totals:         0       0       0       0       0
  2025 ;;Total ram usage:        0 bytes
  2026 ;; Hardware stack levels used: 1
  2027 ;; Hardware stack levels required when called: 1
  2028 ;; This function calls:
  2029 ;;		Nothing
  2030 ;; This function is called by:
  2031 ;;		_setup
  2032 ;; This function uses a non-reentrant model
  2033 ;;
  2034                           
  2035                           
  2036                           ;psect for function _uart_config
  2037  0EE5                     _uart_config:
  2038  0EE5                     l1768:	
  2039                           ;incstack = 0
  2040                           ; Regs used in _uart_config: [wreg+status,2]
  2041                           
  2042                           
  2043                           ;C:/Users/Andy Bonilla/Documents/GitHub/ED2/Proyecto1_ED2/PIC_maestro.X/UART_CONFIG.c: 2
      +                          4:     TXSTAbits.SYNC = 0;
  2044  0EE5  1683               	bsf	3,5	;RP0=1, select bank1
  2045  0EE6  1303               	bcf	3,6	;RP1=0, select bank1
  2046  0EE7  1218               	bcf	24,4	;volatile
  2047                           
  2048                           ;C:/Users/Andy Bonilla/Documents/GitHub/ED2/Proyecto1_ED2/PIC_maestro.X/UART_CONFIG.c: 2
      +                          5:  TXSTAbits.BRGH = 1;
  2049  0EE8  1518               	bsf	24,2	;volatile
  2050                           
  2051                           ;C:/Users/Andy Bonilla/Documents/GitHub/ED2/Proyecto1_ED2/PIC_maestro.X/UART_CONFIG.c: 2
      +                          6:  TXSTAbits.TX9 = 0;
  2052  0EE9  1318               	bcf	24,6	;volatile
  2053                           
  2054                           ;C:/Users/Andy Bonilla/Documents/GitHub/ED2/Proyecto1_ED2/PIC_maestro.X/UART_CONFIG.c: 2
      +                          7:  BAUDCTLbits.BRG16 = 0;
  2055  0EEA  1683               	bsf	3,5	;RP0=1, select bank3
  2056  0EEB  1703               	bsf	3,6	;RP1=1, select bank3
  2057  0EEC  1187               	bcf	7,3	;volatile
  2058  0EED                     l1770:
  2059                           
  2060                           ;C:/Users/Andy Bonilla/Documents/GitHub/ED2/Proyecto1_ED2/PIC_maestro.X/UART_CONFIG.c: 2
      +                          8:  SPBRGH = 0;
  2061  0EED  1683               	bsf	3,5	;RP0=1, select bank1
  2062  0EEE  1303               	bcf	3,6	;RP1=0, select bank1
  2063  0EEF  019A               	clrf	26	;volatile
  2064  0EF0                     l1772:
  2065                           
  2066                           ;C:/Users/Andy Bonilla/Documents/GitHub/ED2/Proyecto1_ED2/PIC_maestro.X/UART_CONFIG.c: 2
      +                          9:  SPBRG = 25;
  2067  0EF0  3019               	movlw	25
  2068  0EF1  0099               	movwf	25	;volatile
  2069  0EF2                     l1774:
  2070                           
  2071                           ;C:/Users/Andy Bonilla/Documents/GitHub/ED2/Proyecto1_ED2/PIC_maestro.X/UART_CONFIG.c: 3
      +                          1:  RCSTAbits.SPEN = 1;
  2072  0EF2  1283               	bcf	3,5	;RP0=0, select bank0
  2073  0EF3  1303               	bcf	3,6	;RP1=0, select bank0
  2074  0EF4  1798               	bsf	24,7	;volatile
  2075  0EF5                     l1776:
  2076                           
  2077                           ;C:/Users/Andy Bonilla/Documents/GitHub/ED2/Proyecto1_ED2/PIC_maestro.X/UART_CONFIG.c: 3
      +                          2:  RCSTAbits.RX9 = 0;
  2078  0EF5  1318               	bcf	24,6	;volatile
  2079  0EF6                     l1778:
  2080                           
  2081                           ;C:/Users/Andy Bonilla/Documents/GitHub/ED2/Proyecto1_ED2/PIC_maestro.X/UART_CONFIG.c: 3
      +                          3:  RCSTAbits.CREN = 0;
  2082  0EF6  1218               	bcf	24,4	;volatile
  2083  0EF7                     l1780:
  2084                           
  2085                           ;C:/Users/Andy Bonilla/Documents/GitHub/ED2/Proyecto1_ED2/PIC_maestro.X/UART_CONFIG.c: 3
      +                          4:  TXSTAbits.TXEN = 1;
  2086  0EF7  1683               	bsf	3,5	;RP0=1, select bank1
  2087  0EF8  1303               	bcf	3,6	;RP1=0, select bank1
  2088  0EF9  1698               	bsf	24,5	;volatile
  2089  0EFA                     l308:
  2090  0EFA  0008               	return
  2091  0EFB                     __end_of_uart_config:
  2092                           
  2093                           	psect	text3
  2094  0F8F                     __ptext3:	
  2095 ;; *************** function _osc_config *****************
  2096 ;; Defined at:
  2097 ;;		line 16 in file "C:/Users/Andy Bonilla/Documents/GitHub/ED2/Proyecto1_ED2/PIC_maestro.X/Osc_config.c"
  2098 ;; Parameters:    Size  Location     Type
  2099 ;;  freq            1    wreg     unsigned char 
  2100 ;; Auto vars:     Size  Location     Type
  2101 ;;  freq            1    5[COMMON] unsigned char 
  2102 ;; Return value:  Size  Location     Type
  2103 ;;                  1    wreg      void 
  2104 ;; Registers used:
  2105 ;;		wreg, fsr0l, fsr0h, status,2, status,0
  2106 ;; Tracked objects:
  2107 ;;		On entry : 0/0
  2108 ;;		On exit  : 0/0
  2109 ;;		Unchanged: 0/0
  2110 ;; Data sizes:     COMMON   BANK0   BANK1   BANK3   BANK2
  2111 ;;      Params:         0       0       0       0       0
  2112 ;;      Locals:         1       0       0       0       0
  2113 ;;      Temps:          2       0       0       0       0
  2114 ;;      Totals:         3       0       0       0       0
  2115 ;;Total ram usage:        3 bytes
  2116 ;; Hardware stack levels used: 1
  2117 ;; Hardware stack levels required when called: 1
  2118 ;; This function calls:
  2119 ;;		Nothing
  2120 ;; This function is called by:
  2121 ;;		_setup
  2122 ;; This function uses a non-reentrant model
  2123 ;;
  2124                           
  2125                           
  2126                           ;psect for function _osc_config
  2127  0F8F                     _osc_config:
  2128                           
  2129                           ;incstack = 0
  2130                           ; Regs used in _osc_config: [wreg-fsr0h+status,2+status,0]
  2131                           ;osc_config@freq stored from wreg
  2132  0F8F  00F5               	movwf	osc_config@freq
  2133  0F90                     l1742:
  2134                           
  2135                           ;C:/Users/Andy Bonilla/Documents/GitHub/ED2/Proyecto1_ED2/PIC_maestro.X/Osc_config.c: 16
      +                          : void osc_config(uint8_t freq);C:/Users/Andy Bonilla/Documents/GitHub/ED2/Proyecto1_ED2
      +                          /PIC_maestro.X/Osc_config.c: 17: {;C:/Users/Andy Bonilla/Documents/GitHub/ED2/Proyecto1_
      +                          ED2/PIC_maestro.X/Osc_config.c: 18:     switch(freq)
  2136  0F90  2FAF               	goto	l1762
  2137  0F91                     l1744:
  2138                           
  2139                           ;C:/Users/Andy Bonilla/Documents/GitHub/ED2/Proyecto1_ED2/PIC_maestro.X/Osc_config.c: 21
      +                          :             OSCCONbits.IRCF=0b100;
  2140  0F91  1683               	bsf	3,5	;RP0=1, select bank1
  2141  0F92  1303               	bcf	3,6	;RP1=0, select bank1
  2142  0F93  080F               	movf	15,w	;volatile
  2143  0F94  398F               	andlw	-113
  2144  0F95  3840               	iorlw	64
  2145  0F96  008F               	movwf	15	;volatile
  2146  0F97                     l1746:
  2147                           
  2148                           ;C:/Users/Andy Bonilla/Documents/GitHub/ED2/Proyecto1_ED2/PIC_maestro.X/Osc_config.c: 22
      +                          :             OSCCONbits.SCS=1;
  2149  0F97  140F               	bsf	15,0	;volatile
  2150                           
  2151                           ;C:/Users/Andy Bonilla/Documents/GitHub/ED2/Proyecto1_ED2/PIC_maestro.X/Osc_config.c: 23
      +                          :             break;
  2152  0F98  2FC5               	goto	l295
  2153  0F99                     l1748:
  2154                           
  2155                           ;C:/Users/Andy Bonilla/Documents/GitHub/ED2/Proyecto1_ED2/PIC_maestro.X/Osc_config.c: 26
      +                          :             OSCCONbits.IRCF=0b101;
  2156  0F99  1683               	bsf	3,5	;RP0=1, select bank1
  2157  0F9A  1303               	bcf	3,6	;RP1=0, select bank1
  2158  0F9B  080F               	movf	15,w	;volatile
  2159  0F9C  398F               	andlw	-113
  2160  0F9D  3850               	iorlw	80
  2161  0F9E  008F               	movwf	15	;volatile
  2162  0F9F                     l1750:
  2163                           
  2164                           ;C:/Users/Andy Bonilla/Documents/GitHub/ED2/Proyecto1_ED2/PIC_maestro.X/Osc_config.c: 27
      +                          :             OSCCONbits.SCS=1;
  2165  0F9F  140F               	bsf	15,0	;volatile
  2166                           
  2167                           ;C:/Users/Andy Bonilla/Documents/GitHub/ED2/Proyecto1_ED2/PIC_maestro.X/Osc_config.c: 28
      +                          :             break;
  2168  0FA0  2FC5               	goto	l295
  2169  0FA1                     l1752:
  2170                           
  2171                           ;C:/Users/Andy Bonilla/Documents/GitHub/ED2/Proyecto1_ED2/PIC_maestro.X/Osc_config.c: 31
      +                          :             OSCCONbits.IRCF=0b110;
  2172  0FA1  1683               	bsf	3,5	;RP0=1, select bank1
  2173  0FA2  1303               	bcf	3,6	;RP1=0, select bank1
  2174  0FA3  080F               	movf	15,w	;volatile
  2175  0FA4  398F               	andlw	-113
  2176  0FA5  3860               	iorlw	96
  2177  0FA6  008F               	movwf	15	;volatile
  2178  0FA7                     l1754:
  2179                           
  2180                           ;C:/Users/Andy Bonilla/Documents/GitHub/ED2/Proyecto1_ED2/PIC_maestro.X/Osc_config.c: 32
      +                          :             OSCCONbits.SCS=1;
  2181  0FA7  140F               	bsf	15,0	;volatile
  2182                           
  2183                           ;C:/Users/Andy Bonilla/Documents/GitHub/ED2/Proyecto1_ED2/PIC_maestro.X/Osc_config.c: 33
      +                          :             break;
  2184  0FA8  2FC5               	goto	l295
  2185  0FA9                     l1756:
  2186                           
  2187                           ;C:/Users/Andy Bonilla/Documents/GitHub/ED2/Proyecto1_ED2/PIC_maestro.X/Osc_config.c: 36
      +                          :             OSCCONbits.IRCF=0b111;
  2188  0FA9  3070               	movlw	112
  2189  0FAA  1683               	bsf	3,5	;RP0=1, select bank1
  2190  0FAB  1303               	bcf	3,6	;RP1=0, select bank1
  2191  0FAC  048F               	iorwf	15,f	;volatile
  2192  0FAD                     l1758:
  2193                           
  2194                           ;C:/Users/Andy Bonilla/Documents/GitHub/ED2/Proyecto1_ED2/PIC_maestro.X/Osc_config.c: 37
      +                          :             OSCCONbits.SCS=1;
  2195  0FAD  140F               	bsf	15,0	;volatile
  2196                           
  2197                           ;C:/Users/Andy Bonilla/Documents/GitHub/ED2/Proyecto1_ED2/PIC_maestro.X/Osc_config.c: 38
      +                          :             break;
  2198  0FAE  2FC5               	goto	l295
  2199  0FAF                     l1762:
  2200  0FAF  0875               	movf	osc_config@freq,w
  2201  0FB0  00F3               	movwf	??_osc_config
  2202  0FB1  01F4               	clrf	??_osc_config+1
  2203                           
  2204                           ; Switch on 2 bytes has been partitioned into a top level switch of size 1, and 1 sub-sw
      +                          itches
  2205                           ; Switch size 1, requested type "simple"
  2206                           ; Number of cases is 1, Range of values is 0 to 0
  2207                           ; switch strategies available:
  2208                           ; Name         Instructions Cycles
  2209                           ; simple_byte            4     3 (average)
  2210                           ; direct_byte           11     8 (fixed)
  2211                           ; jumptable            260     6 (fixed)
  2212                           ;	Chosen strategy is simple_byte
  2213  0FB2  0874               	movf	??_osc_config+1,w
  2214  0FB3  3A00               	xorlw	0	; case 0
  2215  0FB4  1903               	skipnz
  2216  0FB5  2FB7               	goto	l2930
  2217  0FB6  2FC5               	goto	l295
  2218  0FB7                     l2930:
  2219                           
  2220                           ; Switch size 1, requested type "simple"
  2221                           ; Number of cases is 4, Range of values is 1 to 8
  2222                           ; switch strategies available:
  2223                           ; Name         Instructions Cycles
  2224                           ; simple_byte           13     7 (average)
  2225                           ; direct_byte           35    11 (fixed)
  2226                           ; jumptable            263     9 (fixed)
  2227                           ;	Chosen strategy is simple_byte
  2228  0FB7  0873               	movf	??_osc_config,w
  2229  0FB8  3A01               	xorlw	1	; case 1
  2230  0FB9  1903               	skipnz
  2231  0FBA  2F91               	goto	l1744
  2232  0FBB  3A03               	xorlw	3	; case 2
  2233  0FBC  1903               	skipnz
  2234  0FBD  2F99               	goto	l1748
  2235  0FBE  3A06               	xorlw	6	; case 4
  2236  0FBF  1903               	skipnz
  2237  0FC0  2FA1               	goto	l1752
  2238  0FC1  3A0C               	xorlw	12	; case 8
  2239  0FC2  1903               	skipnz
  2240  0FC3  2FA9               	goto	l1756
  2241  0FC4  2FC5               	goto	l295
  2242  0FC5                     l295:
  2243  0FC5  0008               	return
  2244  0FC6                     __end_of_osc_config:
  2245                           
  2246                           	psect	text4
  2247  0EA7                     __ptext4:	
  2248 ;; *************** function _I2C_Master_Write *****************
  2249 ;; Defined at:
  2250 ;;		line 65 in file "C:/Users/Andy Bonilla/Documents/GitHub/ED2/Proyecto1_ED2/PIC_maestro.X/I2C.c"
  2251 ;; Parameters:    Size  Location     Type
  2252 ;;  d               2    3[COMMON] unsigned int 
  2253 ;; Auto vars:     Size  Location     Type
  2254 ;;		None
  2255 ;; Return value:  Size  Location     Type
  2256 ;;                  1    wreg      void 
  2257 ;; Registers used:
  2258 ;;		wreg, status,2, status,0, pclath, cstack
  2259 ;; Tracked objects:
  2260 ;;		On entry : 0/0
  2261 ;;		On exit  : 0/0
  2262 ;;		Unchanged: 0/0
  2263 ;; Data sizes:     COMMON   BANK0   BANK1   BANK3   BANK2
  2264 ;;      Params:         2       0       0       0       0
  2265 ;;      Locals:         0       0       0       0       0
  2266 ;;      Temps:          0       0       0       0       0
  2267 ;;      Totals:         2       0       0       0       0
  2268 ;;Total ram usage:        2 bytes
  2269 ;; Hardware stack levels used: 1
  2270 ;; Hardware stack levels required when called: 2
  2271 ;; This function calls:
  2272 ;;		_I2C_Master_Wait
  2273 ;; This function is called by:
  2274 ;;		_main
  2275 ;;		_setup
  2276 ;; This function uses a non-reentrant model
  2277 ;;
  2278                           
  2279                           
  2280                           ;psect for function _I2C_Master_Write
  2281  0EA7                     _I2C_Master_Write:
  2282  0EA7                     l2488:	
  2283                           ;incstack = 0
  2284                           ; Regs used in _I2C_Master_Write: [wreg+status,2+status,0+pclath+cstack]
  2285                           
  2286                           
  2287                           ;C:/Users/Andy Bonilla/Documents/GitHub/ED2/Proyecto1_ED2/PIC_maestro.X/I2C.c: 65: void 
      +                          I2C_Master_Write(unsigned d);C:/Users/Andy Bonilla/Documents/GitHub/ED2/Proyecto1_ED2/PI
      +                          C_maestro.X/I2C.c: 66: {;C:/Users/Andy Bonilla/Documents/GitHub/ED2/Proyecto1_ED2/PIC_ma
      +                          estro.X/I2C.c: 67:     I2C_Master_Wait();
  2288  0EA7  120A  158A  26B1  120A  158A  	fcall	_I2C_Master_Wait
  2289  0EAC                     l2490:
  2290                           
  2291                           ;C:/Users/Andy Bonilla/Documents/GitHub/ED2/Proyecto1_ED2/PIC_maestro.X/I2C.c: 68:     S
      +                          SPBUF = d;
  2292  0EAC  0873               	movf	I2C_Master_Write@d,w
  2293  0EAD  1283               	bcf	3,5	;RP0=0, select bank0
  2294  0EAE  1303               	bcf	3,6	;RP1=0, select bank0
  2295  0EAF  0093               	movwf	19	;volatile
  2296  0EB0                     l276:
  2297  0EB0  0008               	return
  2298  0EB1                     __end_of_I2C_Master_Write:
  2299                           
  2300                           	psect	text5
  2301  0E9E                     __ptext5:	
  2302 ;; *************** function _I2C_Master_Stop *****************
  2303 ;; Defined at:
  2304 ;;		line 55 in file "C:/Users/Andy Bonilla/Documents/GitHub/ED2/Proyecto1_ED2/PIC_maestro.X/I2C.c"
  2305 ;; Parameters:    Size  Location     Type
  2306 ;;		None
  2307 ;; Auto vars:     Size  Location     Type
  2308 ;;		None
  2309 ;; Return value:  Size  Location     Type
  2310 ;;                  1    wreg      void 
  2311 ;; Registers used:
  2312 ;;		wreg, status,2, status,0, pclath, cstack
  2313 ;; Tracked objects:
  2314 ;;		On entry : 0/0
  2315 ;;		On exit  : 0/0
  2316 ;;		Unchanged: 0/0
  2317 ;; Data sizes:     COMMON   BANK0   BANK1   BANK3   BANK2
  2318 ;;      Params:         0       0       0       0       0
  2319 ;;      Locals:         0       0       0       0       0
  2320 ;;      Temps:          0       0       0       0       0
  2321 ;;      Totals:         0       0       0       0       0
  2322 ;;Total ram usage:        0 bytes
  2323 ;; Hardware stack levels used: 1
  2324 ;; Hardware stack levels required when called: 2
  2325 ;; This function calls:
  2326 ;;		_I2C_Master_Wait
  2327 ;; This function is called by:
  2328 ;;		_main
  2329 ;;		_setup
  2330 ;; This function uses a non-reentrant model
  2331 ;;
  2332                           
  2333                           
  2334                           ;psect for function _I2C_Master_Stop
  2335  0E9E                     _I2C_Master_Stop:
  2336  0E9E                     l2492:	
  2337                           ;incstack = 0
  2338                           ; Regs used in _I2C_Master_Stop: [wreg+status,2+status,0+pclath+cstack]
  2339                           
  2340                           
  2341                           ;C:/Users/Andy Bonilla/Documents/GitHub/ED2/Proyecto1_ED2/PIC_maestro.X/I2C.c: 57:     I
      +                          2C_Master_Wait();
  2342  0E9E  120A  158A  26B1  120A  158A  	fcall	_I2C_Master_Wait
  2343  0EA3                     l2494:
  2344                           
  2345                           ;C:/Users/Andy Bonilla/Documents/GitHub/ED2/Proyecto1_ED2/PIC_maestro.X/I2C.c: 58:     S
      +                          SPCON2bits.PEN = 1;
  2346  0EA3  1683               	bsf	3,5	;RP0=1, select bank1
  2347  0EA4  1303               	bcf	3,6	;RP1=0, select bank1
  2348  0EA5  1511               	bsf	17,2	;volatile
  2349  0EA6                     l273:
  2350  0EA6  0008               	return
  2351  0EA7                     __end_of_I2C_Master_Stop:
  2352                           
  2353                           	psect	text6
  2354  0E95                     __ptext6:	
  2355 ;; *************** function _I2C_Master_Start *****************
  2356 ;; Defined at:
  2357 ;;		line 39 in file "C:/Users/Andy Bonilla/Documents/GitHub/ED2/Proyecto1_ED2/PIC_maestro.X/I2C.c"
  2358 ;; Parameters:    Size  Location     Type
  2359 ;;		None
  2360 ;; Auto vars:     Size  Location     Type
  2361 ;;		None
  2362 ;; Return value:  Size  Location     Type
  2363 ;;                  1    wreg      void 
  2364 ;; Registers used:
  2365 ;;		wreg, status,2, status,0, pclath, cstack
  2366 ;; Tracked objects:
  2367 ;;		On entry : 0/0
  2368 ;;		On exit  : 0/0
  2369 ;;		Unchanged: 0/0
  2370 ;; Data sizes:     COMMON   BANK0   BANK1   BANK3   BANK2
  2371 ;;      Params:         0       0       0       0       0
  2372 ;;      Locals:         0       0       0       0       0
  2373 ;;      Temps:          0       0       0       0       0
  2374 ;;      Totals:         0       0       0       0       0
  2375 ;;Total ram usage:        0 bytes
  2376 ;; Hardware stack levels used: 1
  2377 ;; Hardware stack levels required when called: 2
  2378 ;; This function calls:
  2379 ;;		_I2C_Master_Wait
  2380 ;; This function is called by:
  2381 ;;		_main
  2382 ;;		_setup
  2383 ;; This function uses a non-reentrant model
  2384 ;;
  2385                           
  2386                           
  2387                           ;psect for function _I2C_Master_Start
  2388  0E95                     _I2C_Master_Start:
  2389  0E95                     l2484:	
  2390                           ;incstack = 0
  2391                           ; Regs used in _I2C_Master_Start: [wreg+status,2+status,0+pclath+cstack]
  2392                           
  2393                           
  2394                           ;C:/Users/Andy Bonilla/Documents/GitHub/ED2/Proyecto1_ED2/PIC_maestro.X/I2C.c: 41:     I
      +                          2C_Master_Wait();
  2395  0E95  120A  158A  26B1  120A  158A  	fcall	_I2C_Master_Wait
  2396  0E9A                     l2486:
  2397                           
  2398                           ;C:/Users/Andy Bonilla/Documents/GitHub/ED2/Proyecto1_ED2/PIC_maestro.X/I2C.c: 42:     S
      +                          SPCON2bits.SEN = 1;
  2399  0E9A  1683               	bsf	3,5	;RP0=1, select bank1
  2400  0E9B  1303               	bcf	3,6	;RP1=0, select bank1
  2401  0E9C  1411               	bsf	17,0	;volatile
  2402  0E9D                     l267:
  2403  0E9D  0008               	return
  2404  0E9E                     __end_of_I2C_Master_Start:
  2405                           
  2406                           	psect	text7
  2407  0F5F                     __ptext7:	
  2408 ;; *************** function _I2C_Master_Read *****************
  2409 ;; Defined at:
  2410 ;;		line 74 in file "C:/Users/Andy Bonilla/Documents/GitHub/ED2/Proyecto1_ED2/PIC_maestro.X/I2C.c"
  2411 ;; Parameters:    Size  Location     Type
  2412 ;;  a               2    3[COMMON] unsigned short 
  2413 ;; Auto vars:     Size  Location     Type
  2414 ;;  temp            2    0[BANK0 ] unsigned short 
  2415 ;; Return value:  Size  Location     Type
  2416 ;;                  2    3[COMMON] unsigned short 
  2417 ;; Registers used:
  2418 ;;		wreg, status,2, status,0, pclath, cstack
  2419 ;; Tracked objects:
  2420 ;;		On entry : 0/0
  2421 ;;		On exit  : 0/0
  2422 ;;		Unchanged: 0/0
  2423 ;; Data sizes:     COMMON   BANK0   BANK1   BANK3   BANK2
  2424 ;;      Params:         2       0       0       0       0
  2425 ;;      Locals:         0       2       0       0       0
  2426 ;;      Temps:          2       0       0       0       0
  2427 ;;      Totals:         4       2       0       0       0
  2428 ;;Total ram usage:        6 bytes
  2429 ;; Hardware stack levels used: 1
  2430 ;; Hardware stack levels required when called: 2
  2431 ;; This function calls:
  2432 ;;		_I2C_Master_Wait
  2433 ;; This function is called by:
  2434 ;;		_main
  2435 ;;		_setup
  2436 ;; This function uses a non-reentrant model
  2437 ;;
  2438                           
  2439                           
  2440                           ;psect for function _I2C_Master_Read
  2441  0F5F                     _I2C_Master_Read:
  2442  0F5F                     l2496:	
  2443                           ;incstack = 0
  2444                           ; Regs used in _I2C_Master_Read: [wreg+status,2+status,0+pclath+cstack]
  2445                           
  2446                           
  2447                           ;C:/Users/Andy Bonilla/Documents/GitHub/ED2/Proyecto1_ED2/PIC_maestro.X/I2C.c: 74: unsig
      +                          ned short I2C_Master_Read(unsigned short a);C:/Users/Andy Bonilla/Documents/GitHub/ED2/P
      +                          royecto1_ED2/PIC_maestro.X/I2C.c: 75: {;C:/Users/Andy Bonilla/Documents/GitHub/ED2/Proye
      +                          cto1_ED2/PIC_maestro.X/I2C.c: 76:     unsigned short temp;;C:/Users/Andy Bonilla/Documen
      +                          ts/GitHub/ED2/Proyecto1_ED2/PIC_maestro.X/I2C.c: 77:     I2C_Master_Wait();
  2448  0F5F  120A  158A  26B1  120A  158A  	fcall	_I2C_Master_Wait
  2449  0F64                     l2498:
  2450                           
  2451                           ;C:/Users/Andy Bonilla/Documents/GitHub/ED2/Proyecto1_ED2/PIC_maestro.X/I2C.c: 78:     S
      +                          SPCON2bits.RCEN = 1;
  2452  0F64  1683               	bsf	3,5	;RP0=1, select bank1
  2453  0F65  1303               	bcf	3,6	;RP1=0, select bank1
  2454  0F66  1591               	bsf	17,3	;volatile
  2455                           
  2456                           ;C:/Users/Andy Bonilla/Documents/GitHub/ED2/Proyecto1_ED2/PIC_maestro.X/I2C.c: 79:     I
      +                          2C_Master_Wait();
  2457  0F67  120A  158A  26B1  120A  158A  	fcall	_I2C_Master_Wait
  2458  0F6C                     l2500:
  2459                           
  2460                           ;C:/Users/Andy Bonilla/Documents/GitHub/ED2/Proyecto1_ED2/PIC_maestro.X/I2C.c: 80:     t
      +                          emp = SSPBUF;
  2461  0F6C  1283               	bcf	3,5	;RP0=0, select bank0
  2462  0F6D  1303               	bcf	3,6	;RP1=0, select bank0
  2463  0F6E  0813               	movf	19,w	;volatile
  2464  0F6F  00F5               	movwf	??_I2C_Master_Read
  2465  0F70  01F6               	clrf	??_I2C_Master_Read+1
  2466  0F71  0875               	movf	??_I2C_Master_Read,w
  2467  0F72  00A0               	movwf	I2C_Master_Read@temp
  2468  0F73  0876               	movf	??_I2C_Master_Read+1,w
  2469  0F74  00A1               	movwf	I2C_Master_Read@temp+1
  2470  0F75                     l2502:
  2471                           
  2472                           ;C:/Users/Andy Bonilla/Documents/GitHub/ED2/Proyecto1_ED2/PIC_maestro.X/I2C.c: 81:     I
      +                          2C_Master_Wait();
  2473  0F75  120A  158A  26B1  120A  158A  	fcall	_I2C_Master_Wait
  2474  0F7A                     l2504:
  2475                           
  2476                           ;C:/Users/Andy Bonilla/Documents/GitHub/ED2/Proyecto1_ED2/PIC_maestro.X/I2C.c: 82:     i
      +                          f(a == 1){
  2477  0F7A  0373               	decf	I2C_Master_Read@a,w
  2478  0F7B  0474               	iorwf	I2C_Master_Read@a+1,w
  2479  0F7C  1D03               	btfss	3,2
  2480  0F7D  2F7F               	goto	u1201
  2481  0F7E  2F80               	goto	u1200
  2482  0F7F                     u1201:
  2483  0F7F  2F84               	goto	l279
  2484  0F80                     u1200:
  2485  0F80                     l2506:
  2486                           
  2487                           ;C:/Users/Andy Bonilla/Documents/GitHub/ED2/Proyecto1_ED2/PIC_maestro.X/I2C.c: 83:      
      +                             SSPCON2bits.ACKDT = 0;
  2488  0F80  1683               	bsf	3,5	;RP0=1, select bank1
  2489  0F81  1303               	bcf	3,6	;RP1=0, select bank1
  2490  0F82  1291               	bcf	17,5	;volatile
  2491                           
  2492                           ;C:/Users/Andy Bonilla/Documents/GitHub/ED2/Proyecto1_ED2/PIC_maestro.X/I2C.c: 84:     }
      +                          else{
  2493  0F83  2F87               	goto	l280
  2494  0F84                     l279:
  2495                           
  2496                           ;C:/Users/Andy Bonilla/Documents/GitHub/ED2/Proyecto1_ED2/PIC_maestro.X/I2C.c: 85:      
      +                             SSPCON2bits.ACKDT = 1;
  2497  0F84  1683               	bsf	3,5	;RP0=1, select bank1
  2498  0F85  1303               	bcf	3,6	;RP1=0, select bank1
  2499  0F86  1691               	bsf	17,5	;volatile
  2500  0F87                     l280:	
  2501                           ;C:/Users/Andy Bonilla/Documents/GitHub/ED2/Proyecto1_ED2/PIC_maestro.X/I2C.c: 86:     }
  2502                           
  2503                           
  2504                           ;C:/Users/Andy Bonilla/Documents/GitHub/ED2/Proyecto1_ED2/PIC_maestro.X/I2C.c: 87:     S
      +                          SPCON2bits.ACKEN = 1;
  2505  0F87  1611               	bsf	17,4	;volatile
  2506  0F88                     l2508:
  2507                           
  2508                           ;C:/Users/Andy Bonilla/Documents/GitHub/ED2/Proyecto1_ED2/PIC_maestro.X/I2C.c: 88:     r
      +                          eturn temp;
  2509  0F88  1283               	bcf	3,5	;RP0=0, select bank0
  2510  0F89  1303               	bcf	3,6	;RP1=0, select bank0
  2511  0F8A  0821               	movf	I2C_Master_Read@temp+1,w
  2512  0F8B  00F4               	movwf	?_I2C_Master_Read+1
  2513  0F8C  0820               	movf	I2C_Master_Read@temp,w
  2514  0F8D  00F3               	movwf	?_I2C_Master_Read
  2515  0F8E                     l281:
  2516  0F8E  0008               	return
  2517  0F8F                     __end_of_I2C_Master_Read:
  2518                           
  2519                           	psect	text8
  2520  0EB1                     __ptext8:	
  2521 ;; *************** function _I2C_Master_Wait *****************
  2522 ;; Defined at:
  2523 ;;		line 32 in file "C:/Users/Andy Bonilla/Documents/GitHub/ED2/Proyecto1_ED2/PIC_maestro.X/I2C.c"
  2524 ;; Parameters:    Size  Location     Type
  2525 ;;		None
  2526 ;; Auto vars:     Size  Location     Type
  2527 ;;		None
  2528 ;; Return value:  Size  Location     Type
  2529 ;;                  1    wreg      void 
  2530 ;; Registers used:
  2531 ;;		wreg, status,2
  2532 ;; Tracked objects:
  2533 ;;		On entry : 0/0
  2534 ;;		On exit  : 0/0
  2535 ;;		Unchanged: 0/0
  2536 ;; Data sizes:     COMMON   BANK0   BANK1   BANK3   BANK2
  2537 ;;      Params:         0       0       0       0       0
  2538 ;;      Locals:         0       0       0       0       0
  2539 ;;      Temps:          0       0       0       0       0
  2540 ;;      Totals:         0       0       0       0       0
  2541 ;;Total ram usage:        0 bytes
  2542 ;; Hardware stack levels used: 1
  2543 ;; Hardware stack levels required when called: 1
  2544 ;; This function calls:
  2545 ;;		Nothing
  2546 ;; This function is called by:
  2547 ;;		_I2C_Master_Start
  2548 ;;		_I2C_Master_Stop
  2549 ;;		_I2C_Master_Write
  2550 ;;		_I2C_Master_Read
  2551 ;;		_I2C_Master_RepeatedStart
  2552 ;; This function uses a non-reentrant model
  2553 ;;
  2554                           
  2555                           
  2556                           ;psect for function _I2C_Master_Wait
  2557  0EB1                     _I2C_Master_Wait:
  2558  0EB1                     l2456:	
  2559                           ;incstack = 0
  2560                           ; Regs used in _I2C_Master_Wait: [wreg+status,2]
  2561                           
  2562  0EB1                     l261:	
  2563                           ;C:/Users/Andy Bonilla/Documents/GitHub/ED2/Proyecto1_ED2/PIC_maestro.X/I2C.c: 34:     w
      +                          hile ((SSPSTAT & 0x04) || (SSPCON2 & 0x1F));
  2564                           
  2565  0EB1  1683               	bsf	3,5	;RP0=1, select bank1
  2566  0EB2  1303               	bcf	3,6	;RP1=0, select bank1
  2567  0EB3  1914               	btfsc	20,2	;volatile
  2568  0EB4  2EB6               	goto	u1111
  2569  0EB5  2EB7               	goto	u1110
  2570  0EB6                     u1111:
  2571  0EB6  2EB1               	goto	l261
  2572  0EB7                     u1110:
  2573  0EB7                     l2458:
  2574  0EB7  0811               	movf	17,w	;volatile
  2575  0EB8  391F               	andlw	31
  2576  0EB9  1D03               	btfss	3,2
  2577  0EBA  2EBC               	goto	u1121
  2578  0EBB  2EBD               	goto	u1120
  2579  0EBC                     u1121:
  2580  0EBC  2EB1               	goto	l261
  2581  0EBD                     u1120:
  2582  0EBD                     l264:
  2583  0EBD  0008               	return
  2584  0EBE                     __end_of_I2C_Master_Wait:
  2585                           
  2586                           	psect	text9
  2587  0FC6                     __ptext9:	
  2588 ;; *************** function _I2C_Master_Init *****************
  2589 ;; Defined at:
  2590 ;;		line 16 in file "C:/Users/Andy Bonilla/Documents/GitHub/ED2/Proyecto1_ED2/PIC_maestro.X/I2C.c"
  2591 ;; Parameters:    Size  Location     Type
  2592 ;;  c               4   13[BANK0 ] const unsigned long 
  2593 ;; Auto vars:     Size  Location     Type
  2594 ;;		None
  2595 ;; Return value:  Size  Location     Type
  2596 ;;                  1    wreg      void 
  2597 ;; Registers used:
  2598 ;;		wreg, status,2, status,0, pclath, cstack
  2599 ;; Tracked objects:
  2600 ;;		On entry : 0/0
  2601 ;;		On exit  : 0/0
  2602 ;;		Unchanged: 0/0
  2603 ;; Data sizes:     COMMON   BANK0   BANK1   BANK3   BANK2
  2604 ;;      Params:         0       4       0       0       0
  2605 ;;      Locals:         0       0       0       0       0
  2606 ;;      Temps:          4       0       0       0       0
  2607 ;;      Totals:         4       4       0       0       0
  2608 ;;Total ram usage:        8 bytes
  2609 ;; Hardware stack levels used: 1
  2610 ;; Hardware stack levels required when called: 2
  2611 ;; This function calls:
  2612 ;;		___lldiv
  2613 ;; This function is called by:
  2614 ;;		_setup
  2615 ;; This function uses a non-reentrant model
  2616 ;;
  2617                           
  2618                           
  2619                           ;psect for function _I2C_Master_Init
  2620  0FC6                     _I2C_Master_Init:
  2621  0FC6                     l2512:	
  2622                           ;incstack = 0
  2623                           ; Regs used in _I2C_Master_Init: [wreg+status,2+status,0+pclath+cstack]
  2624                           
  2625                           
  2626                           ;C:/Users/Andy Bonilla/Documents/GitHub/ED2/Proyecto1_ED2/PIC_maestro.X/I2C.c: 16: void 
      +                          I2C_Master_Init(const unsigned long c);C:/Users/Andy Bonilla/Documents/GitHub/ED2/Proyec
      +                          to1_ED2/PIC_maestro.X/I2C.c: 17: {;C:/Users/Andy Bonilla/Documents/GitHub/ED2/Proyecto1_
      +                          ED2/PIC_maestro.X/I2C.c: 18:     SSPCON = 0b00101000;
  2627  0FC6  3028               	movlw	40
  2628  0FC7  1283               	bcf	3,5	;RP0=0, select bank0
  2629  0FC8  1303               	bcf	3,6	;RP1=0, select bank0
  2630  0FC9  0094               	movwf	20	;volatile
  2631  0FCA                     l2514:
  2632                           
  2633                           ;C:/Users/Andy Bonilla/Documents/GitHub/ED2/Proyecto1_ED2/PIC_maestro.X/I2C.c: 19:     S
      +                          SPCON2 = 0;
  2634  0FCA  1683               	bsf	3,5	;RP0=1, select bank1
  2635  0FCB  1303               	bcf	3,6	;RP1=0, select bank1
  2636  0FCC  0191               	clrf	17	;volatile
  2637  0FCD                     l2516:
  2638                           
  2639                           ;C:/Users/Andy Bonilla/Documents/GitHub/ED2/Proyecto1_ED2/PIC_maestro.X/I2C.c: 20:     S
      +                          SPADD = (8000000/(4*c))-1;
  2640  0FCD  1283               	bcf	3,5	;RP0=0, select bank0
  2641  0FCE  1303               	bcf	3,6	;RP1=0, select bank0
  2642  0FCF  082D               	movf	I2C_Master_Init@c,w
  2643  0FD0  00F4               	movwf	??_I2C_Master_Init
  2644  0FD1  082E               	movf	I2C_Master_Init@c+1,w
  2645  0FD2  00F5               	movwf	??_I2C_Master_Init+1
  2646  0FD3  082F               	movf	I2C_Master_Init@c+2,w
  2647  0FD4  00F6               	movwf	??_I2C_Master_Init+2
  2648  0FD5  0830               	movf	I2C_Master_Init@c+3,w
  2649  0FD6  00F7               	movwf	??_I2C_Master_Init+3
  2650  0FD7  3002               	movlw	2
  2651  0FD8                     u1215:
  2652  0FD8  1003               	clrc
  2653  0FD9  0DF4               	rlf	??_I2C_Master_Init,f
  2654  0FDA  0DF5               	rlf	??_I2C_Master_Init+1,f
  2655  0FDB  0DF6               	rlf	??_I2C_Master_Init+2,f
  2656  0FDC  0DF7               	rlf	??_I2C_Master_Init+3,f
  2657  0FDD                     u1210:
  2658  0FDD  3EFF               	addlw	-1
  2659  0FDE  1D03               	skipz
  2660  0FDF  2FD8               	goto	u1215
  2661  0FE0  0877               	movf	??_I2C_Master_Init+3,w
  2662  0FE1  00A3               	movwf	___lldiv@divisor+3
  2663  0FE2  0876               	movf	??_I2C_Master_Init+2,w
  2664  0FE3  00A2               	movwf	___lldiv@divisor+2
  2665  0FE4  0875               	movf	??_I2C_Master_Init+1,w
  2666  0FE5  00A1               	movwf	___lldiv@divisor+1
  2667  0FE6  0874               	movf	??_I2C_Master_Init,w
  2668  0FE7  00A0               	movwf	___lldiv@divisor
  2669  0FE8  3000               	movlw	0
  2670  0FE9  00A7               	movwf	___lldiv@dividend+3
  2671  0FEA  307A               	movlw	122
  2672  0FEB  00A6               	movwf	___lldiv@dividend+2
  2673  0FEC  3012               	movlw	18
  2674  0FED  00A5               	movwf	___lldiv@dividend+1
  2675  0FEE  3000               	movlw	0
  2676  0FEF  00A4               	movwf	___lldiv@dividend
  2677  0FF0  120A  118A  2639  120A  158A  	fcall	___lldiv
  2678  0FF5  1283               	bcf	3,5	;RP0=0, select bank0
  2679  0FF6  1303               	bcf	3,6	;RP1=0, select bank0
  2680  0FF7  0820               	movf	?___lldiv,w
  2681  0FF8  3EFF               	addlw	255
  2682  0FF9  1683               	bsf	3,5	;RP0=1, select bank1
  2683  0FFA  1303               	bcf	3,6	;RP1=0, select bank1
  2684  0FFB  0093               	movwf	19	;volatile
  2685  0FFC                     l2518:
  2686                           
  2687                           ;C:/Users/Andy Bonilla/Documents/GitHub/ED2/Proyecto1_ED2/PIC_maestro.X/I2C.c: 21:     S
      +                          SPSTAT = 0;
  2688  0FFC  0194               	clrf	20	;volatile
  2689  0FFD                     l2520:
  2690                           
  2691                           ;C:/Users/Andy Bonilla/Documents/GitHub/ED2/Proyecto1_ED2/PIC_maestro.X/I2C.c: 22:     T
      +                          RISCbits.TRISC3 = 1;
  2692  0FFD  1587               	bsf	7,3	;volatile
  2693  0FFE                     l2522:
  2694                           
  2695                           ;C:/Users/Andy Bonilla/Documents/GitHub/ED2/Proyecto1_ED2/PIC_maestro.X/I2C.c: 23:     T
      +                          RISCbits.TRISC4 = 1;
  2696  0FFE  1607               	bsf	7,4	;volatile
  2697  0FFF                     l258:
  2698  0FFF  0008               	return
  2699  1000                     __end_of_I2C_Master_Init:
  2700                           
  2701                           	psect	text10
  2702  0639                     __ptext10:	
  2703 ;; *************** function ___lldiv *****************
  2704 ;; Defined at:
  2705 ;;		line 5 in file "C:\Program Files\Microchip\xc8\v2.32\pic\sources\c90\common\__lldiv.c"
  2706 ;; Parameters:    Size  Location     Type
  2707 ;;  divisor         4    0[BANK0 ] unsigned long 
  2708 ;;  dividend        4    4[BANK0 ] unsigned long 
  2709 ;; Auto vars:     Size  Location     Type
  2710 ;;  quotient        4    8[BANK0 ] unsigned long 
  2711 ;;  counter         1   12[BANK0 ] unsigned char 
  2712 ;; Return value:  Size  Location     Type
  2713 ;;                  4    0[BANK0 ] unsigned long 
  2714 ;; Registers used:
  2715 ;;		wreg, status,2, status,0
  2716 ;; Tracked objects:
  2717 ;;		On entry : 0/0
  2718 ;;		On exit  : 0/0
  2719 ;;		Unchanged: 0/0
  2720 ;; Data sizes:     COMMON   BANK0   BANK1   BANK3   BANK2
  2721 ;;      Params:         0       8       0       0       0
  2722 ;;      Locals:         0       5       0       0       0
  2723 ;;      Temps:          1       0       0       0       0
  2724 ;;      Totals:         1      13       0       0       0
  2725 ;;Total ram usage:       14 bytes
  2726 ;; Hardware stack levels used: 1
  2727 ;; Hardware stack levels required when called: 1
  2728 ;; This function calls:
  2729 ;;		Nothing
  2730 ;; This function is called by:
  2731 ;;		_I2C_Master_Init
  2732 ;; This function uses a non-reentrant model
  2733 ;;
  2734                           
  2735                           
  2736                           ;psect for function ___lldiv
  2737  0639                     ___lldiv:
  2738  0639                     l2460:	
  2739                           ;incstack = 0
  2740                           ; Regs used in ___lldiv: [wreg+status,2+status,0]
  2741                           
  2742  0639  3000               	movlw	0
  2743  063A  1283               	bcf	3,5	;RP0=0, select bank0
  2744  063B  1303               	bcf	3,6	;RP1=0, select bank0
  2745  063C  00AB               	movwf	___lldiv@quotient+3
  2746  063D  3000               	movlw	0
  2747  063E  00AA               	movwf	___lldiv@quotient+2
  2748  063F  3000               	movlw	0
  2749  0640  00A9               	movwf	___lldiv@quotient+1
  2750  0641  3000               	movlw	0
  2751  0642  00A8               	movwf	___lldiv@quotient
  2752  0643  0823               	movf	___lldiv@divisor+3,w
  2753  0644  0422               	iorwf	___lldiv@divisor+2,w
  2754  0645  0421               	iorwf	___lldiv@divisor+1,w
  2755  0646  0420               	iorwf	___lldiv@divisor,w
  2756  0647  1903               	skipnz
  2757  0648  2E4A               	goto	u1131
  2758  0649  2E4B               	goto	u1130
  2759  064A                     u1131:
  2760  064A  2E98               	goto	l2480
  2761  064B                     u1130:
  2762  064B                     l2462:
  2763  064B  01AC               	clrf	___lldiv@counter
  2764  064C  0AAC               	incf	___lldiv@counter,f
  2765  064D  2E5B               	goto	l2466
  2766  064E                     l2464:
  2767  064E  3001               	movlw	1
  2768  064F  00F3               	movwf	??___lldiv
  2769  0650                     u1145:
  2770  0650  1003               	clrc
  2771  0651  0DA0               	rlf	___lldiv@divisor,f
  2772  0652  0DA1               	rlf	___lldiv@divisor+1,f
  2773  0653  0DA2               	rlf	___lldiv@divisor+2,f
  2774  0654  0DA3               	rlf	___lldiv@divisor+3,f
  2775  0655  0BF3               	decfsz	??___lldiv,f
  2776  0656  2E50               	goto	u1145
  2777  0657  3001               	movlw	1
  2778  0658  00F3               	movwf	??___lldiv
  2779  0659  0873               	movf	??___lldiv,w
  2780  065A  07AC               	addwf	___lldiv@counter,f
  2781  065B                     l2466:
  2782  065B  1FA3               	btfss	___lldiv@divisor+3,7
  2783  065C  2E5E               	goto	u1151
  2784  065D  2E5F               	goto	u1150
  2785  065E                     u1151:
  2786  065E  2E4E               	goto	l2464
  2787  065F                     u1150:
  2788  065F                     l2468:
  2789  065F  3001               	movlw	1
  2790  0660  00F3               	movwf	??___lldiv
  2791  0661                     u1165:
  2792  0661  1003               	clrc
  2793  0662  0DA8               	rlf	___lldiv@quotient,f
  2794  0663  0DA9               	rlf	___lldiv@quotient+1,f
  2795  0664  0DAA               	rlf	___lldiv@quotient+2,f
  2796  0665  0DAB               	rlf	___lldiv@quotient+3,f
  2797  0666  0BF3               	decfsz	??___lldiv,f
  2798  0667  2E61               	goto	u1165
  2799  0668                     l2470:
  2800  0668  0823               	movf	___lldiv@divisor+3,w
  2801  0669  0227               	subwf	___lldiv@dividend+3,w
  2802  066A  1D03               	skipz
  2803  066B  2E76               	goto	u1175
  2804  066C  0822               	movf	___lldiv@divisor+2,w
  2805  066D  0226               	subwf	___lldiv@dividend+2,w
  2806  066E  1D03               	skipz
  2807  066F  2E76               	goto	u1175
  2808  0670  0821               	movf	___lldiv@divisor+1,w
  2809  0671  0225               	subwf	___lldiv@dividend+1,w
  2810  0672  1D03               	skipz
  2811  0673  2E76               	goto	u1175
  2812  0674  0820               	movf	___lldiv@divisor,w
  2813  0675  0224               	subwf	___lldiv@dividend,w
  2814  0676                     u1175:
  2815  0676  1C03               	skipc
  2816  0677  2E79               	goto	u1171
  2817  0678  2E7A               	goto	u1170
  2818  0679                     u1171:
  2819  0679  2E89               	goto	l2476
  2820  067A                     u1170:
  2821  067A                     l2472:
  2822  067A  0820               	movf	___lldiv@divisor,w
  2823  067B  02A4               	subwf	___lldiv@dividend,f
  2824  067C  0821               	movf	___lldiv@divisor+1,w
  2825  067D  1C03               	skipc
  2826  067E  0F21               	incfsz	___lldiv@divisor+1,w
  2827  067F  02A5               	subwf	___lldiv@dividend+1,f
  2828  0680  0822               	movf	___lldiv@divisor+2,w
  2829  0681  1C03               	skipc
  2830  0682  0F22               	incfsz	___lldiv@divisor+2,w
  2831  0683  02A6               	subwf	___lldiv@dividend+2,f
  2832  0684  0823               	movf	___lldiv@divisor+3,w
  2833  0685  1C03               	skipc
  2834  0686  0F23               	incfsz	___lldiv@divisor+3,w
  2835  0687  02A7               	subwf	___lldiv@dividend+3,f
  2836  0688                     l2474:
  2837  0688  1428               	bsf	___lldiv@quotient,0
  2838  0689                     l2476:
  2839  0689  3001               	movlw	1
  2840  068A                     u1185:
  2841  068A  1003               	clrc
  2842  068B  0CA3               	rrf	___lldiv@divisor+3,f
  2843  068C  0CA2               	rrf	___lldiv@divisor+2,f
  2844  068D  0CA1               	rrf	___lldiv@divisor+1,f
  2845  068E  0CA0               	rrf	___lldiv@divisor,f
  2846  068F  3EFF               	addlw	-1
  2847  0690  1D03               	skipz
  2848  0691  2E8A               	goto	u1185
  2849  0692                     l2478:
  2850  0692  3001               	movlw	1
  2851  0693  02AC               	subwf	___lldiv@counter,f
  2852  0694  1D03               	btfss	3,2
  2853  0695  2E97               	goto	u1191
  2854  0696  2E98               	goto	u1190
  2855  0697                     u1191:
  2856  0697  2E5F               	goto	l2468
  2857  0698                     u1190:
  2858  0698                     l2480:
  2859  0698  082B               	movf	___lldiv@quotient+3,w
  2860  0699  00A3               	movwf	?___lldiv+3
  2861  069A  082A               	movf	___lldiv@quotient+2,w
  2862  069B  00A2               	movwf	?___lldiv+2
  2863  069C  0829               	movf	___lldiv@quotient+1,w
  2864  069D  00A1               	movwf	?___lldiv+1
  2865  069E  0828               	movf	___lldiv@quotient,w
  2866  069F  00A0               	movwf	?___lldiv
  2867  06A0                     l430:
  2868  06A0  0008               	return
  2869  06A1                     __end_of___lldiv:
  2870                           
  2871                           	psect	text11
  2872  06A1                     __ptext11:	
  2873 ;; *************** function _mandar_datos *****************
  2874 ;; Defined at:
  2875 ;;		line 401 in file "C:/Users/Andy Bonilla/Documents/GitHub/ED2/Proyecto1_ED2/PIC_maestro.X/main_mastre.c"
  2876 ;; Parameters:    Size  Location     Type
  2877 ;;		None
  2878 ;; Auto vars:     Size  Location     Type
  2879 ;;		None
  2880 ;; Return value:  Size  Location     Type
  2881 ;;                  1    wreg      void 
  2882 ;; Registers used:
  2883 ;;		wreg, fsr0l, fsr0h, status,2, status,0, pclath, cstack
  2884 ;; Tracked objects:
  2885 ;;		On entry : 0/0
  2886 ;;		On exit  : 0/0
  2887 ;;		Unchanged: 0/0
  2888 ;; Data sizes:     COMMON   BANK0   BANK1   BANK3   BANK2
  2889 ;;      Params:         0       0       0       0       0
  2890 ;;      Locals:         0       0       0       0       0
  2891 ;;      Temps:          0       2       0       0       0
  2892 ;;      Totals:         0       2       0       0       0
  2893 ;;Total ram usage:        2 bytes
  2894 ;; Hardware stack levels used: 1
  2895 ;; Hardware stack levels required when called: 2
  2896 ;; This function calls:
  2897 ;;		___awdiv
  2898 ;;		___awmod
  2899 ;; This function is called by:
  2900 ;;		_main
  2901 ;; This function uses a non-reentrant model
  2902 ;;
  2903                           
  2904                           
  2905                           ;psect for function _mandar_datos
  2906  06A1                     _mandar_datos:
  2907  06A1                     l2724:	
  2908                           ;incstack = 0
  2909                           ; Regs used in _mandar_datos: [wreg-fsr0h+status,2+status,0+pclath+cstack]
  2910                           
  2911                           
  2912                           ;C:/Users/Andy Bonilla/Documents/GitHub/ED2/Proyecto1_ED2/PIC_maestro.X/main_mastre.c: 4
      +                          03:     switch(cuenta_uart)
  2913  06A1  2EE5               	goto	l2740
  2914  06A2                     l2726:
  2915                           
  2916                           ;C:/Users/Andy Bonilla/Documents/GitHub/ED2/Proyecto1_ED2/PIC_maestro.X/main_mastre.c: 4
      +                          06:             TXREG=((temperatura/10)%10+0x30);
  2917  06A2  300A               	movlw	10
  2918  06A3  00A4               	movwf	___awmod@divisor
  2919  06A4  3000               	movlw	0
  2920  06A5  00A5               	movwf	___awmod@divisor+1
  2921  06A6  300A               	movlw	10
  2922  06A7  00F3               	movwf	___awdiv@divisor
  2923  06A8  3000               	movlw	0
  2924  06A9  00F4               	movwf	___awdiv@divisor+1
  2925  06AA  0841               	movf	_temperatura,w
  2926  06AB  00AB               	movwf	??_mandar_datos
  2927  06AC  01AC               	clrf	??_mandar_datos+1
  2928  06AD  082B               	movf	??_mandar_datos,w
  2929  06AE  00F5               	movwf	___awdiv@dividend
  2930  06AF  082C               	movf	??_mandar_datos+1,w
  2931  06B0  00F6               	movwf	___awdiv@dividend+1
  2932  06B1  120A  118A  25D0  120A  118A  	fcall	___awdiv
  2933  06B6  0874               	movf	?___awdiv+1,w
  2934  06B7  1283               	bcf	3,5	;RP0=0, select bank0
  2935  06B8  1303               	bcf	3,6	;RP1=0, select bank0
  2936  06B9  00A7               	movwf	___awmod@dividend+1
  2937  06BA  0873               	movf	?___awdiv,w
  2938  06BB  00A6               	movwf	___awmod@dividend
  2939  06BC  120A  118A  2704  120A  118A  	fcall	___awmod
  2940  06C1  1283               	bcf	3,5	;RP0=0, select bank0
  2941  06C2  1303               	bcf	3,6	;RP1=0, select bank0
  2942  06C3  0824               	movf	?___awmod,w
  2943  06C4  3E30               	addlw	48
  2944  06C5  0099               	movwf	25	;volatile
  2945                           
  2946                           ;C:/Users/Andy Bonilla/Documents/GitHub/ED2/Proyecto1_ED2/PIC_maestro.X/main_mastre.c: 4
      +                          07:             break;
  2947  06C6  2F03               	goto	l174
  2948  06C7                     l2728:
  2949                           
  2950                           ;C:/Users/Andy Bonilla/Documents/GitHub/ED2/Proyecto1_ED2/PIC_maestro.X/main_mastre.c: 4
      +                          09:             TXREG=((temperatura%10)+0x30);
  2951  06C7  300A               	movlw	10
  2952  06C8  00A4               	movwf	___awmod@divisor
  2953  06C9  3000               	movlw	0
  2954  06CA  00A5               	movwf	___awmod@divisor+1
  2955  06CB  0841               	movf	_temperatura,w
  2956  06CC  00AB               	movwf	??_mandar_datos
  2957  06CD  01AC               	clrf	??_mandar_datos+1
  2958  06CE  082B               	movf	??_mandar_datos,w
  2959  06CF  00A6               	movwf	___awmod@dividend
  2960  06D0  082C               	movf	??_mandar_datos+1,w
  2961  06D1  00A7               	movwf	___awmod@dividend+1
  2962  06D2  120A  118A  2704  120A  118A  	fcall	___awmod
  2963  06D7  1283               	bcf	3,5	;RP0=0, select bank0
  2964  06D8  1303               	bcf	3,6	;RP1=0, select bank0
  2965  06D9  0824               	movf	?___awmod,w
  2966  06DA  3E30               	addlw	48
  2967  06DB  0099               	movwf	25	;volatile
  2968                           
  2969                           ;C:/Users/Andy Bonilla/Documents/GitHub/ED2/Proyecto1_ED2/PIC_maestro.X/main_mastre.c: 4
      +                          10:             break;
  2970  06DC  2F03               	goto	l174
  2971  06DD                     l2730:
  2972                           
  2973                           ;C:/Users/Andy Bonilla/Documents/GitHub/ED2/Proyecto1_ED2/PIC_maestro.X/main_mastre.c: 4
      +                          12:             TXREG=44;
  2974  06DD  302C               	movlw	44
  2975  06DE  0099               	movwf	25	;volatile
  2976                           
  2977                           ;C:/Users/Andy Bonilla/Documents/GitHub/ED2/Proyecto1_ED2/PIC_maestro.X/main_mastre.c: 4
      +                          13:             break;
  2978  06DF  2F03               	goto	l174
  2979  06E0                     l2732:
  2980                           
  2981                           ;C:/Users/Andy Bonilla/Documents/GitHub/ED2/Proyecto1_ED2/PIC_maestro.X/main_mastre.c: 4
      +                          15:             TXREG=NUM;
  2982  06E0  084D               	movf	_NUM,w
  2983  06E1  0099               	movwf	25	;volatile
  2984                           
  2985                           ;C:/Users/Andy Bonilla/Documents/GitHub/ED2/Proyecto1_ED2/PIC_maestro.X/main_mastre.c: 4
      +                          16:             break;
  2986  06E2  2F03               	goto	l174
  2987  06E3                     l2736:
  2988                           
  2989                           ;C:/Users/Andy Bonilla/Documents/GitHub/ED2/Proyecto1_ED2/PIC_maestro.X/main_mastre.c: 4
      +                          21:             cuenta_uart=0;
  2990  06E3  01C0               	clrf	_cuenta_uart
  2991                           
  2992                           ;C:/Users/Andy Bonilla/Documents/GitHub/ED2/Proyecto1_ED2/PIC_maestro.X/main_mastre.c: 4
      +                          22:             break;
  2993  06E4  2F03               	goto	l174
  2994  06E5                     l2740:
  2995  06E5  1283               	bcf	3,5	;RP0=0, select bank0
  2996  06E6  1303               	bcf	3,6	;RP1=0, select bank0
  2997  06E7  0840               	movf	_cuenta_uart,w
  2998  06E8  00AB               	movwf	??_mandar_datos
  2999  06E9  01AC               	clrf	??_mandar_datos+1
  3000                           
  3001                           ; Switch on 2 bytes has been partitioned into a top level switch of size 1, and 1 sub-sw
      +                          itches
  3002                           ; Switch size 1, requested type "simple"
  3003                           ; Number of cases is 1, Range of values is 0 to 0
  3004                           ; switch strategies available:
  3005                           ; Name         Instructions Cycles
  3006                           ; simple_byte            4     3 (average)
  3007                           ; direct_byte           11     8 (fixed)
  3008                           ; jumptable            260     6 (fixed)
  3009                           ;	Chosen strategy is simple_byte
  3010  06EA  082C               	movf	??_mandar_datos+1,w
  3011  06EB  3A00               	xorlw	0	; case 0
  3012  06EC  1903               	skipnz
  3013  06ED  2EEF               	goto	l2932
  3014  06EE  2F03               	goto	l174
  3015  06EF                     l2932:
  3016                           
  3017                           ; Switch size 1, requested type "simple"
  3018                           ; Number of cases is 6, Range of values is 1 to 20
  3019                           ; switch strategies available:
  3020                           ; Name         Instructions Cycles
  3021                           ; simple_byte           19    10 (average)
  3022                           ; direct_byte           71    11 (fixed)
  3023                           ; jumptable            263     9 (fixed)
  3024                           ;	Chosen strategy is simple_byte
  3025  06EF  082B               	movf	??_mandar_datos,w
  3026  06F0  3A01               	xorlw	1	; case 1
  3027  06F1  1903               	skipnz
  3028  06F2  2EA2               	goto	l2726
  3029  06F3  3A03               	xorlw	3	; case 2
  3030  06F4  1903               	skipnz
  3031  06F5  2EC7               	goto	l2728
  3032  06F6  3A01               	xorlw	1	; case 3
  3033  06F7  1903               	skipnz
  3034  06F8  2EDD               	goto	l2730
  3035  06F9  3A07               	xorlw	7	; case 4
  3036  06FA  1903               	skipnz
  3037  06FB  2EE0               	goto	l2732
  3038  06FC  3A01               	xorlw	1	; case 5
  3039  06FD  1903               	skipnz
  3040  06FE  2EDD               	goto	l2730
  3041  06FF  3A11               	xorlw	17	; case 20
  3042  0700  1903               	skipnz
  3043  0701  2EE3               	goto	l2736
  3044  0702  2F03               	goto	l174
  3045  0703                     l174:
  3046  0703  0008               	return
  3047  0704                     __end_of_mandar_datos:
  3048                           
  3049                           	psect	text12
  3050  0557                     __ptext12:	
  3051 ;; *************** function _conver1 *****************
  3052 ;; Defined at:
  3053 ;;		line 263 in file "C:/Users/Andy Bonilla/Documents/GitHub/ED2/Proyecto1_ED2/PIC_maestro.X/main_mastre.c"
  3054 ;; Parameters:    Size  Location     Type
  3055 ;;		None
  3056 ;; Auto vars:     Size  Location     Type
  3057 ;;  temporal       16   14[BANK0 ] unsigned char [16]
  3058 ;; Return value:  Size  Location     Type
  3059 ;;                  1    wreg      PTR const unsigned char 
  3060 ;; Registers used:
  3061 ;;		wreg, status,2, status,0, pclath, cstack
  3062 ;; Tracked objects:
  3063 ;;		On entry : 0/0
  3064 ;;		On exit  : 0/0
  3065 ;;		Unchanged: 0/0
  3066 ;; Data sizes:     COMMON   BANK0   BANK1   BANK3   BANK2
  3067 ;;      Params:         0       0       0       0       0
  3068 ;;      Locals:         0      16       0       0       0
  3069 ;;      Temps:          0       3       0       0       0
  3070 ;;      Totals:         0      19       0       0       0
  3071 ;;Total ram usage:       19 bytes
  3072 ;; Hardware stack levels used: 1
  3073 ;; Hardware stack levels required when called: 2
  3074 ;; This function calls:
  3075 ;;		___awdiv
  3076 ;;		___awmod
  3077 ;; This function is called by:
  3078 ;;		_main
  3079 ;; This function uses a non-reentrant model
  3080 ;;
  3081                           
  3082                           
  3083                           ;psect for function _conver1
  3084  0557                     _conver1:
  3085  0557                     l2708:	
  3086                           ;incstack = 0
  3087                           ; Regs used in _conver1: [wreg+status,2+status,0+pclath+cstack]
  3088                           
  3089                           
  3090                           ;C:/Users/Andy Bonilla/Documents/GitHub/ED2/Proyecto1_ED2/PIC_maestro.X/main_mastre.c: 2
      +                          65:     char temporal[16];;C:/Users/Andy Bonilla/Documents/GitHub/ED2/Proyecto1_ED2/PIC_
      +                          maestro.X/main_mastre.c: 266:     temporal[0] = C1;
  3091  0557  1283               	bcf	3,5	;RP0=0, select bank0
  3092  0558  1303               	bcf	3,6	;RP1=0, select bank0
  3093  0559  0849               	movf	_C1,w
  3094  055A  00AB               	movwf	??_conver1
  3095  055B  082B               	movf	??_conver1,w
  3096  055C  00AE               	movwf	conver1@temporal
  3097                           
  3098                           ;C:/Users/Andy Bonilla/Documents/GitHub/ED2/Proyecto1_ED2/PIC_maestro.X/main_mastre.c: 2
      +                          67:     temporal[1] = C2;
  3099  055D  0848               	movf	_C2,w
  3100  055E  00AB               	movwf	??_conver1
  3101  055F  082B               	movf	??_conver1,w
  3102  0560  00AF               	movwf	conver1@temporal+1
  3103                           
  3104                           ;C:/Users/Andy Bonilla/Documents/GitHub/ED2/Proyecto1_ED2/PIC_maestro.X/main_mastre.c: 2
      +                          68:     temporal[2] = C3;
  3105  0561  0847               	movf	_C3,w
  3106  0562  00AB               	movwf	??_conver1
  3107  0563  082B               	movf	??_conver1,w
  3108  0564  00B0               	movwf	conver1@temporal+2
  3109                           
  3110                           ;C:/Users/Andy Bonilla/Documents/GitHub/ED2/Proyecto1_ED2/PIC_maestro.X/main_mastre.c: 2
      +                          69:     temporal[3] = 0x2E;
  3111  0565  302E               	movlw	46
  3112  0566  00AB               	movwf	??_conver1
  3113  0567  082B               	movf	??_conver1,w
  3114  0568  00B1               	movwf	conver1@temporal+3
  3115                           
  3116                           ;C:/Users/Andy Bonilla/Documents/GitHub/ED2/Proyecto1_ED2/PIC_maestro.X/main_mastre.c: 2
      +                          70:     temporal[4] = 0x20;
  3117  0569  3020               	movlw	32
  3118  056A  00AB               	movwf	??_conver1
  3119  056B  082B               	movf	??_conver1,w
  3120  056C  00B2               	movwf	conver1@temporal+4
  3121                           
  3122                           ;C:/Users/Andy Bonilla/Documents/GitHub/ED2/Proyecto1_ED2/PIC_maestro.X/main_mastre.c: 2
      +                          71:     temporal[5] = DH;
  3123  056D  0845               	movf	_DH,w
  3124  056E  00AB               	movwf	??_conver1
  3125  056F  082B               	movf	??_conver1,w
  3126  0570  00B3               	movwf	conver1@temporal+5
  3127                           
  3128                           ;C:/Users/Andy Bonilla/Documents/GitHub/ED2/Proyecto1_ED2/PIC_maestro.X/main_mastre.c: 2
      +                          72:     temporal[6] = UH;
  3129  0571  0846               	movf	_UH,w
  3130  0572  00AB               	movwf	??_conver1
  3131  0573  082B               	movf	??_conver1,w
  3132  0574  00B4               	movwf	conver1@temporal+6
  3133                           
  3134                           ;C:/Users/Andy Bonilla/Documents/GitHub/ED2/Proyecto1_ED2/PIC_maestro.X/main_mastre.c: 2
      +                          73:     temporal[7] = 0x3A;
  3135  0575  303A               	movlw	58
  3136  0576  00AB               	movwf	??_conver1
  3137  0577  082B               	movf	??_conver1,w
  3138  0578  00B5               	movwf	conver1@temporal+7
  3139                           
  3140                           ;C:/Users/Andy Bonilla/Documents/GitHub/ED2/Proyecto1_ED2/PIC_maestro.X/main_mastre.c: 2
      +                          74:     temporal[8] = DM;
  3141  0579  0843               	movf	_DM,w
  3142  057A  00AB               	movwf	??_conver1
  3143  057B  082B               	movf	??_conver1,w
  3144  057C  00B6               	movwf	conver1@temporal+8
  3145                           
  3146                           ;C:/Users/Andy Bonilla/Documents/GitHub/ED2/Proyecto1_ED2/PIC_maestro.X/main_mastre.c: 2
      +                          75:     temporal[9] = UM;
  3147  057D  0844               	movf	_UM,w
  3148  057E  00AB               	movwf	??_conver1
  3149  057F  082B               	movf	??_conver1,w
  3150  0580  00B7               	movwf	conver1@temporal+9
  3151                           
  3152                           ;C:/Users/Andy Bonilla/Documents/GitHub/ED2/Proyecto1_ED2/PIC_maestro.X/main_mastre.c: 2
      +                          76:     temporal[10] = 0x20;
  3153  0581  3020               	movlw	32
  3154  0582  00AB               	movwf	??_conver1
  3155  0583  082B               	movf	??_conver1,w
  3156  0584  00B8               	movwf	conver1@temporal+10
  3157  0585                     l2710:
  3158                           
  3159                           ;C:/Users/Andy Bonilla/Documents/GitHub/ED2/Proyecto1_ED2/PIC_maestro.X/main_mastre.c: 2
      +                          77:     temporal[11] = ((temperatura/10)%10+0x30);
  3160  0585  300A               	movlw	10
  3161  0586  00A4               	movwf	___awmod@divisor
  3162  0587  3000               	movlw	0
  3163  0588  00A5               	movwf	___awmod@divisor+1
  3164  0589  300A               	movlw	10
  3165  058A  00F3               	movwf	___awdiv@divisor
  3166  058B  3000               	movlw	0
  3167  058C  00F4               	movwf	___awdiv@divisor+1
  3168  058D  0841               	movf	_temperatura,w
  3169  058E  00AB               	movwf	??_conver1
  3170  058F  01AC               	clrf	??_conver1+1
  3171  0590  082B               	movf	??_conver1,w
  3172  0591  00F5               	movwf	___awdiv@dividend
  3173  0592  082C               	movf	??_conver1+1,w
  3174  0593  00F6               	movwf	___awdiv@dividend+1
  3175  0594  120A  118A  25D0  120A  118A  	fcall	___awdiv
  3176  0599  0874               	movf	?___awdiv+1,w
  3177  059A  1283               	bcf	3,5	;RP0=0, select bank0
  3178  059B  1303               	bcf	3,6	;RP1=0, select bank0
  3179  059C  00A7               	movwf	___awmod@dividend+1
  3180  059D  0873               	movf	?___awdiv,w
  3181  059E  00A6               	movwf	___awmod@dividend
  3182  059F  120A  118A  2704  120A  118A  	fcall	___awmod
  3183  05A4  1283               	bcf	3,5	;RP0=0, select bank0
  3184  05A5  1303               	bcf	3,6	;RP1=0, select bank0
  3185  05A6  0824               	movf	?___awmod,w
  3186  05A7  3E30               	addlw	48
  3187  05A8  00AD               	movwf	??_conver1+2
  3188  05A9  082D               	movf	??_conver1+2,w
  3189  05AA  00B9               	movwf	conver1@temporal+11
  3190  05AB                     l2712:
  3191                           
  3192                           ;C:/Users/Andy Bonilla/Documents/GitHub/ED2/Proyecto1_ED2/PIC_maestro.X/main_mastre.c: 2
      +                          78:     temporal[12] = ((temperatura%10)+0x30);
  3193  05AB  300A               	movlw	10
  3194  05AC  00A4               	movwf	___awmod@divisor
  3195  05AD  3000               	movlw	0
  3196  05AE  00A5               	movwf	___awmod@divisor+1
  3197  05AF  0841               	movf	_temperatura,w
  3198  05B0  00AB               	movwf	??_conver1
  3199  05B1  01AC               	clrf	??_conver1+1
  3200  05B2  082B               	movf	??_conver1,w
  3201  05B3  00A6               	movwf	___awmod@dividend
  3202  05B4  082C               	movf	??_conver1+1,w
  3203  05B5  00A7               	movwf	___awmod@dividend+1
  3204  05B6  120A  118A  2704  120A  118A  	fcall	___awmod
  3205  05BB  1283               	bcf	3,5	;RP0=0, select bank0
  3206  05BC  1303               	bcf	3,6	;RP1=0, select bank0
  3207  05BD  0824               	movf	?___awmod,w
  3208  05BE  3E30               	addlw	48
  3209  05BF  00AD               	movwf	??_conver1+2
  3210  05C0  082D               	movf	??_conver1+2,w
  3211  05C1  00BA               	movwf	conver1@temporal+12
  3212                           
  3213                           ;C:/Users/Andy Bonilla/Documents/GitHub/ED2/Proyecto1_ED2/PIC_maestro.X/main_mastre.c: 2
      +                          79:     temporal[13] = 0xDF;
  3214  05C2  30DF               	movlw	223
  3215  05C3  00AB               	movwf	??_conver1
  3216  05C4  082B               	movf	??_conver1,w
  3217  05C5  00BB               	movwf	conver1@temporal+13
  3218                           
  3219                           ;C:/Users/Andy Bonilla/Documents/GitHub/ED2/Proyecto1_ED2/PIC_maestro.X/main_mastre.c: 2
      +                          80:     temporal[14] = 0x43;
  3220  05C6  3043               	movlw	67
  3221  05C7  00AB               	movwf	??_conver1
  3222  05C8  082B               	movf	??_conver1,w
  3223  05C9  00BC               	movwf	conver1@temporal+14
  3224                           
  3225                           ;C:/Users/Andy Bonilla/Documents/GitHub/ED2/Proyecto1_ED2/PIC_maestro.X/main_mastre.c: 2
      +                          81:     temporal[15] = 0x20;
  3226  05CA  3020               	movlw	32
  3227  05CB  00AB               	movwf	??_conver1
  3228  05CC  082B               	movf	??_conver1,w
  3229  05CD  00BD               	movwf	conver1@temporal+15
  3230                           
  3231                           ;C:/Users/Andy Bonilla/Documents/GitHub/ED2/Proyecto1_ED2/PIC_maestro.X/main_mastre.c: 2
      +                          82:     return temporal;
  3232  05CE  302E               	movlw	(low (conver1@temporal| 0))& (0+255)
  3233  05CF                     l123:
  3234  05CF  0008               	return
  3235  05D0                     __end_of_conver1:
  3236                           
  3237                           	psect	text13
  3238  0704                     __ptext13:	
  3239 ;; *************** function ___awmod *****************
  3240 ;; Defined at:
  3241 ;;		line 5 in file "C:\Program Files\Microchip\xc8\v2.32\pic\sources\c90\common\awmod.c"
  3242 ;; Parameters:    Size  Location     Type
  3243 ;;  divisor         2    4[BANK0 ] int 
  3244 ;;  dividend        2    6[BANK0 ] int 
  3245 ;; Auto vars:     Size  Location     Type
  3246 ;;  sign            1   10[BANK0 ] unsigned char 
  3247 ;;  counter         1    9[BANK0 ] unsigned char 
  3248 ;; Return value:  Size  Location     Type
  3249 ;;                  2    4[BANK0 ] int 
  3250 ;; Registers used:
  3251 ;;		wreg, status,2, status,0
  3252 ;; Tracked objects:
  3253 ;;		On entry : 0/0
  3254 ;;		On exit  : 0/0
  3255 ;;		Unchanged: 0/0
  3256 ;; Data sizes:     COMMON   BANK0   BANK1   BANK3   BANK2
  3257 ;;      Params:         0       4       0       0       0
  3258 ;;      Locals:         0       2       0       0       0
  3259 ;;      Temps:          0       1       0       0       0
  3260 ;;      Totals:         0       7       0       0       0
  3261 ;;Total ram usage:        7 bytes
  3262 ;; Hardware stack levels used: 1
  3263 ;; Hardware stack levels required when called: 1
  3264 ;; This function calls:
  3265 ;;		Nothing
  3266 ;; This function is called by:
  3267 ;;		_conver1
  3268 ;;		_mandar_datos
  3269 ;; This function uses a non-reentrant model
  3270 ;;
  3271                           
  3272                           
  3273                           ;psect for function ___awmod
  3274  0704                     ___awmod:
  3275  0704                     l2548:	
  3276                           ;incstack = 0
  3277                           ; Regs used in ___awmod: [wreg+status,2+status,0]
  3278                           
  3279  0704  1283               	bcf	3,5	;RP0=0, select bank0
  3280  0705  1303               	bcf	3,6	;RP1=0, select bank0
  3281  0706  01AA               	clrf	___awmod@sign
  3282  0707                     l2550:
  3283  0707  1FA7               	btfss	___awmod@dividend+1,7
  3284  0708  2F0A               	goto	u1221
  3285  0709  2F0B               	goto	u1220
  3286  070A                     u1221:
  3287  070A  2F12               	goto	l2556
  3288  070B                     u1220:
  3289  070B                     l2552:
  3290  070B  09A6               	comf	___awmod@dividend,f
  3291  070C  09A7               	comf	___awmod@dividend+1,f
  3292  070D  0AA6               	incf	___awmod@dividend,f
  3293  070E  1903               	skipnz
  3294  070F  0AA7               	incf	___awmod@dividend+1,f
  3295  0710                     l2554:
  3296  0710  01AA               	clrf	___awmod@sign
  3297  0711  0AAA               	incf	___awmod@sign,f
  3298  0712                     l2556:
  3299  0712  1FA5               	btfss	___awmod@divisor+1,7
  3300  0713  2F15               	goto	u1231
  3301  0714  2F16               	goto	u1230
  3302  0715                     u1231:
  3303  0715  2F1B               	goto	l2560
  3304  0716                     u1230:
  3305  0716                     l2558:
  3306  0716  09A4               	comf	___awmod@divisor,f
  3307  0717  09A5               	comf	___awmod@divisor+1,f
  3308  0718  0AA4               	incf	___awmod@divisor,f
  3309  0719  1903               	skipnz
  3310  071A  0AA5               	incf	___awmod@divisor+1,f
  3311  071B                     l2560:
  3312  071B  0824               	movf	___awmod@divisor,w
  3313  071C  0425               	iorwf	___awmod@divisor+1,w
  3314  071D  1903               	btfsc	3,2
  3315  071E  2F20               	goto	u1241
  3316  071F  2F21               	goto	u1240
  3317  0720                     u1241:
  3318  0720  2F50               	goto	l2578
  3319  0721                     u1240:
  3320  0721                     l2562:
  3321  0721  01A9               	clrf	___awmod@counter
  3322  0722  0AA9               	incf	___awmod@counter,f
  3323  0723  2F2F               	goto	l2568
  3324  0724                     l2564:
  3325  0724  3001               	movlw	1
  3326  0725                     u1255:
  3327  0725  1003               	clrc
  3328  0726  0DA4               	rlf	___awmod@divisor,f
  3329  0727  0DA5               	rlf	___awmod@divisor+1,f
  3330  0728  3EFF               	addlw	-1
  3331  0729  1D03               	skipz
  3332  072A  2F25               	goto	u1255
  3333  072B                     l2566:
  3334  072B  3001               	movlw	1
  3335  072C  00A8               	movwf	??___awmod
  3336  072D  0828               	movf	??___awmod,w
  3337  072E  07A9               	addwf	___awmod@counter,f
  3338  072F                     l2568:
  3339  072F  1FA5               	btfss	___awmod@divisor+1,7
  3340  0730  2F32               	goto	u1261
  3341  0731  2F33               	goto	u1260
  3342  0732                     u1261:
  3343  0732  2F24               	goto	l2564
  3344  0733                     u1260:
  3345  0733                     l2570:
  3346  0733  0825               	movf	___awmod@divisor+1,w
  3347  0734  0227               	subwf	___awmod@dividend+1,w
  3348  0735  1D03               	skipz
  3349  0736  2F39               	goto	u1275
  3350  0737  0824               	movf	___awmod@divisor,w
  3351  0738  0226               	subwf	___awmod@dividend,w
  3352  0739                     u1275:
  3353  0739  1C03               	skipc
  3354  073A  2F3C               	goto	u1271
  3355  073B  2F3D               	goto	u1270
  3356  073C                     u1271:
  3357  073C  2F43               	goto	l2574
  3358  073D                     u1270:
  3359  073D                     l2572:
  3360  073D  0824               	movf	___awmod@divisor,w
  3361  073E  02A6               	subwf	___awmod@dividend,f
  3362  073F  0825               	movf	___awmod@divisor+1,w
  3363  0740  1C03               	skipc
  3364  0741  03A7               	decf	___awmod@dividend+1,f
  3365  0742  02A7               	subwf	___awmod@dividend+1,f
  3366  0743                     l2574:
  3367  0743  3001               	movlw	1
  3368  0744                     u1285:
  3369  0744  1003               	clrc
  3370  0745  0CA5               	rrf	___awmod@divisor+1,f
  3371  0746  0CA4               	rrf	___awmod@divisor,f
  3372  0747  3EFF               	addlw	-1
  3373  0748  1D03               	skipz
  3374  0749  2F44               	goto	u1285
  3375  074A                     l2576:
  3376  074A  3001               	movlw	1
  3377  074B  02A9               	subwf	___awmod@counter,f
  3378  074C  1D03               	btfss	3,2
  3379  074D  2F4F               	goto	u1291
  3380  074E  2F50               	goto	u1290
  3381  074F                     u1291:
  3382  074F  2F33               	goto	l2570
  3383  0750                     u1290:
  3384  0750                     l2578:
  3385  0750  082A               	movf	___awmod@sign,w
  3386  0751  1903               	btfsc	3,2
  3387  0752  2F54               	goto	u1301
  3388  0753  2F55               	goto	u1300
  3389  0754                     u1301:
  3390  0754  2F5A               	goto	l2582
  3391  0755                     u1300:
  3392  0755                     l2580:
  3393  0755  09A6               	comf	___awmod@dividend,f
  3394  0756  09A7               	comf	___awmod@dividend+1,f
  3395  0757  0AA6               	incf	___awmod@dividend,f
  3396  0758  1903               	skipnz
  3397  0759  0AA7               	incf	___awmod@dividend+1,f
  3398  075A                     l2582:
  3399  075A  0827               	movf	___awmod@dividend+1,w
  3400  075B  00A5               	movwf	?___awmod+1
  3401  075C  0826               	movf	___awmod@dividend,w
  3402  075D  00A4               	movwf	?___awmod
  3403  075E                     l560:
  3404  075E  0008               	return
  3405  075F                     __end_of___awmod:
  3406                           
  3407                           	psect	text14
  3408  05D0                     __ptext14:	
  3409 ;; *************** function ___awdiv *****************
  3410 ;; Defined at:
  3411 ;;		line 5 in file "C:\Program Files\Microchip\xc8\v2.32\pic\sources\c90\common\awdiv.c"
  3412 ;; Parameters:    Size  Location     Type
  3413 ;;  divisor         2    3[COMMON] int 
  3414 ;;  dividend        2    5[COMMON] int 
  3415 ;; Auto vars:     Size  Location     Type
  3416 ;;  quotient        2    2[BANK0 ] int 
  3417 ;;  sign            1    1[BANK0 ] unsigned char 
  3418 ;;  counter         1    0[BANK0 ] unsigned char 
  3419 ;; Return value:  Size  Location     Type
  3420 ;;                  2    3[COMMON] int 
  3421 ;; Registers used:
  3422 ;;		wreg, status,2, status,0
  3423 ;; Tracked objects:
  3424 ;;		On entry : 0/0
  3425 ;;		On exit  : 0/0
  3426 ;;		Unchanged: 0/0
  3427 ;; Data sizes:     COMMON   BANK0   BANK1   BANK3   BANK2
  3428 ;;      Params:         4       0       0       0       0
  3429 ;;      Locals:         0       4       0       0       0
  3430 ;;      Temps:          1       0       0       0       0
  3431 ;;      Totals:         5       4       0       0       0
  3432 ;;Total ram usage:        9 bytes
  3433 ;; Hardware stack levels used: 1
  3434 ;; Hardware stack levels required when called: 1
  3435 ;; This function calls:
  3436 ;;		Nothing
  3437 ;; This function is called by:
  3438 ;;		_conver1
  3439 ;;		_mandar_datos
  3440 ;; This function uses a non-reentrant model
  3441 ;;
  3442                           
  3443                           
  3444                           ;psect for function ___awdiv
  3445  05D0                     ___awdiv:
  3446  05D0                     l1894:	
  3447                           ;incstack = 0
  3448                           ; Regs used in ___awdiv: [wreg+status,2+status,0]
  3449                           
  3450  05D0  1283               	bcf	3,5	;RP0=0, select bank0
  3451  05D1  1303               	bcf	3,6	;RP1=0, select bank0
  3452  05D2  01A1               	clrf	___awdiv@sign
  3453  05D3                     l1896:
  3454  05D3  1FF4               	btfss	___awdiv@divisor+1,7
  3455  05D4  2DD6               	goto	u671
  3456  05D5  2DD7               	goto	u670
  3457  05D6                     u671:
  3458  05D6  2DDE               	goto	l1902
  3459  05D7                     u670:
  3460  05D7                     l1898:
  3461  05D7  09F3               	comf	___awdiv@divisor,f
  3462  05D8  09F4               	comf	___awdiv@divisor+1,f
  3463  05D9  0AF3               	incf	___awdiv@divisor,f
  3464  05DA  1903               	skipnz
  3465  05DB  0AF4               	incf	___awdiv@divisor+1,f
  3466  05DC                     l1900:
  3467  05DC  01A1               	clrf	___awdiv@sign
  3468  05DD  0AA1               	incf	___awdiv@sign,f
  3469  05DE                     l1902:
  3470  05DE  1FF6               	btfss	___awdiv@dividend+1,7
  3471  05DF  2DE1               	goto	u681
  3472  05E0  2DE2               	goto	u680
  3473  05E1                     u681:
  3474  05E1  2DEB               	goto	l1908
  3475  05E2                     u680:
  3476  05E2                     l1904:
  3477  05E2  09F5               	comf	___awdiv@dividend,f
  3478  05E3  09F6               	comf	___awdiv@dividend+1,f
  3479  05E4  0AF5               	incf	___awdiv@dividend,f
  3480  05E5  1903               	skipnz
  3481  05E6  0AF6               	incf	___awdiv@dividend+1,f
  3482  05E7                     l1906:
  3483  05E7  3001               	movlw	1
  3484  05E8  00F7               	movwf	??___awdiv
  3485  05E9  0877               	movf	??___awdiv,w
  3486  05EA  06A1               	xorwf	___awdiv@sign,f
  3487  05EB                     l1908:
  3488  05EB  01A2               	clrf	___awdiv@quotient
  3489  05EC  01A3               	clrf	___awdiv@quotient+1
  3490  05ED                     l1910:
  3491  05ED  0873               	movf	___awdiv@divisor,w
  3492  05EE  0474               	iorwf	___awdiv@divisor+1,w
  3493  05EF  1903               	btfsc	3,2
  3494  05F0  2DF2               	goto	u691
  3495  05F1  2DF3               	goto	u690
  3496  05F2                     u691:
  3497  05F2  2E2A               	goto	l1930
  3498  05F3                     u690:
  3499  05F3                     l1912:
  3500  05F3  01A0               	clrf	___awdiv@counter
  3501  05F4  0AA0               	incf	___awdiv@counter,f
  3502  05F5  2E01               	goto	l1918
  3503  05F6                     l1914:
  3504  05F6  3001               	movlw	1
  3505  05F7                     u705:
  3506  05F7  1003               	clrc
  3507  05F8  0DF3               	rlf	___awdiv@divisor,f
  3508  05F9  0DF4               	rlf	___awdiv@divisor+1,f
  3509  05FA  3EFF               	addlw	-1
  3510  05FB  1D03               	skipz
  3511  05FC  2DF7               	goto	u705
  3512  05FD                     l1916:
  3513  05FD  3001               	movlw	1
  3514  05FE  00F7               	movwf	??___awdiv
  3515  05FF  0877               	movf	??___awdiv,w
  3516  0600  07A0               	addwf	___awdiv@counter,f
  3517  0601                     l1918:
  3518  0601  1FF4               	btfss	___awdiv@divisor+1,7
  3519  0602  2E04               	goto	u711
  3520  0603  2E05               	goto	u710
  3521  0604                     u711:
  3522  0604  2DF6               	goto	l1914
  3523  0605                     u710:
  3524  0605                     l1920:
  3525  0605  3001               	movlw	1
  3526  0606                     u725:
  3527  0606  1003               	clrc
  3528  0607  0DA2               	rlf	___awdiv@quotient,f
  3529  0608  0DA3               	rlf	___awdiv@quotient+1,f
  3530  0609  3EFF               	addlw	-1
  3531  060A  1D03               	skipz
  3532  060B  2E06               	goto	u725
  3533  060C  0874               	movf	___awdiv@divisor+1,w
  3534  060D  0276               	subwf	___awdiv@dividend+1,w
  3535  060E  1D03               	skipz
  3536  060F  2E12               	goto	u735
  3537  0610  0873               	movf	___awdiv@divisor,w
  3538  0611  0275               	subwf	___awdiv@dividend,w
  3539  0612                     u735:
  3540  0612  1C03               	skipc
  3541  0613  2E15               	goto	u731
  3542  0614  2E16               	goto	u730
  3543  0615                     u731:
  3544  0615  2E1D               	goto	l1926
  3545  0616                     u730:
  3546  0616                     l1922:
  3547  0616  0873               	movf	___awdiv@divisor,w
  3548  0617  02F5               	subwf	___awdiv@dividend,f
  3549  0618  0874               	movf	___awdiv@divisor+1,w
  3550  0619  1C03               	skipc
  3551  061A  03F6               	decf	___awdiv@dividend+1,f
  3552  061B  02F6               	subwf	___awdiv@dividend+1,f
  3553  061C                     l1924:
  3554  061C  1422               	bsf	___awdiv@quotient,0
  3555  061D                     l1926:
  3556  061D  3001               	movlw	1
  3557  061E                     u745:
  3558  061E  1003               	clrc
  3559  061F  0CF4               	rrf	___awdiv@divisor+1,f
  3560  0620  0CF3               	rrf	___awdiv@divisor,f
  3561  0621  3EFF               	addlw	-1
  3562  0622  1D03               	skipz
  3563  0623  2E1E               	goto	u745
  3564  0624                     l1928:
  3565  0624  3001               	movlw	1
  3566  0625  02A0               	subwf	___awdiv@counter,f
  3567  0626  1D03               	btfss	3,2
  3568  0627  2E29               	goto	u751
  3569  0628  2E2A               	goto	u750
  3570  0629                     u751:
  3571  0629  2E05               	goto	l1920
  3572  062A                     u750:
  3573  062A                     l1930:
  3574  062A  0821               	movf	___awdiv@sign,w
  3575  062B  1903               	btfsc	3,2
  3576  062C  2E2E               	goto	u761
  3577  062D  2E2F               	goto	u760
  3578  062E                     u761:
  3579  062E  2E34               	goto	l1934
  3580  062F                     u760:
  3581  062F                     l1932:
  3582  062F  09A2               	comf	___awdiv@quotient,f
  3583  0630  09A3               	comf	___awdiv@quotient+1,f
  3584  0631  0AA2               	incf	___awdiv@quotient,f
  3585  0632  1903               	skipnz
  3586  0633  0AA3               	incf	___awdiv@quotient+1,f
  3587  0634                     l1934:
  3588  0634  0823               	movf	___awdiv@quotient+1,w
  3589  0635  00F4               	movwf	?___awdiv+1
  3590  0636  0822               	movf	___awdiv@quotient,w
  3591  0637  00F3               	movwf	?___awdiv
  3592  0638                     l547:
  3593  0638  0008               	return
  3594  0639                     __end_of___awdiv:
  3595                           
  3596                           	psect	text15
  3597  075F                     __ptext15:	
  3598 ;; *************** function _conver *****************
  3599 ;; Defined at:
  3600 ;;		line 242 in file "C:/Users/Andy Bonilla/Documents/GitHub/ED2/Proyecto1_ED2/PIC_maestro.X/main_mastre.c"
  3601 ;; Parameters:    Size  Location     Type
  3602 ;;		None
  3603 ;; Auto vars:     Size  Location     Type
  3604 ;;  temporal       16    0[BANK0 ] unsigned char [16]
  3605 ;; Return value:  Size  Location     Type
  3606 ;;                  1    wreg      PTR const unsigned char 
  3607 ;; Registers used:
  3608 ;;		wreg
  3609 ;; Tracked objects:
  3610 ;;		On entry : 0/0
  3611 ;;		On exit  : 0/0
  3612 ;;		Unchanged: 0/0
  3613 ;; Data sizes:     COMMON   BANK0   BANK1   BANK3   BANK2
  3614 ;;      Params:         0       0       0       0       0
  3615 ;;      Locals:         0      16       0       0       0
  3616 ;;      Temps:          1       0       0       0       0
  3617 ;;      Totals:         1      16       0       0       0
  3618 ;;Total ram usage:       17 bytes
  3619 ;; Hardware stack levels used: 1
  3620 ;; Hardware stack levels required when called: 1
  3621 ;; This function calls:
  3622 ;;		Nothing
  3623 ;; This function is called by:
  3624 ;;		_main
  3625 ;; This function uses a non-reentrant model
  3626 ;;
  3627                           
  3628                           
  3629                           ;psect for function _conver
  3630  075F                     _conver:
  3631  075F                     l2114:	
  3632                           ;incstack = 0
  3633                           ; Regs used in _conver: [wreg]
  3634                           
  3635                           
  3636                           ;C:/Users/Andy Bonilla/Documents/GitHub/ED2/Proyecto1_ED2/PIC_maestro.X/main_mastre.c: 2
      +                          43:     char temporal[16];;C:/Users/Andy Bonilla/Documents/GitHub/ED2/Proyecto1_ED2/PIC_
      +                          maestro.X/main_mastre.c: 244:     temporal[0] = 0x50;
  3637  075F  3050               	movlw	80
  3638  0760  00F3               	movwf	??_conver
  3639  0761  0873               	movf	??_conver,w
  3640  0762  1283               	bcf	3,5	;RP0=0, select bank0
  3641  0763  1303               	bcf	3,6	;RP1=0, select bank0
  3642  0764  00A0               	movwf	conver@temporal
  3643                           
  3644                           ;C:/Users/Andy Bonilla/Documents/GitHub/ED2/Proyecto1_ED2/PIC_maestro.X/main_mastre.c: 2
      +                          45:     temporal[1] = 0x41;
  3645  0765  3041               	movlw	65
  3646  0766  00F3               	movwf	??_conver
  3647  0767  0873               	movf	??_conver,w
  3648  0768  00A1               	movwf	conver@temporal+1
  3649                           
  3650                           ;C:/Users/Andy Bonilla/Documents/GitHub/ED2/Proyecto1_ED2/PIC_maestro.X/main_mastre.c: 2
      +                          46:     temporal[2] = 0x52;
  3651  0769  3052               	movlw	82
  3652  076A  00F3               	movwf	??_conver
  3653  076B  0873               	movf	??_conver,w
  3654  076C  00A2               	movwf	conver@temporal+2
  3655                           
  3656                           ;C:/Users/Andy Bonilla/Documents/GitHub/ED2/Proyecto1_ED2/PIC_maestro.X/main_mastre.c: 2
      +                          47:     temporal[3] = 0x51;
  3657  076D  3051               	movlw	81
  3658  076E  00F3               	movwf	??_conver
  3659  076F  0873               	movf	??_conver,w
  3660  0770  00A3               	movwf	conver@temporal+3
  3661                           
  3662                           ;C:/Users/Andy Bonilla/Documents/GitHub/ED2/Proyecto1_ED2/PIC_maestro.X/main_mastre.c: 2
      +                          48:     temporal[4] = 0x55;
  3663  0771  3055               	movlw	85
  3664  0772  00F3               	movwf	??_conver
  3665  0773  0873               	movf	??_conver,w
  3666  0774  00A4               	movwf	conver@temporal+4
  3667                           
  3668                           ;C:/Users/Andy Bonilla/Documents/GitHub/ED2/Proyecto1_ED2/PIC_maestro.X/main_mastre.c: 2
      +                          49:     temporal[5] = 0x45;
  3669  0775  3045               	movlw	69
  3670  0776  00F3               	movwf	??_conver
  3671  0777  0873               	movf	??_conver,w
  3672  0778  00A5               	movwf	conver@temporal+5
  3673                           
  3674                           ;C:/Users/Andy Bonilla/Documents/GitHub/ED2/Proyecto1_ED2/PIC_maestro.X/main_mastre.c: 2
      +                          50:     temporal[6] = 0x4F;
  3675  0779  304F               	movlw	79
  3676  077A  00F3               	movwf	??_conver
  3677  077B  0873               	movf	??_conver,w
  3678  077C  00A6               	movwf	conver@temporal+6
  3679                           
  3680                           ;C:/Users/Andy Bonilla/Documents/GitHub/ED2/Proyecto1_ED2/PIC_maestro.X/main_mastre.c: 2
      +                          51:     temporal[7] = 0x53;
  3681  077D  3053               	movlw	83
  3682  077E  00F3               	movwf	??_conver
  3683  077F  0873               	movf	??_conver,w
  3684  0780  00A7               	movwf	conver@temporal+7
  3685                           
  3686                           ;C:/Users/Andy Bonilla/Documents/GitHub/ED2/Proyecto1_ED2/PIC_maestro.X/main_mastre.c: 2
      +                          52:     temporal[8] = 0x3A;
  3687  0781  303A               	movlw	58
  3688  0782  00F3               	movwf	??_conver
  3689  0783  0873               	movf	??_conver,w
  3690  0784  00A8               	movwf	conver@temporal+8
  3691                           
  3692                           ;C:/Users/Andy Bonilla/Documents/GitHub/ED2/Proyecto1_ED2/PIC_maestro.X/main_mastre.c: 2
      +                          53:     temporal[9] = 0X20;
  3693  0785  3020               	movlw	32
  3694  0786  00F3               	movwf	??_conver
  3695  0787  0873               	movf	??_conver,w
  3696  0788  00A9               	movwf	conver@temporal+9
  3697                           
  3698                           ;C:/Users/Andy Bonilla/Documents/GitHub/ED2/Proyecto1_ED2/PIC_maestro.X/main_mastre.c: 2
      +                          54:     temporal[10] = 0x30;
  3699  0789  3030               	movlw	48
  3700  078A  00F3               	movwf	??_conver
  3701  078B  0873               	movf	??_conver,w
  3702  078C  00AA               	movwf	conver@temporal+10
  3703                           
  3704                           ;C:/Users/Andy Bonilla/Documents/GitHub/ED2/Proyecto1_ED2/PIC_maestro.X/main_mastre.c: 2
      +                          55:     temporal[11] = NUM;
  3705  078D  084D               	movf	_NUM,w
  3706  078E  00F3               	movwf	??_conver
  3707  078F  0873               	movf	??_conver,w
  3708  0790  00AB               	movwf	conver@temporal+11
  3709                           
  3710                           ;C:/Users/Andy Bonilla/Documents/GitHub/ED2/Proyecto1_ED2/PIC_maestro.X/main_mastre.c: 2
      +                          56:     temporal[12] = 0x20;
  3711  0791  3020               	movlw	32
  3712  0792  00F3               	movwf	??_conver
  3713  0793  0873               	movf	??_conver,w
  3714  0794  00AC               	movwf	conver@temporal+12
  3715                           
  3716                           ;C:/Users/Andy Bonilla/Documents/GitHub/ED2/Proyecto1_ED2/PIC_maestro.X/main_mastre.c: 2
      +                          57:     temporal[13] = 0x20;
  3717  0795  3020               	movlw	32
  3718  0796  00F3               	movwf	??_conver
  3719  0797  0873               	movf	??_conver,w
  3720  0798  00AD               	movwf	conver@temporal+13
  3721                           
  3722                           ;C:/Users/Andy Bonilla/Documents/GitHub/ED2/Proyecto1_ED2/PIC_maestro.X/main_mastre.c: 2
      +                          58:     temporal[14] = 0x20;
  3723  0799  3020               	movlw	32
  3724  079A  00F3               	movwf	??_conver
  3725  079B  0873               	movf	??_conver,w
  3726  079C  00AE               	movwf	conver@temporal+14
  3727                           
  3728                           ;C:/Users/Andy Bonilla/Documents/GitHub/ED2/Proyecto1_ED2/PIC_maestro.X/main_mastre.c: 2
      +                          59:     temporal[15] = 0x20;
  3729  079D  3020               	movlw	32
  3730  079E  00F3               	movwf	??_conver
  3731  079F  0873               	movf	??_conver,w
  3732  07A0  00AF               	movwf	conver@temporal+15
  3733                           
  3734                           ;C:/Users/Andy Bonilla/Documents/GitHub/ED2/Proyecto1_ED2/PIC_maestro.X/main_mastre.c: 2
      +                          60:     return temporal;
  3735  07A1  3020               	movlw	(low (conver@temporal| 0))& (0+255)
  3736  07A2                     l120:
  3737  07A2  0008               	return
  3738  07A3                     __end_of_conver:
  3739                           
  3740                           	psect	text16
  3741  0F14                     __ptext16:	
  3742 ;; *************** function _Lcd_Write_String *****************
  3743 ;; Defined at:
  3744 ;;		line 56 in file "C:/Users/Andy Bonilla/Documents/GitHub/ED2/Proyecto1_ED2/PIC_maestro.X/lcd_pablo.c"
  3745 ;; Parameters:    Size  Location     Type
  3746 ;;  a               1    wreg     PTR unsigned char 
  3747 ;;		 -> conver1@temporal(16), conver@temporal(16), 
  3748 ;; Auto vars:     Size  Location     Type
  3749 ;;  a               1    2[BANK0 ] PTR unsigned char 
  3750 ;;		 -> conver1@temporal(16), conver@temporal(16), 
  3751 ;;  i               2    0[BANK0 ] int 
  3752 ;; Return value:  Size  Location     Type
  3753 ;;                  1    wreg      void 
  3754 ;; Registers used:
  3755 ;;		wreg, fsr0l, fsr0h, status,2, status,0, pclath, cstack
  3756 ;; Tracked objects:
  3757 ;;		On entry : 0/0
  3758 ;;		On exit  : 0/0
  3759 ;;		Unchanged: 0/0
  3760 ;; Data sizes:     COMMON   BANK0   BANK1   BANK3   BANK2
  3761 ;;      Params:         0       0       0       0       0
  3762 ;;      Locals:         0       3       0       0       0
  3763 ;;      Temps:          1       0       0       0       0
  3764 ;;      Totals:         1       3       0       0       0
  3765 ;;Total ram usage:        4 bytes
  3766 ;; Hardware stack levels used: 1
  3767 ;; Hardware stack levels required when called: 3
  3768 ;; This function calls:
  3769 ;;		_Lcd_Write_Char
  3770 ;; This function is called by:
  3771 ;;		_main
  3772 ;; This function uses a non-reentrant model
  3773 ;;
  3774                           
  3775                           
  3776                           ;psect for function _Lcd_Write_String
  3777  0F14                     _Lcd_Write_String:
  3778                           
  3779                           ;incstack = 0
  3780                           ; Regs used in _Lcd_Write_String: [wreg-fsr0h+status,2+status,0+pclath+cstack]
  3781                           ;Lcd_Write_String@a stored from wreg
  3782  0F14  1283               	bcf	3,5	;RP0=0, select bank0
  3783  0F15  1303               	bcf	3,6	;RP1=0, select bank0
  3784  0F16  00A2               	movwf	Lcd_Write_String@a
  3785  0F17                     l2716:
  3786                           
  3787                           ;C:/Users/Andy Bonilla/Documents/GitHub/ED2/Proyecto1_ED2/PIC_maestro.X/lcd_pablo.c: 57:
      +                               int i;;C:/Users/Andy Bonilla/Documents/GitHub/ED2/Proyecto1_ED2/PIC_maestro.X/lcd_p
      +                          ablo.c: 58:     for (i = 0; a[i] != '\0'; i++)
  3788  0F17  01A0               	clrf	Lcd_Write_String@i
  3789  0F18  01A1               	clrf	Lcd_Write_String@i+1
  3790  0F19  2F2D               	goto	l2722
  3791  0F1A                     l2718:
  3792                           
  3793                           ;C:/Users/Andy Bonilla/Documents/GitHub/ED2/Proyecto1_ED2/PIC_maestro.X/lcd_pablo.c: 59:
      +                                   Lcd_Write_Char(a[i]);
  3794  0F1A  0820               	movf	Lcd_Write_String@i,w
  3795  0F1B  0722               	addwf	Lcd_Write_String@a,w
  3796  0F1C  00F6               	movwf	??_Lcd_Write_String
  3797  0F1D  0876               	movf	??_Lcd_Write_String,w
  3798  0F1E  0084               	movwf	4
  3799  0F1F  0800               	movf	0,w
  3800  0F20  120A  158A  26D0  120A  158A  	fcall	_Lcd_Write_Char
  3801  0F25                     l2720:
  3802  0F25  3001               	movlw	1
  3803  0F26  1283               	bcf	3,5	;RP0=0, select bank0
  3804  0F27  1303               	bcf	3,6	;RP1=0, select bank0
  3805  0F28  07A0               	addwf	Lcd_Write_String@i,f
  3806  0F29  1803               	skipnc
  3807  0F2A  0AA1               	incf	Lcd_Write_String@i+1,f
  3808  0F2B  3000               	movlw	0
  3809  0F2C  07A1               	addwf	Lcd_Write_String@i+1,f
  3810  0F2D                     l2722:
  3811  0F2D  0820               	movf	Lcd_Write_String@i,w
  3812  0F2E  0722               	addwf	Lcd_Write_String@a,w
  3813  0F2F  00F6               	movwf	??_Lcd_Write_String
  3814  0F30  0876               	movf	??_Lcd_Write_String,w
  3815  0F31  0084               	movwf	4
  3816  0F32  1383               	bcf	3,7	;select IRP bank0
  3817  0F33  0800               	movf	0,w
  3818  0F34  1D03               	btfss	3,2
  3819  0F35  2F37               	goto	u1331
  3820  0F36  2F38               	goto	u1330
  3821  0F37                     u1331:
  3822  0F37  2F1A               	goto	l2718
  3823  0F38                     u1330:
  3824  0F38                     l207:
  3825  0F38  0008               	return
  3826  0F39                     __end_of_Lcd_Write_String:
  3827                           
  3828                           	psect	text17
  3829  0ED0                     __ptext17:	
  3830 ;; *************** function _Lcd_Write_Char *****************
  3831 ;; Defined at:
  3832 ;;		line 47 in file "C:/Users/Andy Bonilla/Documents/GitHub/ED2/Proyecto1_ED2/PIC_maestro.X/lcd_pablo.c"
  3833 ;; Parameters:    Size  Location     Type
  3834 ;;  a               1    wreg     unsigned char 
  3835 ;; Auto vars:     Size  Location     Type
  3836 ;;  a               1    5[COMMON] unsigned char 
  3837 ;; Return value:  Size  Location     Type
  3838 ;;                  1    wreg      void 
  3839 ;; Registers used:
  3840 ;;		wreg, status,2, status,0, pclath, cstack
  3841 ;; Tracked objects:
  3842 ;;		On entry : 0/0
  3843 ;;		On exit  : 0/0
  3844 ;;		Unchanged: 0/0
  3845 ;; Data sizes:     COMMON   BANK0   BANK1   BANK3   BANK2
  3846 ;;      Params:         0       0       0       0       0
  3847 ;;      Locals:         1       0       0       0       0
  3848 ;;      Temps:          1       0       0       0       0
  3849 ;;      Totals:         2       0       0       0       0
  3850 ;;Total ram usage:        2 bytes
  3851 ;; Hardware stack levels used: 1
  3852 ;; Hardware stack levels required when called: 2
  3853 ;; This function calls:
  3854 ;;		_Lcd_Port
  3855 ;; This function is called by:
  3856 ;;		_Lcd_Write_String
  3857 ;; This function uses a non-reentrant model
  3858 ;;
  3859                           
  3860                           
  3861                           ;psect for function _Lcd_Write_Char
  3862  0ED0                     _Lcd_Write_Char:
  3863                           
  3864                           ;incstack = 0
  3865                           ; Regs used in _Lcd_Write_Char: [wreg+status,2+status,0+pclath+cstack]
  3866                           ;Lcd_Write_Char@a stored from wreg
  3867  0ED0  00F5               	movwf	Lcd_Write_Char@a
  3868  0ED1                     l2536:
  3869                           
  3870                           ;C:/Users/Andy Bonilla/Documents/GitHub/ED2/Proyecto1_ED2/PIC_maestro.X/lcd_pablo.c: 48:
      +                               Lcd_Port(a);
  3871  0ED1  0875               	movf	Lcd_Write_Char@a,w
  3872  0ED2  120A  158A  268F  120A  158A  	fcall	_Lcd_Port
  3873  0ED7                     l2538:
  3874                           
  3875                           ;C:/Users/Andy Bonilla/Documents/GitHub/ED2/Proyecto1_ED2/PIC_maestro.X/lcd_pablo.c: 49:
      +                               PORTEbits.RE1 = 1;
  3876  0ED7  1283               	bcf	3,5	;RP0=0, select bank0
  3877  0ED8  1303               	bcf	3,6	;RP1=0, select bank0
  3878  0ED9  1489               	bsf	9,1	;volatile
  3879  0EDA                     l2540:
  3880                           
  3881                           ;C:/Users/Andy Bonilla/Documents/GitHub/ED2/Proyecto1_ED2/PIC_maestro.X/lcd_pablo.c: 50:
      +                               PORTEbits.RE2 = 0;
  3882  0EDA  1109               	bcf	9,2	;volatile
  3883  0EDB                     l2542:
  3884                           
  3885                           ;C:/Users/Andy Bonilla/Documents/GitHub/ED2/Proyecto1_ED2/PIC_maestro.X/lcd_pablo.c: 51:
      +                               PORTEbits.RE0 = 1;
  3886  0EDB  1409               	bsf	9,0	;volatile
  3887  0EDC                     l2544:
  3888                           
  3889                           ;C:/Users/Andy Bonilla/Documents/GitHub/ED2/Proyecto1_ED2/PIC_maestro.X/lcd_pablo.c: 52:
      +                               _delay((unsigned long)((40)*(8000000/4000000.0)));
  3890  0EDC  301A               	movlw	26
  3891  0EDD  00F4               	movwf	??_Lcd_Write_Char
  3892  0EDE                     u1527:
  3893  0EDE  0BF4               	decfsz	??_Lcd_Write_Char,f
  3894  0EDF  2EDE               	goto	u1527
  3895  0EE0  0000               	nop
  3896  0EE1                     l2546:
  3897                           
  3898                           ;C:/Users/Andy Bonilla/Documents/GitHub/ED2/Proyecto1_ED2/PIC_maestro.X/lcd_pablo.c: 53:
      +                               PORTEbits.RE0 = 0;
  3899  0EE1  1283               	bcf	3,5	;RP0=0, select bank0
  3900  0EE2  1303               	bcf	3,6	;RP1=0, select bank0
  3901  0EE3  1009               	bcf	9,0	;volatile
  3902  0EE4                     l201:
  3903  0EE4  0008               	return
  3904  0EE5                     __end_of_Lcd_Write_Char:
  3905                           
  3906                           	psect	text18
  3907  0F39                     __ptext18:	
  3908 ;; *************** function _Lcd_Set_Cursor *****************
  3909 ;; Defined at:
  3910 ;;		line 20 in file "C:/Users/Andy Bonilla/Documents/GitHub/ED2/Proyecto1_ED2/PIC_maestro.X/lcd_pablo.c"
  3911 ;; Parameters:    Size  Location     Type
  3912 ;;  a               1    wreg     unsigned char 
  3913 ;;  b               1    7[COMMON] unsigned char 
  3914 ;; Auto vars:     Size  Location     Type
  3915 ;;  a               1    1[BANK0 ] unsigned char 
  3916 ;;  temp            1    2[BANK0 ] unsigned char 
  3917 ;; Return value:  Size  Location     Type
  3918 ;;                  1    wreg      void 
  3919 ;; Registers used:
  3920 ;;		wreg, status,2, status,0, pclath, cstack
  3921 ;; Tracked objects:
  3922 ;;		On entry : 0/0
  3923 ;;		On exit  : 0/0
  3924 ;;		Unchanged: 0/0
  3925 ;; Data sizes:     COMMON   BANK0   BANK1   BANK3   BANK2
  3926 ;;      Params:         1       0       0       0       0
  3927 ;;      Locals:         0       2       0       0       0
  3928 ;;      Temps:          0       1       0       0       0
  3929 ;;      Totals:         1       3       0       0       0
  3930 ;;Total ram usage:        4 bytes
  3931 ;; Hardware stack levels used: 1
  3932 ;; Hardware stack levels required when called: 3
  3933 ;; This function calls:
  3934 ;;		_Lcd_Cmd
  3935 ;; This function is called by:
  3936 ;;		_main
  3937 ;; This function uses a non-reentrant model
  3938 ;;
  3939                           
  3940                           
  3941                           ;psect for function _Lcd_Set_Cursor
  3942  0F39                     _Lcd_Set_Cursor:
  3943                           
  3944                           ;incstack = 0
  3945                           ; Regs used in _Lcd_Set_Cursor: [wreg+status,2+status,0+pclath+cstack]
  3946                           ;Lcd_Set_Cursor@a stored from wreg
  3947  0F39  1283               	bcf	3,5	;RP0=0, select bank0
  3948  0F3A  1303               	bcf	3,6	;RP1=0, select bank0
  3949  0F3B  00A1               	movwf	Lcd_Set_Cursor@a
  3950  0F3C                     l2696:
  3951                           
  3952                           ;C:/Users/Andy Bonilla/Documents/GitHub/ED2/Proyecto1_ED2/PIC_maestro.X/lcd_pablo.c: 21:
      +                               char temp;;C:/Users/Andy Bonilla/Documents/GitHub/ED2/Proyecto1_ED2/PIC_maestro.X/l
      +                          cd_pablo.c: 22:     if (a == 1)
  3953  0F3C  0321               	decf	Lcd_Set_Cursor@a,w
  3954  0F3D  1D03               	btfss	3,2
  3955  0F3E  2F40               	goto	u1311
  3956  0F3F  2F41               	goto	u1310
  3957  0F40                     u1311:
  3958  0F40  2F4D               	goto	l2702
  3959  0F41                     u1310:
  3960  0F41                     l2698:
  3961                           
  3962                           ;C:/Users/Andy Bonilla/Documents/GitHub/ED2/Proyecto1_ED2/PIC_maestro.X/lcd_pablo.c: 23:
      +                               {;C:/Users/Andy Bonilla/Documents/GitHub/ED2/Proyecto1_ED2/PIC_maestro.X/lcd_pablo.
      +                          c: 24:         temp = 0x80 + b - 1;
  3963  0F41  0877               	movf	Lcd_Set_Cursor@b,w
  3964  0F42  3E7F               	addlw	127
  3965  0F43  00A0               	movwf	??_Lcd_Set_Cursor
  3966  0F44  0820               	movf	??_Lcd_Set_Cursor,w
  3967  0F45  00A2               	movwf	Lcd_Set_Cursor@temp
  3968  0F46                     l2700:
  3969                           
  3970                           ;C:/Users/Andy Bonilla/Documents/GitHub/ED2/Proyecto1_ED2/PIC_maestro.X/lcd_pablo.c: 25:
      +                                   Lcd_Cmd(temp);
  3971  0F46  0822               	movf	Lcd_Set_Cursor@temp,w
  3972  0F47  120A  158A  26FB  120A  158A  	fcall	_Lcd_Cmd
  3973                           
  3974                           ;C:/Users/Andy Bonilla/Documents/GitHub/ED2/Proyecto1_ED2/PIC_maestro.X/lcd_pablo.c: 26:
      +                               }
  3975  0F4C  2F5E               	goto	l195
  3976  0F4D                     l2702:
  3977  0F4D  3002               	movlw	2
  3978  0F4E  0621               	xorwf	Lcd_Set_Cursor@a,w
  3979  0F4F  1D03               	btfss	3,2
  3980  0F50  2F52               	goto	u1321
  3981  0F51  2F53               	goto	u1320
  3982  0F52                     u1321:
  3983  0F52  2F5E               	goto	l195
  3984  0F53                     u1320:
  3985  0F53                     l2704:
  3986                           
  3987                           ;C:/Users/Andy Bonilla/Documents/GitHub/ED2/Proyecto1_ED2/PIC_maestro.X/lcd_pablo.c: 28:
      +                                   temp = 0xC0 + b - 1;
  3988  0F53  0877               	movf	Lcd_Set_Cursor@b,w
  3989  0F54  3EBF               	addlw	191
  3990  0F55  00A0               	movwf	??_Lcd_Set_Cursor
  3991  0F56  0820               	movf	??_Lcd_Set_Cursor,w
  3992  0F57  00A2               	movwf	Lcd_Set_Cursor@temp
  3993  0F58                     l2706:
  3994                           
  3995                           ;C:/Users/Andy Bonilla/Documents/GitHub/ED2/Proyecto1_ED2/PIC_maestro.X/lcd_pablo.c: 29:
      +                                   Lcd_Cmd(temp);
  3996  0F58  0822               	movf	Lcd_Set_Cursor@temp,w
  3997  0F59  120A  158A  26FB  120A  158A  	fcall	_Lcd_Cmd
  3998  0F5E                     l195:
  3999  0F5E  0008               	return
  4000  0F5F                     __end_of_Lcd_Set_Cursor:
  4001                           
  4002                           	psect	text19
  4003  07E2                     __ptext19:	
  4004 ;; *************** function _Lcd_Init *****************
  4005 ;; Defined at:
  4006 ;;		line 33 in file "C:/Users/Andy Bonilla/Documents/GitHub/ED2/Proyecto1_ED2/PIC_maestro.X/lcd_pablo.c"
  4007 ;; Parameters:    Size  Location     Type
  4008 ;;		None
  4009 ;; Auto vars:     Size  Location     Type
  4010 ;;		None
  4011 ;; Return value:  Size  Location     Type
  4012 ;;                  1    wreg      void 
  4013 ;; Registers used:
  4014 ;;		wreg, status,2, status,0, pclath, cstack
  4015 ;; Tracked objects:
  4016 ;;		On entry : 0/0
  4017 ;;		On exit  : 0/0
  4018 ;;		Unchanged: 0/0
  4019 ;; Data sizes:     COMMON   BANK0   BANK1   BANK3   BANK2
  4020 ;;      Params:         0       0       0       0       0
  4021 ;;      Locals:         0       0       0       0       0
  4022 ;;      Temps:          0       0       0       0       0
  4023 ;;      Totals:         0       0       0       0       0
  4024 ;;Total ram usage:        0 bytes
  4025 ;; Hardware stack levels used: 1
  4026 ;; Hardware stack levels required when called: 3
  4027 ;; This function calls:
  4028 ;;		_Lcd_Cmd
  4029 ;; This function is called by:
  4030 ;;		_main
  4031 ;; This function uses a non-reentrant model
  4032 ;;
  4033                           
  4034                           
  4035                           ;psect for function _Lcd_Init
  4036  07E2                     _Lcd_Init:
  4037  07E2                     l2694:	
  4038                           ;incstack = 0
  4039                           ; Regs used in _Lcd_Init: [wreg+status,2+status,0+pclath+cstack]
  4040                           
  4041                           
  4042                           ;C:/Users/Andy Bonilla/Documents/GitHub/ED2/Proyecto1_ED2/PIC_maestro.X/lcd_pablo.c: 41:
      +                               Lcd_Cmd(0x38);
  4043  07E2  3038               	movlw	56
  4044  07E3  120A  158A  26FB  120A  118A  	fcall	_Lcd_Cmd
  4045                           
  4046                           ;C:/Users/Andy Bonilla/Documents/GitHub/ED2/Proyecto1_ED2/PIC_maestro.X/lcd_pablo.c: 42:
      +                               Lcd_Cmd(0x06);
  4047  07E8  3006               	movlw	6
  4048  07E9  120A  158A  26FB  120A  118A  	fcall	_Lcd_Cmd
  4049                           
  4050                           ;C:/Users/Andy Bonilla/Documents/GitHub/ED2/Proyecto1_ED2/PIC_maestro.X/lcd_pablo.c: 43:
      +                               Lcd_Cmd(0x0c);
  4051  07EE  300C               	movlw	12
  4052  07EF  120A  158A  26FB  120A  118A  	fcall	_Lcd_Cmd
  4053                           
  4054                           ;C:/Users/Andy Bonilla/Documents/GitHub/ED2/Proyecto1_ED2/PIC_maestro.X/lcd_pablo.c: 44:
      +                               Lcd_Cmd(0x80);
  4055  07F4  3080               	movlw	128
  4056  07F5  120A  158A  26FB  120A  118A  	fcall	_Lcd_Cmd
  4057  07FA                     l198:
  4058  07FA  0008               	return
  4059  07FB                     __end_of_Lcd_Init:
  4060                           
  4061                           	psect	text20
  4062  0EFB                     __ptext20:	
  4063 ;; *************** function _Lcd_Cmd *****************
  4064 ;; Defined at:
  4065 ;;		line 7 in file "C:/Users/Andy Bonilla/Documents/GitHub/ED2/Proyecto1_ED2/PIC_maestro.X/lcd_pablo.c"
  4066 ;; Parameters:    Size  Location     Type
  4067 ;;  a               1    wreg     unsigned char 
  4068 ;; Auto vars:     Size  Location     Type
  4069 ;;  a               1    6[COMMON] unsigned char 
  4070 ;; Return value:  Size  Location     Type
  4071 ;;                  1    wreg      void 
  4072 ;; Registers used:
  4073 ;;		wreg, status,2, status,0, pclath, cstack
  4074 ;; Tracked objects:
  4075 ;;		On entry : 0/0
  4076 ;;		On exit  : 0/0
  4077 ;;		Unchanged: 0/0
  4078 ;; Data sizes:     COMMON   BANK0   BANK1   BANK3   BANK2
  4079 ;;      Params:         0       0       0       0       0
  4080 ;;      Locals:         1       0       0       0       0
  4081 ;;      Temps:          2       0       0       0       0
  4082 ;;      Totals:         3       0       0       0       0
  4083 ;;Total ram usage:        3 bytes
  4084 ;; Hardware stack levels used: 1
  4085 ;; Hardware stack levels required when called: 2
  4086 ;; This function calls:
  4087 ;;		_Lcd_Port
  4088 ;; This function is called by:
  4089 ;;		_Lcd_Set_Cursor
  4090 ;;		_Lcd_Init
  4091 ;;		_Lcd_Clear
  4092 ;;		_Lcd_Shift_Right
  4093 ;;		_Lcd_Shift_Left
  4094 ;; This function uses a non-reentrant model
  4095 ;;
  4096                           
  4097                           
  4098                           ;psect for function _Lcd_Cmd
  4099  0EFB                     _Lcd_Cmd:
  4100                           
  4101                           ;incstack = 0
  4102                           ; Regs used in _Lcd_Cmd: [wreg+status,2+status,0+pclath+cstack]
  4103                           ;Lcd_Cmd@a stored from wreg
  4104  0EFB  00F6               	movwf	Lcd_Cmd@a
  4105  0EFC                     l2524:
  4106                           
  4107                           ;C:/Users/Andy Bonilla/Documents/GitHub/ED2/Proyecto1_ED2/PIC_maestro.X/lcd_pablo.c: 8: 
      +                              Lcd_Port(a);
  4108  0EFC  0876               	movf	Lcd_Cmd@a,w
  4109  0EFD  120A  158A  268F  120A  158A  	fcall	_Lcd_Port
  4110  0F02                     l2526:
  4111                           
  4112                           ;C:/Users/Andy Bonilla/Documents/GitHub/ED2/Proyecto1_ED2/PIC_maestro.X/lcd_pablo.c: 9: 
      +                              PORTEbits.RE1 = 0;
  4113  0F02  1283               	bcf	3,5	;RP0=0, select bank0
  4114  0F03  1303               	bcf	3,6	;RP1=0, select bank0
  4115  0F04  1089               	bcf	9,1	;volatile
  4116  0F05                     l2528:
  4117                           
  4118                           ;C:/Users/Andy Bonilla/Documents/GitHub/ED2/Proyecto1_ED2/PIC_maestro.X/lcd_pablo.c: 10:
      +                               PORTEbits.RE2 = 0;
  4119  0F05  1109               	bcf	9,2	;volatile
  4120  0F06                     l2530:
  4121                           
  4122                           ;C:/Users/Andy Bonilla/Documents/GitHub/ED2/Proyecto1_ED2/PIC_maestro.X/lcd_pablo.c: 11:
      +                               PORTEbits.RE0 = 1;
  4123  0F06  1409               	bsf	9,0	;volatile
  4124  0F07                     l2532:
  4125                           
  4126                           ;C:/Users/Andy Bonilla/Documents/GitHub/ED2/Proyecto1_ED2/PIC_maestro.X/lcd_pablo.c: 12:
      +                               _delay((unsigned long)((5)*(8000000/4000.0)));
  4127  0F07  300D               	movlw	13
  4128  0F08  00F5               	movwf	??_Lcd_Cmd+1
  4129  0F09  30FB               	movlw	251
  4130  0F0A  00F4               	movwf	??_Lcd_Cmd
  4131  0F0B                     u1537:
  4132  0F0B  0BF4               	decfsz	??_Lcd_Cmd,f
  4133  0F0C  2F0B               	goto	u1537
  4134  0F0D  0BF5               	decfsz	??_Lcd_Cmd+1,f
  4135  0F0E  2F0B               	goto	u1537
  4136  0F0F  2F10               	nop2
  4137  0F10                     l2534:
  4138                           
  4139                           ;C:/Users/Andy Bonilla/Documents/GitHub/ED2/Proyecto1_ED2/PIC_maestro.X/lcd_pablo.c: 13:
      +                               PORTEbits.RE0 = 0;
  4140  0F10  1283               	bcf	3,5	;RP0=0, select bank0
  4141  0F11  1303               	bcf	3,6	;RP1=0, select bank0
  4142  0F12  1009               	bcf	9,0	;volatile
  4143  0F13                     l186:
  4144  0F13  0008               	return
  4145  0F14                     __end_of_Lcd_Cmd:
  4146                           
  4147                           	psect	text21
  4148  0E8F                     __ptext21:	
  4149 ;; *************** function _Lcd_Port *****************
  4150 ;; Defined at:
  4151 ;;		line 3 in file "C:/Users/Andy Bonilla/Documents/GitHub/ED2/Proyecto1_ED2/PIC_maestro.X/lcd_pablo.c"
  4152 ;; Parameters:    Size  Location     Type
  4153 ;;  a               1    wreg     unsigned char 
  4154 ;; Auto vars:     Size  Location     Type
  4155 ;;  a               1    3[COMMON] unsigned char 
  4156 ;; Return value:  Size  Location     Type
  4157 ;;                  1    wreg      void 
  4158 ;; Registers used:
  4159 ;;		wreg
  4160 ;; Tracked objects:
  4161 ;;		On entry : 0/0
  4162 ;;		On exit  : 0/0
  4163 ;;		Unchanged: 0/0
  4164 ;; Data sizes:     COMMON   BANK0   BANK1   BANK3   BANK2
  4165 ;;      Params:         0       0       0       0       0
  4166 ;;      Locals:         1       0       0       0       0
  4167 ;;      Temps:          0       0       0       0       0
  4168 ;;      Totals:         1       0       0       0       0
  4169 ;;Total ram usage:        1 bytes
  4170 ;; Hardware stack levels used: 1
  4171 ;; Hardware stack levels required when called: 1
  4172 ;; This function calls:
  4173 ;;		Nothing
  4174 ;; This function is called by:
  4175 ;;		_Lcd_Cmd
  4176 ;;		_Lcd_Write_Char
  4177 ;; This function uses a non-reentrant model
  4178 ;;
  4179                           
  4180                           
  4181                           ;psect for function _Lcd_Port
  4182  0E8F                     _Lcd_Port:
  4183                           
  4184                           ;incstack = 0
  4185                           ; Regs used in _Lcd_Port: [wreg]
  4186                           ;Lcd_Port@a stored from wreg
  4187  0E8F  00F3               	movwf	Lcd_Port@a
  4188  0E90                     l2454:
  4189                           
  4190                           ;C:/Users/Andy Bonilla/Documents/GitHub/ED2/Proyecto1_ED2/PIC_maestro.X/lcd_pablo.c: 4: 
      +                              PORTB = a;
  4191  0E90  0873               	movf	Lcd_Port@a,w
  4192  0E91  1283               	bcf	3,5	;RP0=0, select bank0
  4193  0E92  1303               	bcf	3,6	;RP1=0, select bank0
  4194  0E93  0086               	movwf	6	;volatile
  4195  0E94                     l183:
  4196  0E94  0008               	return
  4197  0E95                     __end_of_Lcd_Port:
  4198                           
  4199                           	psect	text22
  4200  0206                     __ptext22:	
  4201 ;; *************** function _LECT1 *****************
  4202 ;; Defined at:
  4203 ;;		line 285 in file "C:/Users/Andy Bonilla/Documents/GitHub/ED2/Proyecto1_ED2/PIC_maestro.X/main_mastre.c"
  4204 ;; Parameters:    Size  Location     Type
  4205 ;;		None
  4206 ;; Auto vars:     Size  Location     Type
  4207 ;;		None
  4208 ;; Return value:  Size  Location     Type
  4209 ;;                  1    wreg      void 
  4210 ;; Registers used:
  4211 ;;		wreg, fsr0l, fsr0h, status,2, status,0, pclath, cstack
  4212 ;; Tracked objects:
  4213 ;;		On entry : 0/0
  4214 ;;		On exit  : 0/0
  4215 ;;		Unchanged: 0/0
  4216 ;; Data sizes:     COMMON   BANK0   BANK1   BANK3   BANK2
  4217 ;;      Params:         0       0       0       0       0
  4218 ;;      Locals:         0       0       0       0       0
  4219 ;;      Temps:          1       0       0       0       0
  4220 ;;      Totals:         1       0       0       0       0
  4221 ;;Total ram usage:        1 bytes
  4222 ;; Hardware stack levels used: 1
  4223 ;; Hardware stack levels required when called: 2
  4224 ;; This function calls:
  4225 ;;		_num_ascii
  4226 ;; This function is called by:
  4227 ;;		_main
  4228 ;; This function uses a non-reentrant model
  4229 ;;
  4230                           
  4231                           
  4232                           ;psect for function _LECT1
  4233  0206                     _LECT1:
  4234  0206                     l2118:	
  4235                           ;incstack = 0
  4236                           ; Regs used in _LECT1: [wreg-fsr0h+status,2+status,0+pclath+cstack]
  4237                           
  4238                           
  4239                           ;C:/Users/Andy Bonilla/Documents/GitHub/ED2/Proyecto1_ED2/PIC_maestro.X/main_mastre.c: 2
      +                          86:     NUM = num_ascii(PARKH);
  4240  0206  1283               	bcf	3,5	;RP0=0, select bank0
  4241  0207  1303               	bcf	3,6	;RP1=0, select bank0
  4242  0208  084E               	movf	_PARKH,w
  4243  0209  120A  118A  27A3  120A  118A  	fcall	_num_ascii
  4244  020E  00F6               	movwf	??_LECT1
  4245  020F  0876               	movf	??_LECT1,w
  4246  0210  1283               	bcf	3,5	;RP0=0, select bank0
  4247  0211  1303               	bcf	3,6	;RP1=0, select bank0
  4248  0212  00CD               	movwf	_NUM
  4249  0213                     l2120:
  4250                           
  4251                           ;C:/Users/Andy Bonilla/Documents/GitHub/ED2/Proyecto1_ED2/PIC_maestro.X/main_mastre.c: 2
      +                          87:     if (DIA == 1){
  4252  0213  037A               	decf	_DIA,w
  4253  0214  1D03               	btfss	3,2
  4254  0215  2A17               	goto	u891
  4255  0216  2A18               	goto	u890
  4256  0217                     u891:
  4257  0217  2A25               	goto	l2124
  4258  0218                     u890:
  4259  0218                     l2122:
  4260                           
  4261                           ;C:/Users/Andy Bonilla/Documents/GitHub/ED2/Proyecto1_ED2/PIC_maestro.X/main_mastre.c: 2
      +                          88:         C1 = 0x4C;
  4262  0218  304C               	movlw	76
  4263  0219  00F6               	movwf	??_LECT1
  4264  021A  0876               	movf	??_LECT1,w
  4265  021B  00C9               	movwf	_C1
  4266                           
  4267                           ;C:/Users/Andy Bonilla/Documents/GitHub/ED2/Proyecto1_ED2/PIC_maestro.X/main_mastre.c: 2
      +                          89:         C2 = 0x75;
  4268  021C  3075               	movlw	117
  4269  021D  00F6               	movwf	??_LECT1
  4270  021E  0876               	movf	??_LECT1,w
  4271  021F  00C8               	movwf	_C2
  4272                           
  4273                           ;C:/Users/Andy Bonilla/Documents/GitHub/ED2/Proyecto1_ED2/PIC_maestro.X/main_mastre.c: 2
      +                          90:         C3 = 0x6E;
  4274  0220  306E               	movlw	110
  4275  0221  00F6               	movwf	??_LECT1
  4276  0222  0876               	movf	??_LECT1,w
  4277  0223  00C7               	movwf	_C3
  4278                           
  4279                           ;C:/Users/Andy Bonilla/Documents/GitHub/ED2/Proyecto1_ED2/PIC_maestro.X/main_mastre.c: 2
      +                          91:     }
  4280  0224  2A99               	goto	l127
  4281  0225                     l2124:
  4282  0225  3002               	movlw	2
  4283  0226  067A               	xorwf	_DIA,w
  4284  0227  1D03               	btfss	3,2
  4285  0228  2A2A               	goto	u901
  4286  0229  2A2B               	goto	u900
  4287  022A                     u901:
  4288  022A  2A38               	goto	l2128
  4289  022B                     u900:
  4290  022B                     l2126:
  4291                           
  4292                           ;C:/Users/Andy Bonilla/Documents/GitHub/ED2/Proyecto1_ED2/PIC_maestro.X/main_mastre.c: 2
      +                          93:         C1 = 0x4D;
  4293  022B  304D               	movlw	77
  4294  022C  00F6               	movwf	??_LECT1
  4295  022D  0876               	movf	??_LECT1,w
  4296  022E  00C9               	movwf	_C1
  4297                           
  4298                           ;C:/Users/Andy Bonilla/Documents/GitHub/ED2/Proyecto1_ED2/PIC_maestro.X/main_mastre.c: 2
      +                          94:         C2 = 0x61;
  4299  022F  3061               	movlw	97
  4300  0230  00F6               	movwf	??_LECT1
  4301  0231  0876               	movf	??_LECT1,w
  4302  0232  00C8               	movwf	_C2
  4303                           
  4304                           ;C:/Users/Andy Bonilla/Documents/GitHub/ED2/Proyecto1_ED2/PIC_maestro.X/main_mastre.c: 2
      +                          95:         C3 = 0x72;
  4305  0233  3072               	movlw	114
  4306  0234  00F6               	movwf	??_LECT1
  4307  0235  0876               	movf	??_LECT1,w
  4308  0236  00C7               	movwf	_C3
  4309                           
  4310                           ;C:/Users/Andy Bonilla/Documents/GitHub/ED2/Proyecto1_ED2/PIC_maestro.X/main_mastre.c: 2
      +                          96:     }
  4311  0237  2A99               	goto	l127
  4312  0238                     l2128:
  4313  0238  3003               	movlw	3
  4314  0239  067A               	xorwf	_DIA,w
  4315  023A  1D03               	btfss	3,2
  4316  023B  2A3D               	goto	u911
  4317  023C  2A3E               	goto	u910
  4318  023D                     u911:
  4319  023D  2A4B               	goto	l2132
  4320  023E                     u910:
  4321  023E                     l2130:
  4322                           
  4323                           ;C:/Users/Andy Bonilla/Documents/GitHub/ED2/Proyecto1_ED2/PIC_maestro.X/main_mastre.c: 2
      +                          98:         C1 = 0x4D;
  4324  023E  304D               	movlw	77
  4325  023F  00F6               	movwf	??_LECT1
  4326  0240  0876               	movf	??_LECT1,w
  4327  0241  00C9               	movwf	_C1
  4328                           
  4329                           ;C:/Users/Andy Bonilla/Documents/GitHub/ED2/Proyecto1_ED2/PIC_maestro.X/main_mastre.c: 2
      +                          99:         C2 = 0x69;
  4330  0242  3069               	movlw	105
  4331  0243  00F6               	movwf	??_LECT1
  4332  0244  0876               	movf	??_LECT1,w
  4333  0245  00C8               	movwf	_C2
  4334                           
  4335                           ;C:/Users/Andy Bonilla/Documents/GitHub/ED2/Proyecto1_ED2/PIC_maestro.X/main_mastre.c: 3
      +                          00:         C3 = 0x65;
  4336  0246  3065               	movlw	101
  4337  0247  00F6               	movwf	??_LECT1
  4338  0248  0876               	movf	??_LECT1,w
  4339  0249  00C7               	movwf	_C3
  4340                           
  4341                           ;C:/Users/Andy Bonilla/Documents/GitHub/ED2/Proyecto1_ED2/PIC_maestro.X/main_mastre.c: 3
      +                          01:     }
  4342  024A  2A99               	goto	l127
  4343  024B                     l2132:
  4344  024B  3004               	movlw	4
  4345  024C  067A               	xorwf	_DIA,w
  4346  024D  1D03               	btfss	3,2
  4347  024E  2A50               	goto	u921
  4348  024F  2A51               	goto	u920
  4349  0250                     u921:
  4350  0250  2A5E               	goto	l2136
  4351  0251                     u920:
  4352  0251                     l2134:
  4353                           
  4354                           ;C:/Users/Andy Bonilla/Documents/GitHub/ED2/Proyecto1_ED2/PIC_maestro.X/main_mastre.c: 3
      +                          03:         C1 = 0x4A;
  4355  0251  304A               	movlw	74
  4356  0252  00F6               	movwf	??_LECT1
  4357  0253  0876               	movf	??_LECT1,w
  4358  0254  00C9               	movwf	_C1
  4359                           
  4360                           ;C:/Users/Andy Bonilla/Documents/GitHub/ED2/Proyecto1_ED2/PIC_maestro.X/main_mastre.c: 3
      +                          04:         C2 = 0x75;
  4361  0255  3075               	movlw	117
  4362  0256  00F6               	movwf	??_LECT1
  4363  0257  0876               	movf	??_LECT1,w
  4364  0258  00C8               	movwf	_C2
  4365                           
  4366                           ;C:/Users/Andy Bonilla/Documents/GitHub/ED2/Proyecto1_ED2/PIC_maestro.X/main_mastre.c: 3
      +                          05:         C3 = 0x65;
  4367  0259  3065               	movlw	101
  4368  025A  00F6               	movwf	??_LECT1
  4369  025B  0876               	movf	??_LECT1,w
  4370  025C  00C7               	movwf	_C3
  4371                           
  4372                           ;C:/Users/Andy Bonilla/Documents/GitHub/ED2/Proyecto1_ED2/PIC_maestro.X/main_mastre.c: 3
      +                          06:     }
  4373  025D  2A99               	goto	l127
  4374  025E                     l2136:
  4375  025E  3005               	movlw	5
  4376  025F  067A               	xorwf	_DIA,w
  4377  0260  1D03               	btfss	3,2
  4378  0261  2A63               	goto	u931
  4379  0262  2A64               	goto	u930
  4380  0263                     u931:
  4381  0263  2A71               	goto	l2140
  4382  0264                     u930:
  4383  0264                     l2138:
  4384                           
  4385                           ;C:/Users/Andy Bonilla/Documents/GitHub/ED2/Proyecto1_ED2/PIC_maestro.X/main_mastre.c: 3
      +                          08:         C1 = 0x56;
  4386  0264  3056               	movlw	86
  4387  0265  00F6               	movwf	??_LECT1
  4388  0266  0876               	movf	??_LECT1,w
  4389  0267  00C9               	movwf	_C1
  4390                           
  4391                           ;C:/Users/Andy Bonilla/Documents/GitHub/ED2/Proyecto1_ED2/PIC_maestro.X/main_mastre.c: 3
      +                          09:         C2 = 0x69;
  4392  0268  3069               	movlw	105
  4393  0269  00F6               	movwf	??_LECT1
  4394  026A  0876               	movf	??_LECT1,w
  4395  026B  00C8               	movwf	_C2
  4396                           
  4397                           ;C:/Users/Andy Bonilla/Documents/GitHub/ED2/Proyecto1_ED2/PIC_maestro.X/main_mastre.c: 3
      +                          10:         C3 = 0x65;
  4398  026C  3065               	movlw	101
  4399  026D  00F6               	movwf	??_LECT1
  4400  026E  0876               	movf	??_LECT1,w
  4401  026F  00C7               	movwf	_C3
  4402                           
  4403                           ;C:/Users/Andy Bonilla/Documents/GitHub/ED2/Proyecto1_ED2/PIC_maestro.X/main_mastre.c: 3
      +                          11:     }
  4404  0270  2A99               	goto	l127
  4405  0271                     l2140:
  4406  0271  3006               	movlw	6
  4407  0272  067A               	xorwf	_DIA,w
  4408  0273  1D03               	btfss	3,2
  4409  0274  2A76               	goto	u941
  4410  0275  2A77               	goto	u940
  4411  0276                     u941:
  4412  0276  2A84               	goto	l2144
  4413  0277                     u940:
  4414  0277                     l2142:
  4415                           
  4416                           ;C:/Users/Andy Bonilla/Documents/GitHub/ED2/Proyecto1_ED2/PIC_maestro.X/main_mastre.c: 3
      +                          13:         C1 = 0x53;
  4417  0277  3053               	movlw	83
  4418  0278  00F6               	movwf	??_LECT1
  4419  0279  0876               	movf	??_LECT1,w
  4420  027A  00C9               	movwf	_C1
  4421                           
  4422                           ;C:/Users/Andy Bonilla/Documents/GitHub/ED2/Proyecto1_ED2/PIC_maestro.X/main_mastre.c: 3
      +                          14:         C2 = 0x61;
  4423  027B  3061               	movlw	97
  4424  027C  00F6               	movwf	??_LECT1
  4425  027D  0876               	movf	??_LECT1,w
  4426  027E  00C8               	movwf	_C2
  4427                           
  4428                           ;C:/Users/Andy Bonilla/Documents/GitHub/ED2/Proyecto1_ED2/PIC_maestro.X/main_mastre.c: 3
      +                          15:         C3 = 0x62;
  4429  027F  3062               	movlw	98
  4430  0280  00F6               	movwf	??_LECT1
  4431  0281  0876               	movf	??_LECT1,w
  4432  0282  00C7               	movwf	_C3
  4433                           
  4434                           ;C:/Users/Andy Bonilla/Documents/GitHub/ED2/Proyecto1_ED2/PIC_maestro.X/main_mastre.c: 3
      +                          16:     }
  4435  0283  2A99               	goto	l127
  4436  0284                     l2144:
  4437  0284  3007               	movlw	7
  4438  0285  067A               	xorwf	_DIA,w
  4439  0286  1D03               	btfss	3,2
  4440  0287  2A89               	goto	u951
  4441  0288  2A8A               	goto	u950
  4442  0289                     u951:
  4443  0289  2A99               	goto	l133
  4444  028A                     u950:
  4445  028A                     l2146:
  4446                           
  4447                           ;C:/Users/Andy Bonilla/Documents/GitHub/ED2/Proyecto1_ED2/PIC_maestro.X/main_mastre.c: 3
      +                          18:         C1 = 0x44;
  4448  028A  3044               	movlw	68
  4449  028B  00F6               	movwf	??_LECT1
  4450  028C  0876               	movf	??_LECT1,w
  4451  028D  00C9               	movwf	_C1
  4452                           
  4453                           ;C:/Users/Andy Bonilla/Documents/GitHub/ED2/Proyecto1_ED2/PIC_maestro.X/main_mastre.c: 3
      +                          19:         C2 = 0x6F;
  4454  028E  306F               	movlw	111
  4455  028F  00F6               	movwf	??_LECT1
  4456  0290  0876               	movf	??_LECT1,w
  4457  0291  00C8               	movwf	_C2
  4458                           
  4459                           ;C:/Users/Andy Bonilla/Documents/GitHub/ED2/Proyecto1_ED2/PIC_maestro.X/main_mastre.c: 3
      +                          20:         C3 = 0x6D;
  4460  0292  306D               	movlw	109
  4461  0293  00F6               	movwf	??_LECT1
  4462  0294  0876               	movf	??_LECT1,w
  4463  0295  00C7               	movwf	_C3
  4464  0296                     l2148:
  4465                           
  4466                           ;C:/Users/Andy Bonilla/Documents/GitHub/ED2/Proyecto1_ED2/PIC_maestro.X/main_mastre.c: 3
      +                          21:         CERRADO = 1;
  4467  0296  01C2               	clrf	_CERRADO
  4468  0297  0AC2               	incf	_CERRADO,f
  4469  0298  2A99               	goto	l127
  4470  0299                     l133:
  4471  0299                     l127:
  4472                           
  4473                           ;C:/Users/Andy Bonilla/Documents/GitHub/ED2/Proyecto1_ED2/PIC_maestro.X/main_mastre.c: 3
      +                          23:     if (HORA<10){
  4474  0299  300A               	movlw	10
  4475  029A  024B               	subwf	_HORA,w
  4476  029B  1803               	skipnc
  4477  029C  2A9E               	goto	u961
  4478  029D  2A9F               	goto	u960
  4479  029E                     u961:
  4480  029E  2AC3               	goto	l2162
  4481  029F                     u960:
  4482  029F                     l2150:
  4483                           
  4484                           ;C:/Users/Andy Bonilla/Documents/GitHub/ED2/Proyecto1_ED2/PIC_maestro.X/main_mastre.c: 3
      +                          24:         DH = 0x30;
  4485  029F  3030               	movlw	48
  4486  02A0  00F6               	movwf	??_LECT1
  4487  02A1  0876               	movf	??_LECT1,w
  4488  02A2  00C5               	movwf	_DH
  4489  02A3                     l2152:
  4490                           
  4491                           ;C:/Users/Andy Bonilla/Documents/GitHub/ED2/Proyecto1_ED2/PIC_maestro.X/main_mastre.c: 3
      +                          25:         UH = num_ascii(HORA);
  4492  02A3  084B               	movf	_HORA,w
  4493  02A4  120A  118A  27A3  120A  118A  	fcall	_num_ascii
  4494  02A9  00F6               	movwf	??_LECT1
  4495  02AA  0876               	movf	??_LECT1,w
  4496  02AB  1283               	bcf	3,5	;RP0=0, select bank0
  4497  02AC  1303               	bcf	3,6	;RP1=0, select bank0
  4498  02AD  00C6               	movwf	_UH
  4499  02AE                     l2154:
  4500                           
  4501                           ;C:/Users/Andy Bonilla/Documents/GitHub/ED2/Proyecto1_ED2/PIC_maestro.X/main_mastre.c: 3
      +                          26:         if (HORA<7){
  4502  02AE  3007               	movlw	7
  4503  02AF  024B               	subwf	_HORA,w
  4504  02B0  1803               	skipnc
  4505  02B1  2AB3               	goto	u971
  4506  02B2  2AB4               	goto	u970
  4507  02B3                     u971:
  4508  02B3  2AB9               	goto	l140
  4509  02B4                     u970:
  4510  02B4                     l2156:
  4511                           
  4512                           ;C:/Users/Andy Bonilla/Documents/GitHub/ED2/Proyecto1_ED2/PIC_maestro.X/main_mastre.c: 3
      +                          27:             PORTDbits.RD0 = 1;
  4513  02B4  1408               	bsf	8,0	;volatile
  4514                           
  4515                           ;C:/Users/Andy Bonilla/Documents/GitHub/ED2/Proyecto1_ED2/PIC_maestro.X/main_mastre.c: 3
      +                          28:             PORTDbits.RD1 = 1;
  4516  02B5  1488               	bsf	8,1	;volatile
  4517                           
  4518                           ;C:/Users/Andy Bonilla/Documents/GitHub/ED2/Proyecto1_ED2/PIC_maestro.X/main_mastre.c: 3
      +                          29:             CERRADO = 1;
  4519  02B6  01C2               	clrf	_CERRADO
  4520  02B7  0AC2               	incf	_CERRADO,f
  4521                           
  4522                           ;C:/Users/Andy Bonilla/Documents/GitHub/ED2/Proyecto1_ED2/PIC_maestro.X/main_mastre.c: 3
      +                          30:         }
  4523  02B8  2B16               	goto	l2196
  4524  02B9                     l140:	
  4525                           ;C:/Users/Andy Bonilla/Documents/GitHub/ED2/Proyecto1_ED2/PIC_maestro.X/main_mastre.c: 3
      +                          31:         else{
  4526                           
  4527                           
  4528                           ;C:/Users/Andy Bonilla/Documents/GitHub/ED2/Proyecto1_ED2/PIC_maestro.X/main_mastre.c: 3
      +                          32:             PORTDbits.RD0 = 0;
  4529  02B9  1008               	bcf	8,0	;volatile
  4530                           
  4531                           ;C:/Users/Andy Bonilla/Documents/GitHub/ED2/Proyecto1_ED2/PIC_maestro.X/main_mastre.c: 3
      +                          33:             PORTDbits.RD1 = 0;
  4532  02BA  1088               	bcf	8,1	;volatile
  4533  02BB                     l2158:
  4534                           
  4535                           ;C:/Users/Andy Bonilla/Documents/GitHub/ED2/Proyecto1_ED2/PIC_maestro.X/main_mastre.c: 3
      +                          34:             if (DIA!=7){
  4536  02BB  3007               	movlw	7
  4537  02BC  067A               	xorwf	_DIA,w
  4538  02BD  1903               	btfsc	3,2
  4539  02BE  2AC0               	goto	u981
  4540  02BF  2AC1               	goto	u980
  4541  02C0                     u981:
  4542  02C0  2B16               	goto	l2196
  4543  02C1                     u980:
  4544  02C1                     l2160:
  4545                           
  4546                           ;C:/Users/Andy Bonilla/Documents/GitHub/ED2/Proyecto1_ED2/PIC_maestro.X/main_mastre.c: 3
      +                          35:                 CERRADO = 0;
  4547  02C1  01C2               	clrf	_CERRADO
  4548  02C2  2B16               	goto	l2196
  4549  02C3                     l2162:
  4550  02C3  301A               	movlw	26
  4551  02C4  024B               	subwf	_HORA,w
  4552  02C5  1803               	skipnc
  4553  02C6  2AC8               	goto	u991
  4554  02C7  2AC9               	goto	u990
  4555  02C8                     u991:
  4556  02C8  2AF0               	goto	l2178
  4557  02C9                     u990:
  4558  02C9                     l2164:
  4559                           
  4560                           ;C:/Users/Andy Bonilla/Documents/GitHub/ED2/Proyecto1_ED2/PIC_maestro.X/main_mastre.c: 3
      +                          40:         DH = 0x31;
  4561  02C9  3031               	movlw	49
  4562  02CA  00F6               	movwf	??_LECT1
  4563  02CB  0876               	movf	??_LECT1,w
  4564  02CC  00C5               	movwf	_DH
  4565  02CD                     l2166:
  4566                           
  4567                           ;C:/Users/Andy Bonilla/Documents/GitHub/ED2/Proyecto1_ED2/PIC_maestro.X/main_mastre.c: 3
      +                          41:         con = HORA-16;
  4568  02CD  084B               	movf	_HORA,w
  4569  02CE  3EF0               	addlw	240
  4570  02CF  00F6               	movwf	??_LECT1
  4571  02D0  0876               	movf	??_LECT1,w
  4572  02D1  00F8               	movwf	_con
  4573  02D2                     l2168:
  4574                           
  4575                           ;C:/Users/Andy Bonilla/Documents/GitHub/ED2/Proyecto1_ED2/PIC_maestro.X/main_mastre.c: 3
      +                          42:         UH = num_ascii(con);
  4576  02D2  0878               	movf	_con,w
  4577  02D3  120A  118A  27A3  120A  118A  	fcall	_num_ascii
  4578  02D8  00F6               	movwf	??_LECT1
  4579  02D9  0876               	movf	??_LECT1,w
  4580  02DA  1283               	bcf	3,5	;RP0=0, select bank0
  4581  02DB  1303               	bcf	3,6	;RP1=0, select bank0
  4582  02DC  00C6               	movwf	_UH
  4583  02DD                     l2170:
  4584                           
  4585                           ;C:/Users/Andy Bonilla/Documents/GitHub/ED2/Proyecto1_ED2/PIC_maestro.X/main_mastre.c: 3
      +                          43:         if (DIA!=7){
  4586  02DD  3007               	movlw	7
  4587  02DE  067A               	xorwf	_DIA,w
  4588  02DF  1903               	btfsc	3,2
  4589  02E0  2AE2               	goto	u1001
  4590  02E1  2AE3               	goto	u1000
  4591  02E2                     u1001:
  4592  02E2  2AE4               	goto	l2174
  4593  02E3                     u1000:
  4594  02E3                     l2172:
  4595                           
  4596                           ;C:/Users/Andy Bonilla/Documents/GitHub/ED2/Proyecto1_ED2/PIC_maestro.X/main_mastre.c: 3
      +                          44:             CERRADO = 0;
  4597  02E3  01C2               	clrf	_CERRADO
  4598  02E4                     l2174:
  4599                           
  4600                           ;C:/Users/Andy Bonilla/Documents/GitHub/ED2/Proyecto1_ED2/PIC_maestro.X/main_mastre.c: 3
      +                          46:         if (con>7){
  4601  02E4  3008               	movlw	8
  4602  02E5  0278               	subwf	_con,w
  4603  02E6  1C03               	skipc
  4604  02E7  2AE9               	goto	u1011
  4605  02E8  2AEA               	goto	u1010
  4606  02E9                     u1011:
  4607  02E9  2AED               	goto	l146
  4608  02EA                     u1010:
  4609  02EA                     l2176:
  4610                           
  4611                           ;C:/Users/Andy Bonilla/Documents/GitHub/ED2/Proyecto1_ED2/PIC_maestro.X/main_mastre.c: 3
      +                          47:             PORTDbits.RD0 = 1;
  4612  02EA  1408               	bsf	8,0	;volatile
  4613                           
  4614                           ;C:/Users/Andy Bonilla/Documents/GitHub/ED2/Proyecto1_ED2/PIC_maestro.X/main_mastre.c: 3
      +                          48:             PORTDbits.RD1 = 1;
  4615  02EB  1488               	bsf	8,1	;volatile
  4616                           
  4617                           ;C:/Users/Andy Bonilla/Documents/GitHub/ED2/Proyecto1_ED2/PIC_maestro.X/main_mastre.c: 3
      +                          49:         }
  4618  02EC  2B16               	goto	l2196
  4619  02ED                     l146:	
  4620                           ;C:/Users/Andy Bonilla/Documents/GitHub/ED2/Proyecto1_ED2/PIC_maestro.X/main_mastre.c: 3
      +                          50:         else{
  4621                           
  4622                           
  4623                           ;C:/Users/Andy Bonilla/Documents/GitHub/ED2/Proyecto1_ED2/PIC_maestro.X/main_mastre.c: 3
      +                          51:             PORTDbits.RD0 = 0;
  4624  02ED  1008               	bcf	8,0	;volatile
  4625                           
  4626                           ;C:/Users/Andy Bonilla/Documents/GitHub/ED2/Proyecto1_ED2/PIC_maestro.X/main_mastre.c: 3
      +                          52:             PORTDbits.RD1 = 0;
  4627  02EE  1088               	bcf	8,1	;volatile
  4628  02EF  2B16               	goto	l2196
  4629  02F0                     l2178:
  4630                           
  4631                           ;C:/Users/Andy Bonilla/Documents/GitHub/ED2/Proyecto1_ED2/PIC_maestro.X/main_mastre.c: 3
      +                          56:         DH = 0x32;
  4632  02F0  3032               	movlw	50
  4633  02F1  00F6               	movwf	??_LECT1
  4634  02F2  0876               	movf	??_LECT1,w
  4635  02F3  00C5               	movwf	_DH
  4636  02F4                     l2180:
  4637                           
  4638                           ;C:/Users/Andy Bonilla/Documents/GitHub/ED2/Proyecto1_ED2/PIC_maestro.X/main_mastre.c: 3
      +                          57:         con = HORA-32;
  4639  02F4  084B               	movf	_HORA,w
  4640  02F5  3EE0               	addlw	224
  4641  02F6  00F6               	movwf	??_LECT1
  4642  02F7  0876               	movf	??_LECT1,w
  4643  02F8  00F8               	movwf	_con
  4644  02F9                     l2182:
  4645                           
  4646                           ;C:/Users/Andy Bonilla/Documents/GitHub/ED2/Proyecto1_ED2/PIC_maestro.X/main_mastre.c: 3
      +                          58:         UH = num_ascii(con);
  4647  02F9  0878               	movf	_con,w
  4648  02FA  120A  118A  27A3  120A  118A  	fcall	_num_ascii
  4649  02FF  00F6               	movwf	??_LECT1
  4650  0300  0876               	movf	??_LECT1,w
  4651  0301  1283               	bcf	3,5	;RP0=0, select bank0
  4652  0302  1303               	bcf	3,6	;RP1=0, select bank0
  4653  0303  00C6               	movwf	_UH
  4654  0304                     l2184:
  4655                           
  4656                           ;C:/Users/Andy Bonilla/Documents/GitHub/ED2/Proyecto1_ED2/PIC_maestro.X/main_mastre.c: 3
      +                          59:         PORTDbits.RD0 = 1;
  4657  0304  1408               	bsf	8,0	;volatile
  4658  0305                     l2186:
  4659                           
  4660                           ;C:/Users/Andy Bonilla/Documents/GitHub/ED2/Proyecto1_ED2/PIC_maestro.X/main_mastre.c: 3
      +                          60:         PORTDbits.RD1 = 1;
  4661  0305  1488               	bsf	8,1	;volatile
  4662  0306                     l2188:
  4663                           
  4664                           ;C:/Users/Andy Bonilla/Documents/GitHub/ED2/Proyecto1_ED2/PIC_maestro.X/main_mastre.c: 3
      +                          61:         if (con>1){
  4665  0306  3002               	movlw	2
  4666  0307  0278               	subwf	_con,w
  4667  0308  1C03               	skipc
  4668  0309  2B0B               	goto	u1021
  4669  030A  2B0C               	goto	u1020
  4670  030B                     u1021:
  4671  030B  2B0F               	goto	l2192
  4672  030C                     u1020:
  4673  030C                     l2190:
  4674                           
  4675                           ;C:/Users/Andy Bonilla/Documents/GitHub/ED2/Proyecto1_ED2/PIC_maestro.X/main_mastre.c: 3
      +                          62:             CERRADO = 1;
  4676  030C  01C2               	clrf	_CERRADO
  4677  030D  0AC2               	incf	_CERRADO,f
  4678                           
  4679                           ;C:/Users/Andy Bonilla/Documents/GitHub/ED2/Proyecto1_ED2/PIC_maestro.X/main_mastre.c: 3
      +                          63:         }
  4680  030E  2B16               	goto	l2196
  4681  030F                     l2192:
  4682                           
  4683                           ;C:/Users/Andy Bonilla/Documents/GitHub/ED2/Proyecto1_ED2/PIC_maestro.X/main_mastre.c: 3
      +                          65:             if (DIA!=7){
  4684  030F  3007               	movlw	7
  4685  0310  067A               	xorwf	_DIA,w
  4686  0311  1903               	btfsc	3,2
  4687  0312  2B14               	goto	u1031
  4688  0313  2B15               	goto	u1030
  4689  0314                     u1031:
  4690  0314  2B16               	goto	l2196
  4691  0315                     u1030:
  4692  0315  2AC1               	goto	l2160
  4693  0316                     l2196:
  4694                           
  4695                           ;C:/Users/Andy Bonilla/Documents/GitHub/ED2/Proyecto1_ED2/PIC_maestro.X/main_mastre.c: 3
      +                          70:     if (MIN<10){
  4696  0316  300A               	movlw	10
  4697  0317  0279               	subwf	_MIN,w
  4698  0318  1803               	skipnc
  4699  0319  2B1B               	goto	u1041
  4700  031A  2B1C               	goto	u1040
  4701  031B                     u1041:
  4702  031B  2B2C               	goto	l2202
  4703  031C                     u1040:
  4704  031C                     l2198:
  4705                           
  4706                           ;C:/Users/Andy Bonilla/Documents/GitHub/ED2/Proyecto1_ED2/PIC_maestro.X/main_mastre.c: 3
      +                          71:         DM = 0x30;
  4707  031C  3030               	movlw	48
  4708  031D  00F6               	movwf	??_LECT1
  4709  031E  0876               	movf	??_LECT1,w
  4710  031F  00C3               	movwf	_DM
  4711  0320                     l2200:
  4712                           
  4713                           ;C:/Users/Andy Bonilla/Documents/GitHub/ED2/Proyecto1_ED2/PIC_maestro.X/main_mastre.c: 3
      +                          72:         UM = num_ascii(MIN);
  4714  0320  0879               	movf	_MIN,w
  4715  0321  120A  118A  27A3  120A  118A  	fcall	_num_ascii
  4716  0326  00F6               	movwf	??_LECT1
  4717  0327  0876               	movf	??_LECT1,w
  4718  0328  1283               	bcf	3,5	;RP0=0, select bank0
  4719  0329  1303               	bcf	3,6	;RP1=0, select bank0
  4720  032A  00C4               	movwf	_UM
  4721                           
  4722                           ;C:/Users/Andy Bonilla/Documents/GitHub/ED2/Proyecto1_ED2/PIC_maestro.X/main_mastre.c: 3
      +                          73:     }
  4723  032B  2BB3               	goto	l163
  4724  032C                     l2202:
  4725  032C  301A               	movlw	26
  4726  032D  0279               	subwf	_MIN,w
  4727  032E  1803               	skipnc
  4728  032F  2B31               	goto	u1051
  4729  0330  2B32               	goto	u1050
  4730  0331                     u1051:
  4731  0331  2B47               	goto	l2210
  4732  0332                     u1050:
  4733  0332                     l2204:
  4734                           
  4735                           ;C:/Users/Andy Bonilla/Documents/GitHub/ED2/Proyecto1_ED2/PIC_maestro.X/main_mastre.c: 3
      +                          75:         DM = 0x31;
  4736  0332  3031               	movlw	49
  4737  0333  00F6               	movwf	??_LECT1
  4738  0334  0876               	movf	??_LECT1,w
  4739  0335  00C3               	movwf	_DM
  4740  0336                     l2206:
  4741                           
  4742                           ;C:/Users/Andy Bonilla/Documents/GitHub/ED2/Proyecto1_ED2/PIC_maestro.X/main_mastre.c: 3
      +                          76:         con = MIN-16;
  4743  0336  0879               	movf	_MIN,w
  4744  0337  3EF0               	addlw	240
  4745  0338  00F6               	movwf	??_LECT1
  4746  0339  0876               	movf	??_LECT1,w
  4747  033A  00F8               	movwf	_con
  4748  033B                     l2208:
  4749                           
  4750                           ;C:/Users/Andy Bonilla/Documents/GitHub/ED2/Proyecto1_ED2/PIC_maestro.X/main_mastre.c: 3
      +                          77:         UM = num_ascii(con);
  4751  033B  0878               	movf	_con,w
  4752  033C  120A  118A  27A3  120A  118A  	fcall	_num_ascii
  4753  0341  00F6               	movwf	??_LECT1
  4754  0342  0876               	movf	??_LECT1,w
  4755  0343  1283               	bcf	3,5	;RP0=0, select bank0
  4756  0344  1303               	bcf	3,6	;RP1=0, select bank0
  4757  0345  00C4               	movwf	_UM
  4758                           
  4759                           ;C:/Users/Andy Bonilla/Documents/GitHub/ED2/Proyecto1_ED2/PIC_maestro.X/main_mastre.c: 3
      +                          78:     }
  4760  0346  2BB3               	goto	l163
  4761  0347                     l2210:
  4762  0347  302A               	movlw	42
  4763  0348  0279               	subwf	_MIN,w
  4764  0349  1803               	skipnc
  4765  034A  2B4C               	goto	u1061
  4766  034B  2B4D               	goto	u1060
  4767  034C                     u1061:
  4768  034C  2B62               	goto	l2218
  4769  034D                     u1060:
  4770  034D                     l2212:
  4771                           
  4772                           ;C:/Users/Andy Bonilla/Documents/GitHub/ED2/Proyecto1_ED2/PIC_maestro.X/main_mastre.c: 3
      +                          80:         DM = 0x32;
  4773  034D  3032               	movlw	50
  4774  034E  00F6               	movwf	??_LECT1
  4775  034F  0876               	movf	??_LECT1,w
  4776  0350  00C3               	movwf	_DM
  4777  0351                     l2214:
  4778                           
  4779                           ;C:/Users/Andy Bonilla/Documents/GitHub/ED2/Proyecto1_ED2/PIC_maestro.X/main_mastre.c: 3
      +                          81:         con = MIN-32;
  4780  0351  0879               	movf	_MIN,w
  4781  0352  3EE0               	addlw	224
  4782  0353  00F6               	movwf	??_LECT1
  4783  0354  0876               	movf	??_LECT1,w
  4784  0355  00F8               	movwf	_con
  4785  0356                     l2216:
  4786                           
  4787                           ;C:/Users/Andy Bonilla/Documents/GitHub/ED2/Proyecto1_ED2/PIC_maestro.X/main_mastre.c: 3
      +                          82:         UM = num_ascii(con);
  4788  0356  0878               	movf	_con,w
  4789  0357  120A  118A  27A3  120A  118A  	fcall	_num_ascii
  4790  035C  00F6               	movwf	??_LECT1
  4791  035D  0876               	movf	??_LECT1,w
  4792  035E  1283               	bcf	3,5	;RP0=0, select bank0
  4793  035F  1303               	bcf	3,6	;RP1=0, select bank0
  4794  0360  00C4               	movwf	_UM
  4795                           
  4796                           ;C:/Users/Andy Bonilla/Documents/GitHub/ED2/Proyecto1_ED2/PIC_maestro.X/main_mastre.c: 3
      +                          83:     }
  4797  0361  2BB3               	goto	l163
  4798  0362                     l2218:
  4799  0362  303A               	movlw	58
  4800  0363  0279               	subwf	_MIN,w
  4801  0364  1803               	skipnc
  4802  0365  2B67               	goto	u1071
  4803  0366  2B68               	goto	u1070
  4804  0367                     u1071:
  4805  0367  2B7D               	goto	l2226
  4806  0368                     u1070:
  4807  0368                     l2220:
  4808                           
  4809                           ;C:/Users/Andy Bonilla/Documents/GitHub/ED2/Proyecto1_ED2/PIC_maestro.X/main_mastre.c: 3
      +                          85:         DM = 0x33;
  4810  0368  3033               	movlw	51
  4811  0369  00F6               	movwf	??_LECT1
  4812  036A  0876               	movf	??_LECT1,w
  4813  036B  00C3               	movwf	_DM
  4814  036C                     l2222:
  4815                           
  4816                           ;C:/Users/Andy Bonilla/Documents/GitHub/ED2/Proyecto1_ED2/PIC_maestro.X/main_mastre.c: 3
      +                          86:         con = MIN-32-16;
  4817  036C  0879               	movf	_MIN,w
  4818  036D  3ED0               	addlw	208
  4819  036E  00F6               	movwf	??_LECT1
  4820  036F  0876               	movf	??_LECT1,w
  4821  0370  00F8               	movwf	_con
  4822  0371                     l2224:
  4823                           
  4824                           ;C:/Users/Andy Bonilla/Documents/GitHub/ED2/Proyecto1_ED2/PIC_maestro.X/main_mastre.c: 3
      +                          87:         UM = num_ascii(con);
  4825  0371  0878               	movf	_con,w
  4826  0372  120A  118A  27A3  120A  118A  	fcall	_num_ascii
  4827  0377  00F6               	movwf	??_LECT1
  4828  0378  0876               	movf	??_LECT1,w
  4829  0379  1283               	bcf	3,5	;RP0=0, select bank0
  4830  037A  1303               	bcf	3,6	;RP1=0, select bank0
  4831  037B  00C4               	movwf	_UM
  4832                           
  4833                           ;C:/Users/Andy Bonilla/Documents/GitHub/ED2/Proyecto1_ED2/PIC_maestro.X/main_mastre.c: 3
      +                          88:     }
  4834  037C  2BB3               	goto	l163
  4835  037D                     l2226:
  4836  037D  304A               	movlw	74
  4837  037E  0279               	subwf	_MIN,w
  4838  037F  1803               	skipnc
  4839  0380  2B82               	goto	u1081
  4840  0381  2B83               	goto	u1080
  4841  0382                     u1081:
  4842  0382  2B98               	goto	l2234
  4843  0383                     u1080:
  4844  0383                     l2228:
  4845                           
  4846                           ;C:/Users/Andy Bonilla/Documents/GitHub/ED2/Proyecto1_ED2/PIC_maestro.X/main_mastre.c: 3
      +                          90:         DM = 0x34;
  4847  0383  3034               	movlw	52
  4848  0384  00F6               	movwf	??_LECT1
  4849  0385  0876               	movf	??_LECT1,w
  4850  0386  00C3               	movwf	_DM
  4851  0387                     l2230:
  4852                           
  4853                           ;C:/Users/Andy Bonilla/Documents/GitHub/ED2/Proyecto1_ED2/PIC_maestro.X/main_mastre.c: 3
      +                          91:         con = MIN-64;
  4854  0387  0879               	movf	_MIN,w
  4855  0388  3EC0               	addlw	192
  4856  0389  00F6               	movwf	??_LECT1
  4857  038A  0876               	movf	??_LECT1,w
  4858  038B  00F8               	movwf	_con
  4859  038C                     l2232:
  4860                           
  4861                           ;C:/Users/Andy Bonilla/Documents/GitHub/ED2/Proyecto1_ED2/PIC_maestro.X/main_mastre.c: 3
      +                          92:         UM = num_ascii(con);
  4862  038C  0878               	movf	_con,w
  4863  038D  120A  118A  27A3  120A  118A  	fcall	_num_ascii
  4864  0392  00F6               	movwf	??_LECT1
  4865  0393  0876               	movf	??_LECT1,w
  4866  0394  1283               	bcf	3,5	;RP0=0, select bank0
  4867  0395  1303               	bcf	3,6	;RP1=0, select bank0
  4868  0396  00C4               	movwf	_UM
  4869                           
  4870                           ;C:/Users/Andy Bonilla/Documents/GitHub/ED2/Proyecto1_ED2/PIC_maestro.X/main_mastre.c: 3
      +                          93:     }
  4871  0397  2BB3               	goto	l163
  4872  0398                     l2234:
  4873  0398  305A               	movlw	90
  4874  0399  0279               	subwf	_MIN,w
  4875  039A  1803               	skipnc
  4876  039B  2B9D               	goto	u1091
  4877  039C  2B9E               	goto	u1090
  4878  039D                     u1091:
  4879  039D  2BB3               	goto	l157
  4880  039E                     u1090:
  4881  039E                     l2236:
  4882                           
  4883                           ;C:/Users/Andy Bonilla/Documents/GitHub/ED2/Proyecto1_ED2/PIC_maestro.X/main_mastre.c: 3
      +                          95:         DM = 0x35;
  4884  039E  3035               	movlw	53
  4885  039F  00F6               	movwf	??_LECT1
  4886  03A0  0876               	movf	??_LECT1,w
  4887  03A1  00C3               	movwf	_DM
  4888  03A2                     l2238:
  4889                           
  4890                           ;C:/Users/Andy Bonilla/Documents/GitHub/ED2/Proyecto1_ED2/PIC_maestro.X/main_mastre.c: 3
      +                          96:         con = MIN-64-16;
  4891  03A2  0879               	movf	_MIN,w
  4892  03A3  3EB0               	addlw	176
  4893  03A4  00F6               	movwf	??_LECT1
  4894  03A5  0876               	movf	??_LECT1,w
  4895  03A6  00F8               	movwf	_con
  4896  03A7                     l2240:
  4897                           
  4898                           ;C:/Users/Andy Bonilla/Documents/GitHub/ED2/Proyecto1_ED2/PIC_maestro.X/main_mastre.c: 3
      +                          97:         UM = num_ascii(con);
  4899  03A7  0878               	movf	_con,w
  4900  03A8  120A  118A  27A3  120A  118A  	fcall	_num_ascii
  4901  03AD  00F6               	movwf	??_LECT1
  4902  03AE  0876               	movf	??_LECT1,w
  4903  03AF  1283               	bcf	3,5	;RP0=0, select bank0
  4904  03B0  1303               	bcf	3,6	;RP1=0, select bank0
  4905  03B1  00C4               	movwf	_UM
  4906  03B2  2BB3               	goto	l163
  4907  03B3                     l157:
  4908  03B3                     l163:
  4909  03B3  0008               	return
  4910  03B4                     __end_of_LECT1:
  4911                           
  4912                           	psect	text23
  4913  07A3                     __ptext23:	
  4914 ;; *************** function _num_ascii *****************
  4915 ;; Defined at:
  4916 ;;		line 3 in file "C:/Users/Andy Bonilla/Documents/GitHub/ED2/Proyecto1_ED2/PIC_maestro.X/ASCII.c"
  4917 ;; Parameters:    Size  Location     Type
  4918 ;;  num             1    wreg     unsigned char 
  4919 ;; Auto vars:     Size  Location     Type
  4920 ;;  num             1    5[COMMON] unsigned char 
  4921 ;; Return value:  Size  Location     Type
  4922 ;;                  1    wreg      unsigned char 
  4923 ;; Registers used:
  4924 ;;		wreg, fsr0l, fsr0h, status,2, status,0
  4925 ;; Tracked objects:
  4926 ;;		On entry : 0/0
  4927 ;;		On exit  : 0/0
  4928 ;;		Unchanged: 0/0
  4929 ;; Data sizes:     COMMON   BANK0   BANK1   BANK3   BANK2
  4930 ;;      Params:         0       0       0       0       0
  4931 ;;      Locals:         1       0       0       0       0
  4932 ;;      Temps:          2       0       0       0       0
  4933 ;;      Totals:         3       0       0       0       0
  4934 ;;Total ram usage:        3 bytes
  4935 ;; Hardware stack levels used: 1
  4936 ;; Hardware stack levels required when called: 1
  4937 ;; This function calls:
  4938 ;;		Nothing
  4939 ;; This function is called by:
  4940 ;;		_LECT1
  4941 ;; This function uses a non-reentrant model
  4942 ;;
  4943                           
  4944                           
  4945                           ;psect for function _num_ascii
  4946  07A3                     _num_ascii:
  4947                           
  4948                           ;incstack = 0
  4949                           ; Regs used in _num_ascii: [wreg-fsr0h+status,2+status,0]
  4950                           ;num_ascii@num stored from wreg
  4951  07A3  00F5               	movwf	num_ascii@num
  4952  07A4                     l1794:
  4953                           
  4954                           ;C:/Users/Andy Bonilla/Documents/GitHub/ED2/Proyecto1_ED2/PIC_maestro.X/ASCII.c: 3: char
      +                           num_ascii(uint8_t num);C:/Users/Andy Bonilla/Documents/GitHub/ED2/Proyecto1_ED2/PIC_mae
      +                          stro.X/ASCII.c: 4: {;C:/Users/Andy Bonilla/Documents/GitHub/ED2/Proyecto1_ED2/PIC_maestr
      +                          o.X/ASCII.c: 5:  switch(num)
  4955  07A4  2FB9               	goto	l1864
  4956  07A5                     l1796:
  4957                           
  4958                           ;C:/Users/Andy Bonilla/Documents/GitHub/ED2/Proyecto1_ED2/PIC_maestro.X/ASCII.c: 8:   re
      +                          turn 0x30;
  4959  07A5  3030               	movlw	48
  4960  07A6  2FE1               	goto	l218
  4961  07A7                     l1808:
  4962                           
  4963                           ;C:/Users/Andy Bonilla/Documents/GitHub/ED2/Proyecto1_ED2/PIC_maestro.X/ASCII.c: 16:   r
      +                          eturn 0x31;
  4964  07A7  3031               	movlw	49
  4965  07A8  2FE1               	goto	l218
  4966  07A9                     l1814:
  4967                           
  4968                           ;C:/Users/Andy Bonilla/Documents/GitHub/ED2/Proyecto1_ED2/PIC_maestro.X/ASCII.c: 20:   r
      +                          eturn 0x32;
  4969  07A9  3032               	movlw	50
  4970  07AA  2FE1               	goto	l218
  4971  07AB                     l1820:
  4972                           
  4973                           ;C:/Users/Andy Bonilla/Documents/GitHub/ED2/Proyecto1_ED2/PIC_maestro.X/ASCII.c: 24:   r
      +                          eturn 0x33;
  4974  07AB  3033               	movlw	51
  4975  07AC  2FE1               	goto	l218
  4976  07AD                     l1826:
  4977                           
  4978                           ;C:/Users/Andy Bonilla/Documents/GitHub/ED2/Proyecto1_ED2/PIC_maestro.X/ASCII.c: 28:   r
      +                          eturn 0x34;
  4979  07AD  3034               	movlw	52
  4980  07AE  2FE1               	goto	l218
  4981  07AF                     l1832:
  4982                           
  4983                           ;C:/Users/Andy Bonilla/Documents/GitHub/ED2/Proyecto1_ED2/PIC_maestro.X/ASCII.c: 32:   r
      +                          eturn 0x35;
  4984  07AF  3035               	movlw	53
  4985  07B0  2FE1               	goto	l218
  4986  07B1                     l1838:
  4987                           
  4988                           ;C:/Users/Andy Bonilla/Documents/GitHub/ED2/Proyecto1_ED2/PIC_maestro.X/ASCII.c: 36:   r
      +                          eturn 0x36;
  4989  07B1  3036               	movlw	54
  4990  07B2  2FE1               	goto	l218
  4991  07B3                     l1844:
  4992                           
  4993                           ;C:/Users/Andy Bonilla/Documents/GitHub/ED2/Proyecto1_ED2/PIC_maestro.X/ASCII.c: 40:   r
      +                          eturn 0x37;
  4994  07B3  3037               	movlw	55
  4995  07B4  2FE1               	goto	l218
  4996  07B5                     l1850:
  4997                           
  4998                           ;C:/Users/Andy Bonilla/Documents/GitHub/ED2/Proyecto1_ED2/PIC_maestro.X/ASCII.c: 44:   r
      +                          eturn 0x38;
  4999  07B5  3038               	movlw	56
  5000  07B6  2FE1               	goto	l218
  5001  07B7                     l1856:
  5002                           
  5003                           ;C:/Users/Andy Bonilla/Documents/GitHub/ED2/Proyecto1_ED2/PIC_maestro.X/ASCII.c: 48:   r
      +                          eturn 0x39;
  5004  07B7  3039               	movlw	57
  5005  07B8  2FE1               	goto	l218
  5006  07B9                     l1864:
  5007  07B9  0875               	movf	num_ascii@num,w
  5008  07BA  00F3               	movwf	??_num_ascii
  5009  07BB  01F4               	clrf	??_num_ascii+1
  5010                           
  5011                           ; Switch on 2 bytes has been partitioned into a top level switch of size 1, and 1 sub-sw
      +                          itches
  5012                           ; Switch size 1, requested type "simple"
  5013                           ; Number of cases is 1, Range of values is 0 to 0
  5014                           ; switch strategies available:
  5015                           ; Name         Instructions Cycles
  5016                           ; simple_byte            4     3 (average)
  5017                           ; direct_byte           11     8 (fixed)
  5018                           ; jumptable            260     6 (fixed)
  5019                           ;	Chosen strategy is simple_byte
  5020  07BC  0874               	movf	??_num_ascii+1,w
  5021  07BD  3A00               	xorlw	0	; case 0
  5022  07BE  1903               	skipnz
  5023  07BF  2FC1               	goto	l2934
  5024  07C0  2FA5               	goto	l1796
  5025  07C1                     l2934:
  5026                           
  5027                           ; Switch size 1, requested type "simple"
  5028                           ; Number of cases is 10, Range of values is 0 to 9
  5029                           ; switch strategies available:
  5030                           ; Name         Instructions Cycles
  5031                           ; simple_byte           31    16 (average)
  5032                           ; direct_byte           38     8 (fixed)
  5033                           ; jumptable            260     6 (fixed)
  5034                           ;	Chosen strategy is simple_byte
  5035  07C1  0873               	movf	??_num_ascii,w
  5036  07C2  3A00               	xorlw	0	; case 0
  5037  07C3  1903               	skipnz
  5038  07C4  2FA5               	goto	l1796
  5039  07C5  3A01               	xorlw	1	; case 1
  5040  07C6  1903               	skipnz
  5041  07C7  2FA7               	goto	l1808
  5042  07C8  3A03               	xorlw	3	; case 2
  5043  07C9  1903               	skipnz
  5044  07CA  2FA9               	goto	l1814
  5045  07CB  3A01               	xorlw	1	; case 3
  5046  07CC  1903               	skipnz
  5047  07CD  2FAB               	goto	l1820
  5048  07CE  3A07               	xorlw	7	; case 4
  5049  07CF  1903               	skipnz
  5050  07D0  2FAD               	goto	l1826
  5051  07D1  3A01               	xorlw	1	; case 5
  5052  07D2  1903               	skipnz
  5053  07D3  2FAF               	goto	l1832
  5054  07D4  3A03               	xorlw	3	; case 6
  5055  07D5  1903               	skipnz
  5056  07D6  2FB1               	goto	l1838
  5057  07D7  3A01               	xorlw	1	; case 7
  5058  07D8  1903               	skipnz
  5059  07D9  2FB3               	goto	l1844
  5060  07DA  3A0F               	xorlw	15	; case 8
  5061  07DB  1903               	skipnz
  5062  07DC  2FB5               	goto	l1850
  5063  07DD  3A01               	xorlw	1	; case 9
  5064  07DE  1903               	skipnz
  5065  07DF  2FB7               	goto	l1856
  5066  07E0  2FA5               	goto	l1796
  5067  07E1                     l218:
  5068  07E1  0008               	return
  5069  07E2                     __end_of_num_ascii:
  5070                           
  5071                           	psect	text24
  5072  0EBE                     __ptext24:	
  5073 ;; *************** function _isr *****************
  5074 ;; Defined at:
  5075 ;;		line 75 in file "C:/Users/Andy Bonilla/Documents/GitHub/ED2/Proyecto1_ED2/PIC_maestro.X/main_mastre.c"
  5076 ;; Parameters:    Size  Location     Type
  5077 ;;		None
  5078 ;; Auto vars:     Size  Location     Type
  5079 ;;		None
  5080 ;; Return value:  Size  Location     Type
  5081 ;;                  1    wreg      void 
  5082 ;; Registers used:
  5083 ;;		wreg, status,2, status,0
  5084 ;; Tracked objects:
  5085 ;;		On entry : 0/0
  5086 ;;		On exit  : 0/0
  5087 ;;		Unchanged: 0/0
  5088 ;; Data sizes:     COMMON   BANK0   BANK1   BANK3   BANK2
  5089 ;;      Params:         0       0       0       0       0
  5090 ;;      Locals:         0       0       0       0       0
  5091 ;;      Temps:          3       0       0       0       0
  5092 ;;      Totals:         3       0       0       0       0
  5093 ;;Total ram usage:        3 bytes
  5094 ;; Hardware stack levels used: 1
  5095 ;; This function calls:
  5096 ;;		Nothing
  5097 ;; This function is called by:
  5098 ;;		Interrupt level 1
  5099 ;; This function uses a non-reentrant model
  5100 ;;
  5101                           
  5102                           
  5103                           ;psect for function _isr
  5104  0EBE                     _isr:
  5105  0EBE                     i1l2264:
  5106                           
  5107                           ;C:/Users/Andy Bonilla/Documents/GitHub/ED2/Proyecto1_ED2/PIC_maestro.X/main_mastre.c: 7
      +                          8:     if (PIR1bits.TXIF)
  5108  0EBE  1283               	bcf	3,5	;RP0=0, select bank0
  5109  0EBF  1303               	bcf	3,6	;RP1=0, select bank0
  5110  0EC0  1E0C               	btfss	12,4	;volatile
  5111  0EC1  2EC3               	goto	u110_21
  5112  0EC2  2EC4               	goto	u110_20
  5113  0EC3                     u110_21:
  5114  0EC3  2EC9               	goto	i1l106
  5115  0EC4                     u110_20:
  5116  0EC4                     i1l2266:
  5117                           
  5118                           ;C:/Users/Andy Bonilla/Documents/GitHub/ED2/Proyecto1_ED2/PIC_maestro.X/main_mastre.c: 7
      +                          9:     {;C:/Users/Andy Bonilla/Documents/GitHub/ED2/Proyecto1_ED2/PIC_maestro.X/main_mas
      +                          tre.c: 80:         cuenta_uart++;
  5119  0EC4  3001               	movlw	1
  5120  0EC5  00F0               	movwf	??_isr
  5121  0EC6  0870               	movf	??_isr,w
  5122  0EC7  07C0               	addwf	_cuenta_uart,f
  5123  0EC8                     i1l2268:
  5124                           
  5125                           ;C:/Users/Andy Bonilla/Documents/GitHub/ED2/Proyecto1_ED2/PIC_maestro.X/main_mastre.c: 8
      +                          2:         PIR1bits.TXIF=0;
  5126  0EC8  120C               	bcf	12,4	;volatile
  5127  0EC9                     i1l106:
  5128  0EC9  0872               	movf	??_isr+2,w
  5129  0ECA  008A               	movwf	10
  5130  0ECB  0E71               	swapf	??_isr+1,w
  5131  0ECC  0083               	movwf	3
  5132  0ECD  0EFE               	swapf	btemp,f
  5133  0ECE  0E7E               	swapf	btemp,w
  5134  0ECF  0009               	retfie
  5135  0ED0                     __end_of_isr:
  5136  007E                     btemp	set	126	;btemp
  5137  007E                     wtemp0	set	126
  5138                           
  5139                           	psect	intentry
  5140  0004                     __pintentry:	
  5141                           ;incstack = 0
  5142                           ; Regs used in _isr: [wreg+status,2+status,0]
  5143                           
  5144  0004                     interrupt_function:
  5145  007E                     saved_w	set	btemp
  5146  0004  00FE               	movwf	btemp
  5147  0005  0E03               	swapf	3,w
  5148  0006  00F1               	movwf	??_isr+1
  5149  0007  080A               	movf	10,w
  5150  0008  00F2               	movwf	??_isr+2
  5151  0009  120A  158A  2EBE   	ljmp	_isr
  5152                           
  5153                           	psect	config
  5154                           
  5155                           ;Config register CONFIG1 @ 0x2007
  5156                           ;	Oscillator Selection bits
  5157                           ;	FOSC = INTRC_NOCLKOUT, INTOSCIO oscillator: I/O function on RA6/OSC2/CLKOUT pin, I/O f
      +                          unction on RA7/OSC1/CLKIN
  5158                           ;	Watchdog Timer Enable bit
  5159                           ;	WDTE = OFF, WDT disabled and can be enabled by SWDTEN bit of the WDTCON register
  5160                           ;	Power-up Timer Enable bit
  5161                           ;	PWRTE = OFF, PWRT disabled
  5162                           ;	RE3/MCLR pin function select bit
  5163                           ;	MCLRE = OFF, RE3/MCLR pin function is digital input, MCLR internally tied to VDD
  5164                           ;	Code Protection bit
  5165                           ;	CP = OFF, Program memory code protection is disabled
  5166                           ;	Data Code Protection bit
  5167                           ;	CPD = OFF, Data memory code protection is disabled
  5168                           ;	Brown Out Reset Selection bits
  5169                           ;	BOREN = OFF, BOR disabled
  5170                           ;	Internal External Switchover bit
  5171                           ;	IESO = OFF, Internal/External Switchover mode is disabled
  5172                           ;	Fail-Safe Clock Monitor Enabled bit
  5173                           ;	FCMEN = OFF, Fail-Safe Clock Monitor is disabled
  5174                           ;	Low Voltage Programming Enable bit
  5175                           ;	LVP = OFF, RB3 pin has digital I/O, HV on MCLR must be used for programming
  5176                           ;	In-Circuit Debugger Mode bit
  5177                           ;	DEBUG = 0x1, unprogrammed default
  5178  2007                     	org	8199
  5179  2007  20D4               	dw	8404
  5180                           
  5181                           ;Config register CONFIG2 @ 0x2008
  5182                           ;	Brown-out Reset Selection bit
  5183                           ;	BOR4V = BOR40V, Brown-out Reset set to 4.0V
  5184                           ;	Flash Program Memory Self Write Enable bits
  5185                           ;	WRT = OFF, Write protection off
  5186  2008                     	org	8200
  5187  2008  3FFF               	dw	16383

Data Sizes:
    Strings     0
    Constant    0
    Data        0
    BSS         18
    Persistent  0
    Stack       0

Auto Spaces:
    Space          Size  Autos    Used
    COMMON           14      8      11
    BANK0            80     32      47
    BANK1            80      0       0
    BANK3            96      0       0
    BANK2            96      0       0

Pointer List with Targets:

    Lcd_Write_String@a	PTR unsigned char  size(1) Largest target is 16
		 -> conver1@temporal(BANK0[16]), conver@temporal(BANK0[16]), 

    sp__conver	PTR const unsigned char  size(1) Largest target is 16
		 -> conver@temporal(BANK0[16]), 

    sp__conver1	PTR const unsigned char  size(1) Largest target is 16
		 -> conver1@temporal(BANK0[16]), 


Critical Paths under _main in COMMON

    _main->_Lcd_Set_Cursor
    _setup->_I2C_Master_Init
    _I2C_Master_Init->___lldiv
    _mandar_datos->___awdiv
    _conver1->___awdiv
    ___awmod->___awdiv
    _Lcd_Write_String->_Lcd_Write_Char
    _Lcd_Write_Char->_Lcd_Port
    _Lcd_Set_Cursor->_Lcd_Cmd
    _Lcd_Init->_Lcd_Cmd
    _Lcd_Cmd->_Lcd_Port
    _LECT1->_num_ascii

Critical Paths under _isr in COMMON

    None.

Critical Paths under _main in BANK0

    _main->_conver1
    _setup->_I2C_Master_Init
    _I2C_Master_Init->___lldiv
    _mandar_datos->___awmod
    _conver1->___awmod
    ___awmod->___awdiv

Critical Paths under _isr in BANK0

    None.

Critical Paths under _main in BANK1

    None.

Critical Paths under _isr in BANK1

    None.

Critical Paths under _main in BANK3

    None.

Critical Paths under _isr in BANK3

    None.

Critical Paths under _main in BANK2

    None.

Critical Paths under _isr in BANK2

    None.

Call Graph Tables:

 ---------------------------------------------------------------------------------
 (Depth) Function   	        Calls       Base Space   Used Autos Params    Refs
 ---------------------------------------------------------------------------------
 (0) _main                                                 2     2      0   13232
                                             30 BANK0      2     2      0
                    _I2C_Master_Read
                   _I2C_Master_Start
                    _I2C_Master_Stop
                   _I2C_Master_Write
                              _LECT1
                           _Lcd_Init
                     _Lcd_Set_Cursor
                   _Lcd_Write_String
                             _conver
                            _conver1
                       _mandar_datos
                              _setup
 ---------------------------------------------------------------------------------
 (1) _setup                                                2     2      0    4260
                                             17 BANK0      2     2      0
                    _I2C_Master_Init
                    _I2C_Master_Read
                   _I2C_Master_Start
                    _I2C_Master_Stop
                   _I2C_Master_Write
                         _osc_config
                        _uart_config
 ---------------------------------------------------------------------------------
 (2) _uart_config                                          0     0      0       0
 ---------------------------------------------------------------------------------
 (2) _osc_config                                           3     3      0      22
                                              3 COMMON     3     3      0
 ---------------------------------------------------------------------------------
 (2) _I2C_Master_Write                                     2     0      2    2821
                                              3 COMMON     2     0      2
                    _I2C_Master_Wait
 ---------------------------------------------------------------------------------
 (2) _I2C_Master_Stop                                      0     0      0       0
                    _I2C_Master_Wait
 ---------------------------------------------------------------------------------
 (2) _I2C_Master_Start                                     0     0      0       0
                    _I2C_Master_Wait
 ---------------------------------------------------------------------------------
 (2) _I2C_Master_Read                                      6     4      2     875
                                              3 COMMON     4     2      2
                                              0 BANK0      2     2      0
                    _I2C_Master_Wait
 ---------------------------------------------------------------------------------
 (3) _I2C_Master_Wait                                      0     0      0       0
 ---------------------------------------------------------------------------------
 (2) _I2C_Master_Init                                      8     4      4     542
                                              4 COMMON     4     4      0
                                             13 BANK0      4     0      4
                            ___lldiv
 ---------------------------------------------------------------------------------
 (3) ___lldiv                                             14     6      8     421
                                              3 COMMON     1     1      0
                                              0 BANK0     13     5      8
 ---------------------------------------------------------------------------------
 (1) _mandar_datos                                         2     2      0    1757
                                             11 BANK0      2     2      0
                            ___awdiv
                            ___awmod
 ---------------------------------------------------------------------------------
 (1) _conver1                                             19    19      0    2352
                                             11 BANK0     19    19      0
                            ___awdiv
                            ___awmod
 ---------------------------------------------------------------------------------
 (2) ___awmod                                              7     3      4    1153
                                              4 BANK0      7     3      4
                            ___awdiv (ARG)
 ---------------------------------------------------------------------------------
 (2) ___awdiv                                              9     5      4     604
                                              3 COMMON     5     1      4
                                              0 BANK0      4     4      0
 ---------------------------------------------------------------------------------
 (1) _conver                                              17    17      0     385
                                              3 COMMON     1     1      0
                                              0 BANK0     16    16      0
 ---------------------------------------------------------------------------------
 (1) _Lcd_Write_String                                     4     4      0     264
                                              6 COMMON     1     1      0
                                              0 BANK0      3     3      0
                     _Lcd_Write_Char
 ---------------------------------------------------------------------------------
 (2) _Lcd_Write_Char                                       2     2      0      62
                                              4 COMMON     2     2      0
                           _Lcd_Port
 ---------------------------------------------------------------------------------
 (1) _Lcd_Set_Cursor                                       4     3      1     434
                                              7 COMMON     1     0      1
                                              0 BANK0      3     3      0
                            _Lcd_Cmd
 ---------------------------------------------------------------------------------
 (1) _Lcd_Init                                             0     0      0      62
                            _Lcd_Cmd
 ---------------------------------------------------------------------------------
 (2) _Lcd_Cmd                                              3     3      0      62
                                              4 COMMON     3     3      0
                           _Lcd_Port
 ---------------------------------------------------------------------------------
 (3) _Lcd_Port                                             1     1      0      31
                                              3 COMMON     1     1      0
 ---------------------------------------------------------------------------------
 (1) _LECT1                                                1     1      0      22
                                              6 COMMON     1     1      0
                          _num_ascii
 ---------------------------------------------------------------------------------
 (2) _num_ascii                                            3     3      0      22
                                              3 COMMON     3     3      0
 ---------------------------------------------------------------------------------
 Estimated maximum stack depth 3
 ---------------------------------------------------------------------------------
 (Depth) Function   	        Calls       Base Space   Used Autos Params    Refs
 ---------------------------------------------------------------------------------
 (4) _isr                                                  3     3      0       0
                                              0 COMMON     3     3      0
 ---------------------------------------------------------------------------------
 Estimated maximum stack depth 4
 ---------------------------------------------------------------------------------

 Call Graph Graphs:

 _main (ROOT)
   _I2C_Master_Read
     _I2C_Master_Wait
   _I2C_Master_Start
     _I2C_Master_Wait
   _I2C_Master_Stop
     _I2C_Master_Wait
   _I2C_Master_Write
     _I2C_Master_Wait
   _LECT1
     _num_ascii
   _Lcd_Init
     _Lcd_Cmd
       _Lcd_Port
   _Lcd_Set_Cursor
     _Lcd_Cmd
   _Lcd_Write_String
     _Lcd_Write_Char
       _Lcd_Port
   _conver
   _conver1
     ___awdiv
     ___awmod
       ___awdiv (ARG)
   _mandar_datos
     ___awdiv
     ___awmod
   _setup
     _I2C_Master_Init
       ___lldiv
     _I2C_Master_Read
     _I2C_Master_Start
     _I2C_Master_Stop
     _I2C_Master_Write
     _osc_config
     _uart_config

 _isr (ROOT)

 Address spaces:
Name               Size   Autos  Total    Cost      Usage
BITCOMMON            E      0       0       0        0.0%
EEDATA             100      0       0       0        0.0%
NULL                 0      0       0       0        0.0%
CODE                 0      0       0       0        0.0%
COMMON               E      8       B       1       78.6%
BITSFR0              0      0       0       1        0.0%
SFR0                 0      0       0       1        0.0%
BITSFR1              0      0       0       2        0.0%
SFR1                 0      0       0       2        0.0%
STACK                0      0       0       2        0.0%
ABS                  0      0      3A       3        0.0%
BITBANK0            50      0       0       4        0.0%
BITSFR3              0      0       0       4        0.0%
SFR3                 0      0       0       4        0.0%
BANK0               50     20      2F       5       58.8%
BITSFR2              0      0       0       5        0.0%
SFR2                 0      0       0       5        0.0%
BITBANK1            50      0       0       6        0.0%
BANK1               50      0       0       7        0.0%
BITBANK3            60      0       0       8        0.0%
BANK3               60      0       0       9        0.0%
BITBANK2            60      0       0      10        0.0%
BANK2               60      0       0      11        0.0%
DATA                 0      0      3A      12        0.0%


Microchip Technology PIC Macro Assembler V2.32 build 20210201212658 
Symbol Table                                                                                   Mon Aug 23 19:52:50 2021

                       _C1 0049                         _C2 0048                         _C3 0047  
                       _DH 0045                         _DM 0043                         _UH 0046  
                       _UM 0044               ___awdiv@sign 0021                        l120 07A2  
                      l201 0EE4                        l123 05CF                        l140 02B9  
                      l133 0299                        l117 0556                        l127 0299  
                      l207 0F38                        l218 07E1                        l146 02ED  
                      l163 03B3                        l308 0EFA                        l157 03B3  
                      l261 0EB1                        l174 0703                        l430 06A0  
                      l183 0E94                        l264 0EBD                        l280 0F87  
                      l281 0F8E                        l273 0EA6                        l186 0F13  
                      l258 0FFF                        l195 0F5E                        l267 0E9D  
                      l276 0EB0                        l198 07FA                        l279 0F84  
                      l295 0FC5                        l560 075E                        l547 0638  
                      _DIA 007A                        _GIE 005F                        _MIN 0079  
                      u710 0605                        u711 0604                        u705 05F7  
                      u730 0616                        u731 0615                        u900 022B  
                      u901 022A                        u725 0606                        u910 023E  
                      u750 062A                        u670 05D7                        u911 023D  
                      u751 0629                        u735 0612                        u671 05D6  
                      u920 0251                        u760 062F                        u680 05E2  
                      u921 0250                        u761 062E                        u745 061E  
                      u681 05E1                        u930 0264                        u690 05F3  
                      u931 0263                        u691 05F2                        u940 0277  
                      u941 0276                        u950 028A                        u951 0289  
                      _NUM 004D                        u960 029F                        u961 029E  
                      u970 02B4                        u890 0218                        u971 02B3  
                      u891 0217                        u980 02C1                        u981 02C0  
                      u990 02C9                        u991 02C8                        _con 0078  
                      _isr 0EBE                        fsr0 0004                        indf 0000  
             ___awmod@sign 002A                       l2200 0320                       l2120 0213  
                     l2210 0347                       l2202 032C                       l2130 023E  
                     l2122 0218                       l2114 075F                       l2220 0368  
                     l2212 034D                       l2204 0332                       l2140 0271  
                     l2132 024B                       l2124 0225                       l2230 0387  
                     l2222 036C                       l2214 0351                       l2206 0336  
                     l2150 029F                       l2142 0277                       l2134 0251  
                     l2126 022B                       l2118 0206                       l2240 03A7  
                     l2232 038C                       l2224 0371                       l2216 0356  
                     l2208 033B                       l2160 02C1                       l2152 02A3  
                     l2144 0284                       l2136 025E                       l2128 0238  
                     l2234 0398                       l2226 037D                       l2218 0362  
                     l2170 02DD                       l2154 02AE                       l2162 02C3  
                     l2146 028A                       l2138 0264                       l2236 039E  
                     l2228 0383                       l2180 02F4                       l2172 02E3  
                     l2164 02C9                       l2156 02B4                       l2148 0296  
                     l2500 0F6C                       l2238 03A2                       l2190 030C  
                     l2182 02F9                       l2174 02E4                       l2166 02CD  
                     l2158 02BB                       l2502 0F75                       l2192 030F  
                     l2184 0304                       l2176 02EA                       l2168 02D2  
                     l2520 0FFD                       l2512 0FC6                       l2504 0F7A  
                     l2600 03E0                       l2186 0305                       l2178 02F0  
                     l2530 0F06                       l2522 0FFE                       l2514 0FCA  
                     l2506 0F80                       l2610 03F5                       l2602 03E1  
                     l1820 07AB                       l2188 0306                       l2196 0316  
                     l2532 0F07                       l2524 0EFC                       l2700 0F46  
                     l2540 0EDA                       l1900 05DC                       l2460 0639  
                     l2516 0FCD                       l2508 0F88                       l2620 041C  
                     l2612 03FE                       l2604 03E4                       l1814 07A9  
                     l2198 031C                       l2454 0E90                       l2534 0F10  
                     l2526 0F02                       l2702 0F4D                       l2542 0EDB  
                     l1910 05ED                       l1902 05DE                       l2550 0707  
                     l2710 0585                       l2470 0668                       l2462 064B  
                     l2518 0FFC                       l1750 0F9F                       l1742 0F90  
                     l2630 0448                       l2622 0425                       l2614 0407  
                     l2606 03E7                       l1832 07AF                       l1808 07A7  
                     l2528 0F05                       l2704 0F53                       l2544 0EDC  
                     l2536 0ED1                       l2720 0F25                       l1920 0605  
                     l1912 05F3                       l1904 05E2                       l2560 071B  
                     l2552 070B                       l2712 05AB                       l2472 067A  
                     l2464 064E                       l2480 0698                       l2456 0EB1  
                     l1752 0FA1                       l1744 0F91                       l2640 0473  
                     l2632 0451                       l2624 0433                       l2616 040C  
                     l2608 03EC                       l2800 0109                       l1850 07B5  
                     l1826 07AD                       l2706 0F58                       l2546 0EE1  
                     l2538 0ED7                       l2722 0F2D                       l1922 0616  
                     l1914 05F6                       l1930 062A                       l1906 05E7  
                     l2570 0733                       l2562 0721                       l2554 0710  
                     l2730 06DD                       l2474 0688                       l2466 065B  
                     l2458 0EB7                       l2490 0EAC                       l1754 0FA7  
                     l1746 0F97                       l1762 0FAF                       l1770 0EED  
                     l2650 049F                       l2642 0478                       l2634 045A  
                     l2626 0438                       l2618 0417                       l2810 0130  
                     l2802 0112                       l1844 07B3                       l2716 0F17  
                     l1932 062F                       l1924 061C                       l1916 05FD  
                     l1908 05EB                       l2580 0755                       l2572 073D  
                     l2564 0724                       l2556 0712                       l2548 0704  
                     l2708 0557                       l2732 06E0                       l2740 06E5  
                     l2724 06A1                       l2476 0689                       l2468 065F  
                     l2484 0E95                       l2492 0E9E                       l1756 0FA9  
                     l1748 0F99                       l1780 0EF7                       l1772 0EF0  
                     l2660 04C3                       l2652 04A4                       l2644 0481  
                     l2636 0463                       l2628 0443                       l2820 015C  
                     l2812 0139                       l2804 011B                       l1838 07B1  
                     l2718 0F1A                       l1934 0634                       l1926 061D  
                     l1918 0601                       l2582 075A                       l2574 0743  
                     l2566 072B                       l2558 0716                       l2726 06A2  
                     l2478 0692                       l2486 0E9A                       l2494 0EA3  
                     l1758 0FAD                       l1774 0EF2                       l2670 04EF  
                     l2662 04CE                       l2654 04AD                       l2646 048F  
                     l2638 0468                       l2590 03BD                       l2830 0183  
                     l2822 0165                       l2814 0147                       l2806 0120  
                     l2750 0031                       l1856 07B7                       l1864 07B9  
                     l1928 0624                       l2576 074A                       l2568 072F  
                     l2736 06E3                       l2728 06C7                       l2496 0F5F  
                     l2488 0EA7                       l1776 0EF5                       l1768 0EE5  
                     l2680 051A                       l2672 04FA                       l2664 04D3  
                     l2656 04B5                       l2648 0494                       l2592 03C5  
                     l2840 01AF                       l2832 018C                       l2824 016E  
                     l2816 014C                       l2808 012B                       l2760 005F  
                     l2752 0043                       l1794 07A4                       l2578 0750  
                     l2498 0F64                       l2930 0FB7                       l1778 0EF6  
                     l2690 0546                       l2682 051F                       l2674 04FF  
                     l2666 04DC                       l2658 04BE                       l2594 03CB  
                     l2586 03B4                       l2850 01D6                       l2842 01B8  
                     l2834 019A                       l2826 0173                       l2818 0157  
                     l2770 0085                       l2762 0068                       l2754 004B  
                     l2746 0027                       l1796 07A5                       l2932 06EF  
                     l2692 054B                       l2684 052A                       l2676 0508  
                     l2668 04EA                       l2596 03D0                       l2588 03BC  
                     l2852 01DF                       l2844 01C1                       l2836 019F  
                     l2828 017E                       l2780 00B1                       l2772 008E  
                     l2764 0070                       l2756 0055                       l2748 002C  
                     l2934 07C1                       l2694 07E2                       l1894 05D0  
                     l2686 052F                       l2678 0511                       l2598 03DF  
                     l2854 01ED                       l2846 01C6                       l2838 01AA  
                     l2790 00DD                       l2782 00BA                       l2774 009C  
                     l2766 0075                       l2758 005A                       l2696 0F3C  
                     l1896 05D3                       l2688 0538                       l2856 01F2  
                     l2848 01D1                       l2792 00E6                       l2784 00C8  
                     l2776 00A1                       l2768 0080                       l2698 0F41  
                     l1898 05D7                       l2858 01FD                       l2794 00F4  
                     l2786 00CD                       l2778 00AC                       l2796 00F9  
                     l2788 00D8                       l2798 0104                       ?_isr 0070  
                     u1000 02E3                       u1001 02E2                       u1010 02EA  
                     u1011 02E9                       u1020 030C                       u1021 030B  
                     u1030 0315                       u1110 0EB7                       u1031 0314  
                     u1111 0EB6                       u1040 031C                       u1120 0EBD  
                     u1200 0F80                       u1041 031B                       u1121 0EBC  
                     u1201 0F7F                       u1050 0332                       u1130 064B  
                     u1210 0FDD                       u1051 0331                       u1131 064A  
                     u1060 034D                       u1300 0755                       u1220 070B  
                     u1061 034C                       u1301 0754                       u1221 070A  
                     u1070 0368                       u1310 0F41                       u1230 0716  
                     u1150 065F                       u1071 0367                       u1311 0F40  
                     u1231 0715                       u1151 065E                       u1215 0FD8  
                     u1080 0383                       u1320 0F53                       u1240 0721  
                     u1081 0382                       u1321 0F52                       u1241 0720  
                     u1145 0650                       u1090 039E                       u1330 0F38  
                     u1170 067A                       u1091 039D                       u1331 0F37  
                     u1171 0679                       u1260 0733                       u1261 0732  
                     u1165 0661                       u1270 073D                       u1190 0698  
                     u1271 073C                       u1255 0725                       u1191 0697  
                     u1175 0676                       u1407 0179                       u1185 068A  
                     u1417 01A5                       u1290 0750                       u1291 074F  
                     u1275 0739                       u1507 0525                       u1427 01CC  
                     u1347 007B                       u1285 0744                       u1517 0551  
                     u1437 01F8                       u1357 00A7                       u1527 0EDE  
                     u1447 0412                       u1367 00D3                       u1537 0F0B  
                     u1457 043E                       u1377 00FF                       u1467 046E  
                     u1387 0126                       u1477 049A                       u1397 0152  
                     u1487 04C9                       u1497 04F5                       _HORA 004B  
                     _PEIE 005E                       _TEMP 004A          ?_Lcd_Write_String 0070  
                     _main 0027                       btemp 007E                       start 000C  
       ??_Lcd_Write_String 0076             osc_config@freq 0075            __end_of_Lcd_Cmd 0F14  
                    ??_isr 0070            conver1@temporal 002E           ?_I2C_Master_Init 002D  
         ?_I2C_Master_Read 0073              ?_mandar_datos 0070           ?_I2C_Master_Wait 0070  
         ?_I2C_Master_Stop 0070                      ?_main 0070            __end_of___awdiv 0639  
          __end_of___awmod 075F                      _ANSEL 0188            __end_of___lldiv 06A1  
          ___awdiv@divisor 0073                      _LECT1 0206                      i1l106 0EC9  
                    _PARKH 004E            ___awdiv@counter 0020                      _SPBRG 0099  
                    _PORTA 0005                      _PORTB 0006                      _PORTD 0008  
  __size_of_Lcd_Set_Cursor 0026                      _TRISA 0085                      _TRISB 0086  
                    _TRISD 0088                      _SSPIE 0463                      _TRISE 0089  
                    _SSPIF 0063                      _TXREG 0019            __end_of_conver1 05D0  
                    _setup 03B4                      pclath 000A                      status 0003  
                    wtemp0 007E           __end_of_Lcd_Init 07FB           __end_of_Lcd_Port 0E95  
          __initialization 000F               __end_of_main 0206             ??_mandar_datos 002B  
                   ??_main 003E                     ?_LECT1 0070          ?_I2C_Master_Start 0070  
        ?_I2C_Master_Write 0073         ??_I2C_Master_Start 0073         ??_I2C_Master_Write 0075  
                   _BASURA 004C           ___awdiv@dividend 0075                     ?_setup 0070  
                   _ANSELH 0189                     u110_20 0EC4                     u110_21 0EC3  
                   i1l2264 0EBE                     i1l2266 0EC4                     i1l2268 0EC8  
                ??_Lcd_Cmd 0074                     _SPBRGH 009A    __size_of_Lcd_Write_Char 0015  
                   _SSPADD 0093                     _TRISC3 043B                     _TRISC4 043C  
                   _SSPCON 0014                     _SSPBUF 0013                  ??___awdiv 0077  
                ??___awmod 0028                  ??___lldiv 0073                     _conver 075F  
         ___awdiv@quotient 0022            ___awmod@divisor 0024            ___awmod@counter 0029  
             ?_uart_config 0070                  ??_conver1 002B                     saved_w 007E  
          Lcd_Set_Cursor@a 0021            Lcd_Set_Cursor@b 0077    __end_of__initialization 0023  
            __end_of_LECT1 03B4             __pcstackCOMMON 0070              __end_of_setup 0557  
                  ??_LECT1 0076             _Lcd_Set_Cursor 0F39                  ?_Lcd_Init 0070  
                ?_Lcd_Port 0070                    ??_setup 0031                 __pbssBANK0 0040  
     __end_of_mandar_datos 0704                 __pmaintext 0027                 __pintentry 0004  
                  ?_conver 0070  __size_of_Lcd_Write_String 0025     __end_of_Lcd_Set_Cursor 0F5F  
                  _CERRADO 0042         __size_of_num_ascii 003F                 ??_Lcd_Init 0077  
               ??_Lcd_Port 0073                    _SSPCON2 0091                    _SSPSTAT 0094  
           _Lcd_Write_Char 0ED0                    _Lcd_Cmd 0EFB                    ___awdiv 05D0  
                  ___awmod 0704                    ___lldiv 0639            __size_of_conver 0044  
          ?_Lcd_Set_Cursor 0077                    __ptext1 03B4                    __ptext2 0EE5  
                  __ptext3 0F8F                    __ptext4 0EA7                    __ptext5 0E9E  
                  __ptext6 0E95                    __ptext7 0F5F                    __ptext8 0EB1  
                  __ptext9 0FC6                    _conver1 0557               __size_of_isr 0012  
         ___awmod@dividend 0026       __size_of_uart_config 0016   __size_of_I2C_Master_Init 003A  
 __size_of_I2C_Master_Read 0030   __size_of_I2C_Master_Wait 000D   __size_of_I2C_Master_Stop 0009  
   __end_of_Lcd_Write_Char 0EE5       end_of_initialization 0023                 _osc_config 0F8F  
        __end_of_num_ascii 07E2  __size_of_I2C_Master_Start 0009  __size_of_I2C_Master_Write 000A  
          ___lldiv@divisor 0020            ___lldiv@counter 002C                  _RCSTAbits 0018  
         I2C_Master_Init@c 002D           I2C_Master_Read@a 0073                  Lcd_Port@a 0073  
                _PORTDbits 0008                  _PORTEbits 0009                  _TRISCbits 0087  
    __size_of_mandar_datos 0063            ?_Lcd_Write_Char 0070          Lcd_Write_String@a 0022  
        Lcd_Write_String@i 0020                  _TXSTAbits 0098           _Lcd_Write_String 0F14  
             _mandar_datos 06A1                _BAUDCTLbits 0187             __end_of_conver 07A3  
      start_initialization 000F                __end_of_isr 0ED0          __size_of_Lcd_Init 0019  
        __size_of_Lcd_Port 0006          ??_I2C_Master_Init 0074          ??_I2C_Master_Read 0075  
        ??_I2C_Master_Wait 0073          ??_I2C_Master_Stop 0073                ?_osc_config 0070  
                 ??_conver 0073            Lcd_Write_Char@a 0075                __pbssCOMMON 0078  
                ___latbits 0002              __pcstackBANK0 0020                   ?_Lcd_Cmd 0070  
         _I2C_Master_Start 0E95           _I2C_Master_Write 0EA7           ??_Lcd_Set_Cursor 0020  
                 ?___awdiv 0073                   ?___awmod 0024                   ?___lldiv 0020  
                 ?_conver1 0070             __size_of_LECT1 01AE        __size_of_osc_config 0037  
           conver@temporal 0020             __size_of_setup 01A3          interrupt_function 0004  
                 _PIE1bits 008C                   Lcd_Cmd@a 0076                   _PIR1bits 000C  
                _num_ascii 07A3              ??_uart_config 0073           ??_Lcd_Write_Char 0074  
                 _Lcd_Init 07E2                   _Lcd_Port 0E8F                _cuenta_uart 0040  
      I2C_Master_Read@temp 0020   __end_of_Lcd_Write_String 0F39           __size_of_Lcd_Cmd 0019  
               ?_num_ascii 0070           __size_of___awdiv 0069           __size_of___awmod 005B  
         __size_of___lldiv 0068           __size_of_conver1 0079            _I2C_Master_Init 0FC6  
          _I2C_Master_Read 0F5F            _I2C_Master_Wait 0EB1            _I2C_Master_Stop 0E9E  
                 __ptext10 0639                   __ptext11 06A1                   __ptext20 0EFB  
                 __ptext12 0557                   __ptext21 0E8F                   __ptext13 0704  
                 __ptext22 0206                   __ptext14 05D0                   __ptext23 07A3  
                 __ptext15 075F                   __ptext24 0EBE                   __ptext16 0F14  
                 __ptext17 0ED0                   __ptext18 0F39                   __ptext19 07E2  
      __end_of_uart_config 0EFB               ??_osc_config 0073              __size_of_main 01DF  
 __end_of_I2C_Master_Start 0E9E   __end_of_I2C_Master_Write 0EB1                 _INTCONbits 000B  
       __end_of_osc_config 0FC6                   intlevel1 0000           ___lldiv@dividend 0024  
             num_ascii@num 0075                 _OSCCONbits 008F                ??_num_ascii 0073  
  __end_of_I2C_Master_Init 1000    __end_of_I2C_Master_Read 0F8F    __end_of_I2C_Master_Wait 0EBE  
  __end_of_I2C_Master_Stop 0EA7         Lcd_Set_Cursor@temp 0022                _temperatura 0041  
              _uart_config 0EE5           ___lldiv@quotient 0028          I2C_Master_Write@d 0073  
              _SSPCON2bits 0091  
