

Microchip MPLAB XC8 Assembler V2.32 build 20210201212658 
                                                                                               Mon Aug 23 19:37:26 2021

Microchip MPLAB XC8 C Compiler v2.32 (Free license) build 20210201212658 Og1 
     1                           	processor	16F887
     2                           	pagewidth 120
     3                           	opt	flic
     4                           	psect	cinit,global,class=CODE,merge=1,delta=2
     5                           	psect	bssBANK0,global,class=BANK0,space=1,delta=1,noexec
     6                           	psect	clrtext,global,class=CODE,delta=2
     7                           	psect	cstackCOMMON,global,class=COMMON,space=1,delta=1,noexec
     8                           	psect	cstackBANK0,global,class=BANK0,space=1,delta=1,noexec
     9                           	psect	maintext,global,class=CODE,split=1,delta=2
    10                           	psect	text1,local,class=CODE,merge=1,delta=2
    11                           	psect	text2,local,class=CODE,merge=1,delta=2
    12                           	psect	text3,local,class=CODE,merge=1,delta=2
    13                           	psect	text4,local,class=CODE,merge=1,delta=2
    14                           	psect	text5,local,class=CODE,merge=1,delta=2
    15                           	psect	text6,local,class=CODE,merge=1,delta=2
    16                           	psect	text7,local,class=CODE,merge=1,delta=2
    17                           	psect	text8,local,class=CODE,merge=1,delta=2
    18                           	psect	text9,local,class=CODE,merge=1,delta=2
    19                           	psect	text10,local,class=CODE,merge=1,delta=2,group=1
    20                           	psect	text11,local,class=CODE,merge=1,delta=2
    21                           	psect	text12,local,class=CODE,merge=1,delta=2,group=1
    22                           	psect	text13,local,class=CODE,merge=1,delta=2,group=1
    23                           	psect	text14,local,class=CODE,merge=1,delta=2
    24                           	psect	text15,local,class=CODE,merge=1,delta=2
    25                           	psect	text16,local,class=CODE,merge=1,delta=2
    26                           	psect	text17,local,class=CODE,merge=1,delta=2
    27                           	psect	text18,local,class=CODE,merge=1,delta=2
    28                           	psect	text19,local,class=CODE,merge=1,delta=2
    29                           	psect	text20,local,class=CODE,merge=1,delta=2
    30                           	psect	text21,local,class=CODE,merge=1,delta=2
    31                           	psect	text22,local,class=CODE,merge=1,delta=2
    32                           	psect	text23,local,class=CODE,merge=1,delta=2
    33                           	psect	intentry,global,class=CODE,delta=2
    34                           	psect	text24,local,class=CODE,merge=1,delta=2
    35                           	psect	text25,local,class=CODE,merge=1,delta=2
    36                           	psect	text26,local,class=CODE,merge=1,delta=2
    37                           	psect	config,global,abs,ovrld,class=CONFIG,space=4,delta=2,noexec
    38                           	dabs	1,0x7E,2
    39  0000                     
    40                           ; Version 2.20
    41                           ; Generated 12/02/2020 GMT
    42                           ; 
    43                           ; Copyright © 2020, Microchip Technology Inc. and its subsidiaries ("Microchip")
    44                           ; All rights reserved.
    45                           ; 
    46                           ; This software is developed by Microchip Technology Inc. and its subsidiaries ("Microch
      +                          ip").
    47                           ; 
    48                           ; Redistribution and use in source and binary forms, with or without modification, are
    49                           ; permitted provided that the following conditions are met:
    50                           ; 
    51                           ;     1. Redistributions of source code must retain the above copyright notice, this lis
      +                          t of
    52                           ;        conditions and the following disclaimer.
    53                           ; 
    54                           ;     2. Redistributions in binary form must reproduce the above copyright notice, this 
      +                          list
    55                           ;        of conditions and the following disclaimer in the documentation and/or other
    56                           ;        materials provided with the distribution.
    57                           ; 
    58                           ;     3. Microchip's name may not be used to endorse or promote products derived from th
      +                          is
    59                           ;        software without specific prior written permission.
    60                           ; 
    61                           ; THIS SOFTWARE IS PROVIDED BY MICROCHIP "AS IS" AND ANY EXPRESS OR IMPLIED WARRANTIES,
    62                           ; INCLUDING, BUT NOT LIMITED TO, THE IMPLIED WARRANTIES OF MERCHANTABILITY AND FITNESS F
      +                          OR
    63                           ; PURPOSE ARE DISCLAIMED.  IN NO EVENT SHALL MICROCHIP BE LIABLE FOR ANY DIRECT, INDIREC
      +                          T,
    64                           ; INCIDENTAL, SPECIAL, EXEMPLARY, OR CONSEQUENTIAL DAMAGES (INCLUDING BUT NOT LIMITED TO
    65                           ; PROCUREMENT OF SUBSTITUTE GOODS OR SERVICES; LOSS OF USE, DATA OR PROFITS; OR BUSINESS
    66                           ; INTERRUPTION) HOWSOEVER CAUSED AND ON ANY THEORY OF LIABILITY, WHETHER IN CONTRACT, ST
      +                          RICT
    67                           ; LIABILITY, OR TORT (INCLUDING NEGLIGENCE OR OTHERWISE) ARISING IN ANY WAY OUT OF THE U
      +                          SE OF
    68                           ; THIS SOFTWARE, EVEN IF ADVISED OF THE POSSIBILITY OF SUCH DAMAGE.
    69                           ; 
    70                           ; 
    71                           ; Code-generator required, PIC16F887 Definitions
    72                           ; 
    73                           ; SFR Addresses
    74  0000                     	;# 
    75  0001                     	;# 
    76  0002                     	;# 
    77  0003                     	;# 
    78  0004                     	;# 
    79  0005                     	;# 
    80  0006                     	;# 
    81  0007                     	;# 
    82  0008                     	;# 
    83  0009                     	;# 
    84  000A                     	;# 
    85  000B                     	;# 
    86  000C                     	;# 
    87  000D                     	;# 
    88  000E                     	;# 
    89  000E                     	;# 
    90  000F                     	;# 
    91  0010                     	;# 
    92  0011                     	;# 
    93  0012                     	;# 
    94  0013                     	;# 
    95  0014                     	;# 
    96  0015                     	;# 
    97  0015                     	;# 
    98  0016                     	;# 
    99  0017                     	;# 
   100  0018                     	;# 
   101  0019                     	;# 
   102  001A                     	;# 
   103  001B                     	;# 
   104  001B                     	;# 
   105  001C                     	;# 
   106  001D                     	;# 
   107  001E                     	;# 
   108  001F                     	;# 
   109  0081                     	;# 
   110  0085                     	;# 
   111  0086                     	;# 
   112  0087                     	;# 
   113  0088                     	;# 
   114  0089                     	;# 
   115  008C                     	;# 
   116  008D                     	;# 
   117  008E                     	;# 
   118  008F                     	;# 
   119  0090                     	;# 
   120  0091                     	;# 
   121  0092                     	;# 
   122  0093                     	;# 
   123  0093                     	;# 
   124  0093                     	;# 
   125  0094                     	;# 
   126  0095                     	;# 
   127  0096                     	;# 
   128  0097                     	;# 
   129  0098                     	;# 
   130  0099                     	;# 
   131  009A                     	;# 
   132  009B                     	;# 
   133  009C                     	;# 
   134  009D                     	;# 
   135  009E                     	;# 
   136  009F                     	;# 
   137  0105                     	;# 
   138  0107                     	;# 
   139  0108                     	;# 
   140  0109                     	;# 
   141  010C                     	;# 
   142  010C                     	;# 
   143  010D                     	;# 
   144  010E                     	;# 
   145  010F                     	;# 
   146  0185                     	;# 
   147  0187                     	;# 
   148  0188                     	;# 
   149  0189                     	;# 
   150  018C                     	;# 
   151  018D                     	;# 
   152  0000                     	;# 
   153  0001                     	;# 
   154  0002                     	;# 
   155  0003                     	;# 
   156  0004                     	;# 
   157  0005                     	;# 
   158  0006                     	;# 
   159  0007                     	;# 
   160  0008                     	;# 
   161  0009                     	;# 
   162  000A                     	;# 
   163  000B                     	;# 
   164  000C                     	;# 
   165  000D                     	;# 
   166  000E                     	;# 
   167  000E                     	;# 
   168  000F                     	;# 
   169  0010                     	;# 
   170  0011                     	;# 
   171  0012                     	;# 
   172  0013                     	;# 
   173  0014                     	;# 
   174  0015                     	;# 
   175  0015                     	;# 
   176  0016                     	;# 
   177  0017                     	;# 
   178  0018                     	;# 
   179  0019                     	;# 
   180  001A                     	;# 
   181  001B                     	;# 
   182  001B                     	;# 
   183  001C                     	;# 
   184  001D                     	;# 
   185  001E                     	;# 
   186  001F                     	;# 
   187  0081                     	;# 
   188  0085                     	;# 
   189  0086                     	;# 
   190  0087                     	;# 
   191  0088                     	;# 
   192  0089                     	;# 
   193  008C                     	;# 
   194  008D                     	;# 
   195  008E                     	;# 
   196  008F                     	;# 
   197  0090                     	;# 
   198  0091                     	;# 
   199  0092                     	;# 
   200  0093                     	;# 
   201  0093                     	;# 
   202  0093                     	;# 
   203  0094                     	;# 
   204  0095                     	;# 
   205  0096                     	;# 
   206  0097                     	;# 
   207  0098                     	;# 
   208  0099                     	;# 
   209  009A                     	;# 
   210  009B                     	;# 
   211  009C                     	;# 
   212  009D                     	;# 
   213  009E                     	;# 
   214  009F                     	;# 
   215  0105                     	;# 
   216  0107                     	;# 
   217  0108                     	;# 
   218  0109                     	;# 
   219  010C                     	;# 
   220  010C                     	;# 
   221  010D                     	;# 
   222  010E                     	;# 
   223  010F                     	;# 
   224  0185                     	;# 
   225  0187                     	;# 
   226  0188                     	;# 
   227  0189                     	;# 
   228  018C                     	;# 
   229  018D                     	;# 
   230  0000                     	;# 
   231  0001                     	;# 
   232  0002                     	;# 
   233  0003                     	;# 
   234  0004                     	;# 
   235  0005                     	;# 
   236  0006                     	;# 
   237  0007                     	;# 
   238  0008                     	;# 
   239  0009                     	;# 
   240  000A                     	;# 
   241  000B                     	;# 
   242  000C                     	;# 
   243  000D                     	;# 
   244  000E                     	;# 
   245  000E                     	;# 
   246  000F                     	;# 
   247  0010                     	;# 
   248  0011                     	;# 
   249  0012                     	;# 
   250  0013                     	;# 
   251  0014                     	;# 
   252  0015                     	;# 
   253  0015                     	;# 
   254  0016                     	;# 
   255  0017                     	;# 
   256  0018                     	;# 
   257  0019                     	;# 
   258  001A                     	;# 
   259  001B                     	;# 
   260  001B                     	;# 
   261  001C                     	;# 
   262  001D                     	;# 
   263  001E                     	;# 
   264  001F                     	;# 
   265  0081                     	;# 
   266  0085                     	;# 
   267  0086                     	;# 
   268  0087                     	;# 
   269  0088                     	;# 
   270  0089                     	;# 
   271  008C                     	;# 
   272  008D                     	;# 
   273  008E                     	;# 
   274  008F                     	;# 
   275  0090                     	;# 
   276  0091                     	;# 
   277  0092                     	;# 
   278  0093                     	;# 
   279  0093                     	;# 
   280  0093                     	;# 
   281  0094                     	;# 
   282  0095                     	;# 
   283  0096                     	;# 
   284  0097                     	;# 
   285  0098                     	;# 
   286  0099                     	;# 
   287  009A                     	;# 
   288  009B                     	;# 
   289  009C                     	;# 
   290  009D                     	;# 
   291  009E                     	;# 
   292  009F                     	;# 
   293  0105                     	;# 
   294  0107                     	;# 
   295  0108                     	;# 
   296  0109                     	;# 
   297  010C                     	;# 
   298  010C                     	;# 
   299  010D                     	;# 
   300  010E                     	;# 
   301  010F                     	;# 
   302  0185                     	;# 
   303  0187                     	;# 
   304  0188                     	;# 
   305  0189                     	;# 
   306  018C                     	;# 
   307  018D                     	;# 
   308  0000                     	;# 
   309  0001                     	;# 
   310  0002                     	;# 
   311  0003                     	;# 
   312  0004                     	;# 
   313  0005                     	;# 
   314  0006                     	;# 
   315  0007                     	;# 
   316  0008                     	;# 
   317  0009                     	;# 
   318  000A                     	;# 
   319  000B                     	;# 
   320  000C                     	;# 
   321  000D                     	;# 
   322  000E                     	;# 
   323  000E                     	;# 
   324  000F                     	;# 
   325  0010                     	;# 
   326  0011                     	;# 
   327  0012                     	;# 
   328  0013                     	;# 
   329  0014                     	;# 
   330  0015                     	;# 
   331  0015                     	;# 
   332  0016                     	;# 
   333  0017                     	;# 
   334  0018                     	;# 
   335  0019                     	;# 
   336  001A                     	;# 
   337  001B                     	;# 
   338  001B                     	;# 
   339  001C                     	;# 
   340  001D                     	;# 
   341  001E                     	;# 
   342  001F                     	;# 
   343  0081                     	;# 
   344  0085                     	;# 
   345  0086                     	;# 
   346  0087                     	;# 
   347  0088                     	;# 
   348  0089                     	;# 
   349  008C                     	;# 
   350  008D                     	;# 
   351  008E                     	;# 
   352  008F                     	;# 
   353  0090                     	;# 
   354  0091                     	;# 
   355  0092                     	;# 
   356  0093                     	;# 
   357  0093                     	;# 
   358  0093                     	;# 
   359  0094                     	;# 
   360  0095                     	;# 
   361  0096                     	;# 
   362  0097                     	;# 
   363  0098                     	;# 
   364  0099                     	;# 
   365  009A                     	;# 
   366  009B                     	;# 
   367  009C                     	;# 
   368  009D                     	;# 
   369  009E                     	;# 
   370  009F                     	;# 
   371  0105                     	;# 
   372  0107                     	;# 
   373  0108                     	;# 
   374  0109                     	;# 
   375  010C                     	;# 
   376  010C                     	;# 
   377  010D                     	;# 
   378  010E                     	;# 
   379  010F                     	;# 
   380  0185                     	;# 
   381  0187                     	;# 
   382  0188                     	;# 
   383  0189                     	;# 
   384  018C                     	;# 
   385  018D                     	;# 
   386  0000                     	;# 
   387  0001                     	;# 
   388  0002                     	;# 
   389  0003                     	;# 
   390  0004                     	;# 
   391  0005                     	;# 
   392  0006                     	;# 
   393  0007                     	;# 
   394  0008                     	;# 
   395  0009                     	;# 
   396  000A                     	;# 
   397  000B                     	;# 
   398  000C                     	;# 
   399  000D                     	;# 
   400  000E                     	;# 
   401  000E                     	;# 
   402  000F                     	;# 
   403  0010                     	;# 
   404  0011                     	;# 
   405  0012                     	;# 
   406  0013                     	;# 
   407  0014                     	;# 
   408  0015                     	;# 
   409  0015                     	;# 
   410  0016                     	;# 
   411  0017                     	;# 
   412  0018                     	;# 
   413  0019                     	;# 
   414  001A                     	;# 
   415  001B                     	;# 
   416  001B                     	;# 
   417  001C                     	;# 
   418  001D                     	;# 
   419  001E                     	;# 
   420  001F                     	;# 
   421  0081                     	;# 
   422  0085                     	;# 
   423  0086                     	;# 
   424  0087                     	;# 
   425  0088                     	;# 
   426  0089                     	;# 
   427  008C                     	;# 
   428  008D                     	;# 
   429  008E                     	;# 
   430  008F                     	;# 
   431  0090                     	;# 
   432  0091                     	;# 
   433  0092                     	;# 
   434  0093                     	;# 
   435  0093                     	;# 
   436  0093                     	;# 
   437  0094                     	;# 
   438  0095                     	;# 
   439  0096                     	;# 
   440  0097                     	;# 
   441  0098                     	;# 
   442  0099                     	;# 
   443  009A                     	;# 
   444  009B                     	;# 
   445  009C                     	;# 
   446  009D                     	;# 
   447  009E                     	;# 
   448  009F                     	;# 
   449  0105                     	;# 
   450  0107                     	;# 
   451  0108                     	;# 
   452  0109                     	;# 
   453  010C                     	;# 
   454  010C                     	;# 
   455  010D                     	;# 
   456  010E                     	;# 
   457  010F                     	;# 
   458  0185                     	;# 
   459  0187                     	;# 
   460  0188                     	;# 
   461  0189                     	;# 
   462  018C                     	;# 
   463  018D                     	;# 
   464  0000                     	;# 
   465  0001                     	;# 
   466  0002                     	;# 
   467  0003                     	;# 
   468  0004                     	;# 
   469  0005                     	;# 
   470  0006                     	;# 
   471  0007                     	;# 
   472  0008                     	;# 
   473  0009                     	;# 
   474  000A                     	;# 
   475  000B                     	;# 
   476  000C                     	;# 
   477  000D                     	;# 
   478  000E                     	;# 
   479  000E                     	;# 
   480  000F                     	;# 
   481  0010                     	;# 
   482  0011                     	;# 
   483  0012                     	;# 
   484  0013                     	;# 
   485  0014                     	;# 
   486  0015                     	;# 
   487  0015                     	;# 
   488  0016                     	;# 
   489  0017                     	;# 
   490  0018                     	;# 
   491  0019                     	;# 
   492  001A                     	;# 
   493  001B                     	;# 
   494  001B                     	;# 
   495  001C                     	;# 
   496  001D                     	;# 
   497  001E                     	;# 
   498  001F                     	;# 
   499  0081                     	;# 
   500  0085                     	;# 
   501  0086                     	;# 
   502  0087                     	;# 
   503  0088                     	;# 
   504  0089                     	;# 
   505  008C                     	;# 
   506  008D                     	;# 
   507  008E                     	;# 
   508  008F                     	;# 
   509  0090                     	;# 
   510  0091                     	;# 
   511  0092                     	;# 
   512  0093                     	;# 
   513  0093                     	;# 
   514  0093                     	;# 
   515  0094                     	;# 
   516  0095                     	;# 
   517  0096                     	;# 
   518  0097                     	;# 
   519  0098                     	;# 
   520  0099                     	;# 
   521  009A                     	;# 
   522  009B                     	;# 
   523  009C                     	;# 
   524  009D                     	;# 
   525  009E                     	;# 
   526  009F                     	;# 
   527  0105                     	;# 
   528  0107                     	;# 
   529  0108                     	;# 
   530  0109                     	;# 
   531  010C                     	;# 
   532  010C                     	;# 
   533  010D                     	;# 
   534  010E                     	;# 
   535  010F                     	;# 
   536  0185                     	;# 
   537  0187                     	;# 
   538  0188                     	;# 
   539  0189                     	;# 
   540  018C                     	;# 
   541  018D                     	;# 
   542  0000                     	;# 
   543  0001                     	;# 
   544  0002                     	;# 
   545  0003                     	;# 
   546  0004                     	;# 
   547  0005                     	;# 
   548  0006                     	;# 
   549  0007                     	;# 
   550  0008                     	;# 
   551  0009                     	;# 
   552  000A                     	;# 
   553  000B                     	;# 
   554  000C                     	;# 
   555  000D                     	;# 
   556  000E                     	;# 
   557  000E                     	;# 
   558  000F                     	;# 
   559  0010                     	;# 
   560  0011                     	;# 
   561  0012                     	;# 
   562  0013                     	;# 
   563  0014                     	;# 
   564  0015                     	;# 
   565  0015                     	;# 
   566  0016                     	;# 
   567  0017                     	;# 
   568  0018                     	;# 
   569  0019                     	;# 
   570  001A                     	;# 
   571  001B                     	;# 
   572  001B                     	;# 
   573  001C                     	;# 
   574  001D                     	;# 
   575  001E                     	;# 
   576  001F                     	;# 
   577  0081                     	;# 
   578  0085                     	;# 
   579  0086                     	;# 
   580  0087                     	;# 
   581  0088                     	;# 
   582  0089                     	;# 
   583  008C                     	;# 
   584  008D                     	;# 
   585  008E                     	;# 
   586  008F                     	;# 
   587  0090                     	;# 
   588  0091                     	;# 
   589  0092                     	;# 
   590  0093                     	;# 
   591  0093                     	;# 
   592  0093                     	;# 
   593  0094                     	;# 
   594  0095                     	;# 
   595  0096                     	;# 
   596  0097                     	;# 
   597  0098                     	;# 
   598  0099                     	;# 
   599  009A                     	;# 
   600  009B                     	;# 
   601  009C                     	;# 
   602  009D                     	;# 
   603  009E                     	;# 
   604  009F                     	;# 
   605  0105                     	;# 
   606  0107                     	;# 
   607  0108                     	;# 
   608  0109                     	;# 
   609  010C                     	;# 
   610  010C                     	;# 
   611  010D                     	;# 
   612  010E                     	;# 
   613  010F                     	;# 
   614  0185                     	;# 
   615  0187                     	;# 
   616  0188                     	;# 
   617  0189                     	;# 
   618  018C                     	;# 
   619  018D                     	;# 
   620  0018                     _RCSTAbits	set	24
   621  0013                     _SSPBUF	set	19
   622  0014                     _SSPCON	set	20
   623  0009                     _PORTEbits	set	9
   624  0019                     _TXREG	set	25
   625  0008                     _PORTDbits	set	8
   626  000B                     _INTCONbits	set	11
   627  0008                     _PORTD	set	8
   628  0006                     _PORTB	set	6
   629  0005                     _PORTA	set	5
   630  000C                     _PIR1bits	set	12
   631  0063                     _SSPIF	set	99
   632  005E                     _PEIE	set	94
   633  005F                     _GIE	set	95
   634  0099                     _SPBRG	set	153
   635  009A                     _SPBRGH	set	154
   636  0098                     _TXSTAbits	set	152
   637  008F                     _OSCCONbits	set	143
   638  0091                     _SSPCON2bits	set	145
   639  0087                     _TRISCbits	set	135
   640  0094                     _SSPSTAT	set	148
   641  0093                     _SSPADD	set	147
   642  0091                     _SSPCON2	set	145
   643  008C                     _PIE1bits	set	140
   644  0089                     _TRISE	set	137
   645  0088                     _TRISD	set	136
   646  0086                     _TRISB	set	134
   647  0085                     _TRISA	set	133
   648  0463                     _SSPIE	set	1123
   649  043C                     _TRISC4	set	1084
   650  043B                     _TRISC3	set	1083
   651  0187                     _BAUDCTLbits	set	391
   652  0189                     _ANSELH	set	393
   653  0188                     _ANSEL	set	392
   654                           
   655                           	psect	cinit
   656  0013                     start_initialization:	
   657                           ; #config settings
   658                           
   659  0013                     __initialization:
   660                           
   661                           ; Clear objects allocated to BANK0
   662  0013  1383               	bcf	3,7	;select IRP bank0
   663  0014  304D               	movlw	low __pbssBANK0
   664  0015  0084               	movwf	4
   665  0016  305F               	movlw	low (__pbssBANK0+18)
   666  0017  120A  158A  2578  120A  118A  	fcall	clear_ram0
   667  001C                     end_of_initialization:	
   668                           ;End of C runtime variable initialization code
   669                           
   670  001C                     __end_of__initialization:
   671  001C  0183               	clrf	3
   672  001D  120A  118A  2820   	ljmp	_main	;jump to C main() function
   673                           
   674                           	psect	bssBANK0
   675  004D                     __pbssBANK0:
   676  004D                     _cuenta_uart:
   677  004D                     	ds	1
   678  004E                     _temperatura:
   679  004E                     	ds	1
   680  004F                     _con:
   681  004F                     	ds	1
   682  0050                     _CERRADO:
   683  0050                     	ds	1
   684  0051                     _DM:
   685  0051                     	ds	1
   686  0052                     _UM:
   687  0052                     	ds	1
   688  0053                     _DH:
   689  0053                     	ds	1
   690  0054                     _UH:
   691  0054                     	ds	1
   692  0055                     _C3:
   693  0055                     	ds	1
   694  0056                     _C2:
   695  0056                     	ds	1
   696  0057                     _C1:
   697  0057                     	ds	1
   698  0058                     _TEMP:
   699  0058                     	ds	1
   700  0059                     _MIN:
   701  0059                     	ds	1
   702  005A                     _HORA:
   703  005A                     	ds	1
   704  005B                     _DIA:
   705  005B                     	ds	1
   706  005C                     _BASURA:
   707  005C                     	ds	1
   708  005D                     _NUM:
   709  005D                     	ds	1
   710  005E                     _PARKH:
   711  005E                     	ds	1
   712                           
   713                           	psect	clrtext
   714  0D78                     clear_ram0:	
   715                           ;	Called with FSR containing the base address, and
   716                           ;	W with the last address+1
   717                           
   718  0D78  0064               	clrwdt	;clear the watchdog before getting into this loop
   719  0D79                     clrloop0:
   720  0D79  0180               	clrf	0	;clear RAM location pointed to by FSR
   721  0D7A  0A84               	incf	4,f	;increment pointer
   722  0D7B  0604               	xorwf	4,w	;XOR with final address
   723  0D7C  1903               	btfsc	3,2	;have we reached the end yet?
   724  0D7D  3400               	retlw	0	;all done for this memory range, return
   725  0D7E  0604               	xorwf	4,w	;XOR again to restore value
   726  0D7F  2D79               	goto	clrloop0	;do the next byte
   727                           
   728                           	psect	cstackCOMMON
   729  0070                     __pcstackCOMMON:
   730  0070                     ?_mandar_datos:
   731  0070                     ?_setup:	
   732                           ; 1 bytes @ 0x0
   733                           
   734  0070                     ?_Lcd_Init:	
   735                           ; 1 bytes @ 0x0
   736                           
   737  0070                     ?_Lcd_Write_String:	
   738                           ; 1 bytes @ 0x0
   739                           
   740  0070                     ?_conver1:	
   741                           ; 1 bytes @ 0x0
   742                           
   743  0070                     ?_conver:	
   744                           ; 1 bytes @ 0x0
   745                           
   746  0070                     ?_LECT1:	
   747                           ; 1 bytes @ 0x0
   748                           
   749  0070                     ?_I2C_Master_Start:	
   750                           ; 1 bytes @ 0x0
   751                           
   752  0070                     ?_I2C_Master_Stop:	
   753                           ; 1 bytes @ 0x0
   754                           
   755  0070                     ?_osc_config:	
   756                           ; 1 bytes @ 0x0
   757                           
   758  0070                     ?_uart_config:	
   759                           ; 1 bytes @ 0x0
   760                           
   761  0070                     ?_num_ascii:	
   762                           ; 1 bytes @ 0x0
   763                           
   764  0070                     ?_isr:	
   765                           ; 1 bytes @ 0x0
   766                           
   767  0070                     ?_main:	
   768                           ; 1 bytes @ 0x0
   769                           
   770  0070                     ?_Lcd_Port:	
   771                           ; 1 bytes @ 0x0
   772                           
   773  0070                     ?_Lcd_Cmd:	
   774                           ; 1 bytes @ 0x0
   775                           
   776  0070                     ?_Lcd_Write_Char:	
   777                           ; 1 bytes @ 0x0
   778                           
   779  0070                     ?_I2C_Master_Wait:	
   780                           ; 1 bytes @ 0x0
   781                           
   782  0070                     ?i1___awdiv:	
   783                           ; 1 bytes @ 0x0
   784                           
   785  0070                     i1___awdiv@divisor:	
   786                           ; 2 bytes @ 0x0
   787                           
   788                           
   789                           ; 2 bytes @ 0x0
   790  0070                     	ds	2
   791  0072                     i1___awdiv@dividend:
   792                           
   793                           ; 2 bytes @ 0x2
   794  0072                     	ds	2
   795  0074                     ??i1___awdiv:
   796                           
   797                           ; 1 bytes @ 0x4
   798  0074                     	ds	1
   799  0075                     i1___awdiv@counter:
   800                           
   801                           ; 1 bytes @ 0x5
   802  0075                     	ds	1
   803  0076                     i1___awdiv@sign:
   804                           
   805                           ; 1 bytes @ 0x6
   806  0076                     	ds	1
   807  0077                     i1___awdiv@quotient:
   808                           
   809                           ; 2 bytes @ 0x7
   810  0077                     	ds	2
   811  0079                     ?i1___awmod:
   812  0079                     i1___awmod@divisor:	
   813                           ; 2 bytes @ 0x9
   814                           
   815                           
   816                           ; 2 bytes @ 0x9
   817  0079                     	ds	2
   818  007B                     i1___awmod@dividend:
   819                           
   820                           ; 2 bytes @ 0xB
   821  007B                     	ds	2
   822  007D                     ??i1___awmod:
   823                           
   824                           ; 1 bytes @ 0xD
   825  007D                     	ds	1
   826                           
   827                           	psect	cstackBANK0
   828  0020                     __pcstackBANK0:
   829  0020                     i1___awmod@counter:
   830                           
   831                           ; 1 bytes @ 0x0
   832  0020                     	ds	1
   833  0021                     i1___awmod@sign:
   834                           
   835                           ; 1 bytes @ 0x1
   836  0021                     	ds	1
   837  0022                     ??_mandar_datos:
   838                           
   839                           ; 1 bytes @ 0x2
   840  0022                     	ds	2
   841  0024                     ??_isr:
   842                           
   843                           ; 1 bytes @ 0x4
   844  0024                     	ds	4
   845  0028                     ??_conver:
   846  0028                     ??_I2C_Master_Start:	
   847                           ; 1 bytes @ 0x8
   848                           
   849  0028                     ?_I2C_Master_Write:	
   850                           ; 1 bytes @ 0x8
   851                           
   852  0028                     ??_I2C_Master_Stop:	
   853                           ; 1 bytes @ 0x8
   854                           
   855  0028                     ??_osc_config:	
   856                           ; 1 bytes @ 0x8
   857                           
   858  0028                     ??_uart_config:	
   859                           ; 1 bytes @ 0x8
   860                           
   861  0028                     ??_num_ascii:	
   862                           ; 1 bytes @ 0x8
   863                           
   864  0028                     ??_Lcd_Port:	
   865                           ; 1 bytes @ 0x8
   866                           
   867  0028                     ??_I2C_Master_Wait:	
   868                           ; 1 bytes @ 0x8
   869                           
   870  0028                     ?_I2C_Master_Read:	
   871                           ; 1 bytes @ 0x8
   872                           
   873  0028                     ?___awdiv:	
   874                           ; 2 bytes @ 0x8
   875                           
   876  0028                     ?___lldiv:	
   877                           ; 2 bytes @ 0x8
   878                           
   879  0028                     Lcd_Port@a:	
   880                           ; 4 bytes @ 0x8
   881                           
   882  0028                     I2C_Master_Write@d:	
   883                           ; 1 bytes @ 0x8
   884                           
   885  0028                     I2C_Master_Read@a:	
   886                           ; 2 bytes @ 0x8
   887                           
   888  0028                     ___awdiv@divisor:	
   889                           ; 2 bytes @ 0x8
   890                           
   891  0028                     ___lldiv@divisor:	
   892                           ; 2 bytes @ 0x8
   893                           
   894                           
   895                           ; 4 bytes @ 0x8
   896  0028                     	ds	1
   897  0029                     ??_Lcd_Cmd:
   898  0029                     ??_Lcd_Write_Char:	
   899                           ; 1 bytes @ 0x9
   900                           
   901  0029                     conver@temporal:	
   902                           ; 1 bytes @ 0x9
   903                           
   904                           
   905                           ; 16 bytes @ 0x9
   906  0029                     	ds	1
   907  002A                     ??_I2C_Master_Write:
   908  002A                     ??_I2C_Master_Read:	
   909                           ; 1 bytes @ 0xA
   910                           
   911  002A                     Lcd_Write_Char@a:	
   912                           ; 1 bytes @ 0xA
   913                           
   914  002A                     num_ascii@num:	
   915                           ; 1 bytes @ 0xA
   916                           
   917  002A                     osc_config@freq:	
   918                           ; 1 bytes @ 0xA
   919                           
   920  002A                     ___awdiv@dividend:	
   921                           ; 1 bytes @ 0xA
   922                           
   923                           
   924                           ; 2 bytes @ 0xA
   925  002A                     	ds	1
   926  002B                     ??_Lcd_Write_String:
   927  002B                     ??_LECT1:	
   928                           ; 1 bytes @ 0xB
   929                           
   930  002B                     Lcd_Cmd@a:	
   931                           ; 1 bytes @ 0xB
   932                           
   933                           
   934                           ; 1 bytes @ 0xB
   935  002B                     	ds	1
   936  002C                     ??_Lcd_Init:
   937  002C                     ?_Lcd_Set_Cursor:	
   938                           ; 1 bytes @ 0xC
   939                           
   940  002C                     ??___awdiv:	
   941                           ; 1 bytes @ 0xC
   942                           
   943  002C                     Lcd_Set_Cursor@b:	
   944                           ; 1 bytes @ 0xC
   945                           
   946  002C                     Lcd_Write_String@i:	
   947                           ; 1 bytes @ 0xC
   948                           
   949  002C                     I2C_Master_Read@temp:	
   950                           ; 2 bytes @ 0xC
   951                           
   952  002C                     ___lldiv@dividend:	
   953                           ; 2 bytes @ 0xC
   954                           
   955                           
   956                           ; 4 bytes @ 0xC
   957  002C                     	ds	1
   958  002D                     ??_Lcd_Set_Cursor:
   959  002D                     ___awdiv@counter:	
   960                           ; 1 bytes @ 0xD
   961                           
   962                           
   963                           ; 1 bytes @ 0xD
   964  002D                     	ds	1
   965  002E                     Lcd_Set_Cursor@a:
   966  002E                     Lcd_Write_String@a:	
   967                           ; 1 bytes @ 0xE
   968                           
   969  002E                     ___awdiv@sign:	
   970                           ; 1 bytes @ 0xE
   971                           
   972                           
   973                           ; 1 bytes @ 0xE
   974  002E                     	ds	1
   975  002F                     Lcd_Set_Cursor@temp:
   976  002F                     ___awdiv@quotient:	
   977                           ; 1 bytes @ 0xF
   978                           
   979                           
   980                           ; 2 bytes @ 0xF
   981  002F                     	ds	1
   982  0030                     ??___lldiv:
   983                           
   984                           ; 1 bytes @ 0x10
   985  0030                     	ds	1
   986  0031                     ?___awmod:
   987  0031                     ___awmod@divisor:	
   988                           ; 2 bytes @ 0x11
   989                           
   990  0031                     ___lldiv@quotient:	
   991                           ; 2 bytes @ 0x11
   992                           
   993                           
   994                           ; 4 bytes @ 0x11
   995  0031                     	ds	2
   996  0033                     ___awmod@dividend:
   997                           
   998                           ; 2 bytes @ 0x13
   999  0033                     	ds	2
  1000  0035                     ??___awmod:
  1001  0035                     ___lldiv@counter:	
  1002                           ; 1 bytes @ 0x15
  1003                           
  1004                           
  1005                           ; 1 bytes @ 0x15
  1006  0035                     	ds	1
  1007  0036                     ?_I2C_Master_Init:
  1008  0036                     ___awmod@counter:	
  1009                           ; 1 bytes @ 0x16
  1010                           
  1011  0036                     I2C_Master_Init@c:	
  1012                           ; 1 bytes @ 0x16
  1013                           
  1014                           
  1015                           ; 4 bytes @ 0x16
  1016  0036                     	ds	1
  1017  0037                     ___awmod@sign:
  1018                           
  1019                           ; 1 bytes @ 0x17
  1020  0037                     	ds	1
  1021  0038                     ??_conver1:
  1022                           
  1023                           ; 1 bytes @ 0x18
  1024  0038                     	ds	2
  1025  003A                     ??_I2C_Master_Init:
  1026                           
  1027                           ; 1 bytes @ 0x1A
  1028  003A                     	ds	1
  1029  003B                     conver1@temporal:
  1030                           
  1031                           ; 16 bytes @ 0x1B
  1032  003B                     	ds	3
  1033  003E                     ??_setup:
  1034                           
  1035                           ; 1 bytes @ 0x1E
  1036  003E                     	ds	13
  1037  004B                     ??_main:
  1038                           
  1039                           ; 1 bytes @ 0x2B
  1040  004B                     	ds	2
  1041                           
  1042                           	psect	maintext
  1043  0020                     __pmaintext:	
  1044 ;;
  1045 ;;Main: autosize = 0, tempsize = 2, incstack = 0, save=0
  1046 ;;
  1047 ;; *************** function _main *****************
  1048 ;; Defined at:
  1049 ;;		line 89 in file "C:/Users/Andy Bonilla/Documents/GitHub/ED2/Proyecto1_ED2/PIC_maestro.X/main_mastre.c"
  1050 ;; Parameters:    Size  Location     Type
  1051 ;;		None
  1052 ;; Auto vars:     Size  Location     Type
  1053 ;;		None
  1054 ;; Return value:  Size  Location     Type
  1055 ;;                  1    wreg      void 
  1056 ;; Registers used:
  1057 ;;		wreg, fsr0l, fsr0h, status,2, status,0, pclath, cstack
  1058 ;; Tracked objects:
  1059 ;;		On entry : B00/0
  1060 ;;		On exit  : 0/0
  1061 ;;		Unchanged: 0/0
  1062 ;; Data sizes:     COMMON   BANK0   BANK1   BANK3   BANK2
  1063 ;;      Params:         0       0       0       0       0
  1064 ;;      Locals:         0       0       0       0       0
  1065 ;;      Temps:          0       2       0       0       0
  1066 ;;      Totals:         0       2       0       0       0
  1067 ;;Total ram usage:        2 bytes
  1068 ;; Hardware stack levels required when called: 6
  1069 ;; This function calls:
  1070 ;;		_I2C_Master_Read
  1071 ;;		_I2C_Master_Start
  1072 ;;		_I2C_Master_Stop
  1073 ;;		_I2C_Master_Write
  1074 ;;		_LECT1
  1075 ;;		_Lcd_Init
  1076 ;;		_Lcd_Set_Cursor
  1077 ;;		_Lcd_Write_String
  1078 ;;		_conver
  1079 ;;		_conver1
  1080 ;;		_setup
  1081 ;; This function is called by:
  1082 ;;		Startup code after reset
  1083 ;; This function uses a non-reentrant model
  1084 ;;
  1085                           
  1086                           
  1087                           ;psect for function _main
  1088  0020                     _main:
  1089  0020                     l2454:	
  1090                           ;incstack = 0
  1091                           ; Regs used in _main: [wreg-fsr0h+status,2+status,0+pclath+cstack]
  1092                           
  1093                           
  1094                           ;C:/Users/Andy Bonilla/Documents/GitHub/ED2/Proyecto1_ED2/PIC_maestro.X/main_mastre.c: 9
      +                          0:     setup();
  1095  0020  120A  118A  2224  120A  118A  	fcall	_setup
  1096  0025                     l2456:
  1097                           
  1098                           ;C:/Users/Andy Bonilla/Documents/GitHub/ED2/Proyecto1_ED2/PIC_maestro.X/main_mastre.c: 9
      +                          1:     Lcd_Init();
  1099  0025  120A  158A  25CB  120A  118A  	fcall	_Lcd_Init
  1100  002A                     l2458:
  1101                           
  1102                           ;C:/Users/Andy Bonilla/Documents/GitHub/ED2/Proyecto1_ED2/PIC_maestro.X/main_mastre.c: 9
      +                          4:         Lcd_Set_Cursor(1,1);
  1103  002A  1283               	bcf	3,5	;RP0=0, select bank0
  1104  002B  1303               	bcf	3,6	;RP1=0, select bank0
  1105  002C  01AC               	clrf	Lcd_Set_Cursor@b
  1106  002D  0AAC               	incf	Lcd_Set_Cursor@b,f
  1107  002E  3001               	movlw	1
  1108  002F  120A  158A  263E  120A  118A  	fcall	_Lcd_Set_Cursor
  1109                           
  1110                           ;C:/Users/Andy Bonilla/Documents/GitHub/ED2/Proyecto1_ED2/PIC_maestro.X/main_mastre.c: 9
      +                          5:         Lcd_Write_String(conver1());
  1111  0034  120A  118A  259B  120A  118A  	fcall	_conver1
  1112  0039  120A  158A  2619  120A  118A  	fcall	_Lcd_Write_String
  1113  003E                     l2460:
  1114                           
  1115                           ;C:/Users/Andy Bonilla/Documents/GitHub/ED2/Proyecto1_ED2/PIC_maestro.X/main_mastre.c: 9
      +                          6:         Lcd_Set_Cursor(2,1);
  1116  003E  1283               	bcf	3,5	;RP0=0, select bank0
  1117  003F  1303               	bcf	3,6	;RP1=0, select bank0
  1118  0040  01AC               	clrf	Lcd_Set_Cursor@b
  1119  0041  0AAC               	incf	Lcd_Set_Cursor@b,f
  1120  0042  3002               	movlw	2
  1121  0043  120A  158A  263E  120A  118A  	fcall	_Lcd_Set_Cursor
  1122  0048                     l2462:
  1123                           
  1124                           ;C:/Users/Andy Bonilla/Documents/GitHub/ED2/Proyecto1_ED2/PIC_maestro.X/main_mastre.c: 9
      +                          7:         Lcd_Write_String(conver());
  1125  0048  120A  118A  27AD  120A  118A  	fcall	_conver
  1126  004D  120A  158A  2619  120A  118A  	fcall	_Lcd_Write_String
  1127  0052                     l2464:
  1128                           
  1129                           ;C:/Users/Andy Bonilla/Documents/GitHub/ED2/Proyecto1_ED2/PIC_maestro.X/main_mastre.c: 9
      +                          8:         LECT1();
  1130  0052  120A  118A  23ED  120A  118A  	fcall	_LECT1
  1131  0057                     l2466:
  1132                           
  1133                           ;C:/Users/Andy Bonilla/Documents/GitHub/ED2/Proyecto1_ED2/PIC_maestro.X/main_mastre.c: 1
      +                          00:         I2C_Master_Start();
  1134  0057  120A  158A  2580  120A  118A  	fcall	_I2C_Master_Start
  1135  005C                     l2468:
  1136                           
  1137                           ;C:/Users/Andy Bonilla/Documents/GitHub/ED2/Proyecto1_ED2/PIC_maestro.X/main_mastre.c: 1
      +                          01:         I2C_Master_Write(0x50);
  1138  005C  3050               	movlw	80
  1139  005D  1283               	bcf	3,5	;RP0=0, select bank0
  1140  005E  1303               	bcf	3,6	;RP1=0, select bank0
  1141  005F  00A8               	movwf	I2C_Master_Write@d
  1142  0060  3000               	movlw	0
  1143  0061  00A9               	movwf	I2C_Master_Write@d+1
  1144  0062  120A  158A  2592  120A  118A  	fcall	_I2C_Master_Write
  1145  0067                     l2470:
  1146                           
  1147                           ;C:/Users/Andy Bonilla/Documents/GitHub/ED2/Proyecto1_ED2/PIC_maestro.X/main_mastre.c: 1
      +                          02:         I2C_Master_Write(0);
  1148  0067  3000               	movlw	0
  1149  0068  1283               	bcf	3,5	;RP0=0, select bank0
  1150  0069  1303               	bcf	3,6	;RP1=0, select bank0
  1151  006A  00A8               	movwf	I2C_Master_Write@d
  1152  006B  00A9               	movwf	I2C_Master_Write@d+1
  1153  006C  120A  158A  2592  120A  118A  	fcall	_I2C_Master_Write
  1154  0071                     l2472:
  1155                           
  1156                           ;C:/Users/Andy Bonilla/Documents/GitHub/ED2/Proyecto1_ED2/PIC_maestro.X/main_mastre.c: 1
      +                          03:         I2C_Master_Stop();
  1157  0071  120A  158A  2589  120A  118A  	fcall	_I2C_Master_Stop
  1158  0076                     l2474:
  1159                           
  1160                           ;C:/Users/Andy Bonilla/Documents/GitHub/ED2/Proyecto1_ED2/PIC_maestro.X/main_mastre.c: 1
      +                          04:         _delay((unsigned long)((10)*(8000000/4000.0)));
  1161  0076  301A               	movlw	26
  1162  0077  1283               	bcf	3,5	;RP0=0, select bank0
  1163  0078  1303               	bcf	3,6	;RP1=0, select bank0
  1164  0079  00CC               	movwf	??_main+1
  1165  007A  30F7               	movlw	247
  1166  007B  00CB               	movwf	??_main
  1167  007C                     u1497:
  1168  007C  0BCB               	decfsz	??_main,f
  1169  007D  287C               	goto	u1497
  1170  007E  0BCC               	decfsz	??_main+1,f
  1171  007F  287C               	goto	u1497
  1172  0080  2881               	nop2
  1173  0081                     l2476:
  1174                           
  1175                           ;C:/Users/Andy Bonilla/Documents/GitHub/ED2/Proyecto1_ED2/PIC_maestro.X/main_mastre.c: 1
      +                          06:         I2C_Master_Start();
  1176  0081  120A  158A  2580  120A  118A  	fcall	_I2C_Master_Start
  1177  0086                     l2478:
  1178                           
  1179                           ;C:/Users/Andy Bonilla/Documents/GitHub/ED2/Proyecto1_ED2/PIC_maestro.X/main_mastre.c: 1
      +                          07:         I2C_Master_Write(0x51);
  1180  0086  3051               	movlw	81
  1181  0087  1283               	bcf	3,5	;RP0=0, select bank0
  1182  0088  1303               	bcf	3,6	;RP1=0, select bank0
  1183  0089  00A8               	movwf	I2C_Master_Write@d
  1184  008A  3000               	movlw	0
  1185  008B  00A9               	movwf	I2C_Master_Write@d+1
  1186  008C  120A  158A  2592  120A  118A  	fcall	_I2C_Master_Write
  1187  0091                     l2480:
  1188                           
  1189                           ;C:/Users/Andy Bonilla/Documents/GitHub/ED2/Proyecto1_ED2/PIC_maestro.X/main_mastre.c: 1
      +                          08:         PARKH = I2C_Master_Read(0);
  1190  0091  3000               	movlw	0
  1191  0092  1283               	bcf	3,5	;RP0=0, select bank0
  1192  0093  1303               	bcf	3,6	;RP1=0, select bank0
  1193  0094  00A8               	movwf	I2C_Master_Read@a
  1194  0095  00A9               	movwf	I2C_Master_Read@a+1
  1195  0096  120A  158A  2664  120A  118A  	fcall	_I2C_Master_Read
  1196  009B  1283               	bcf	3,5	;RP0=0, select bank0
  1197  009C  1303               	bcf	3,6	;RP1=0, select bank0
  1198  009D  0828               	movf	?_I2C_Master_Read,w
  1199  009E  00CB               	movwf	??_main
  1200  009F  084B               	movf	??_main,w
  1201  00A0  00DE               	movwf	_PARKH
  1202  00A1                     l2482:
  1203                           
  1204                           ;C:/Users/Andy Bonilla/Documents/GitHub/ED2/Proyecto1_ED2/PIC_maestro.X/main_mastre.c: 1
      +                          09:         I2C_Master_Stop();
  1205  00A1  120A  158A  2589  120A  118A  	fcall	_I2C_Master_Stop
  1206  00A6                     l2484:
  1207                           
  1208                           ;C:/Users/Andy Bonilla/Documents/GitHub/ED2/Proyecto1_ED2/PIC_maestro.X/main_mastre.c: 1
      +                          10:         _delay((unsigned long)((10)*(8000000/4000.0)));
  1209  00A6  301A               	movlw	26
  1210  00A7  1283               	bcf	3,5	;RP0=0, select bank0
  1211  00A8  1303               	bcf	3,6	;RP1=0, select bank0
  1212  00A9  00CC               	movwf	??_main+1
  1213  00AA  30F7               	movlw	247
  1214  00AB  00CB               	movwf	??_main
  1215  00AC                     u1507:
  1216  00AC  0BCB               	decfsz	??_main,f
  1217  00AD  28AC               	goto	u1507
  1218  00AE  0BCC               	decfsz	??_main+1,f
  1219  00AF  28AC               	goto	u1507
  1220  00B0  28B1               	nop2
  1221  00B1                     l2486:
  1222                           
  1223                           ;C:/Users/Andy Bonilla/Documents/GitHub/ED2/Proyecto1_ED2/PIC_maestro.X/main_mastre.c: 1
      +                          12:         I2C_Master_Start();
  1224  00B1  120A  158A  2580  120A  118A  	fcall	_I2C_Master_Start
  1225  00B6                     l2488:
  1226                           
  1227                           ;C:/Users/Andy Bonilla/Documents/GitHub/ED2/Proyecto1_ED2/PIC_maestro.X/main_mastre.c: 1
      +                          13:         I2C_Master_Write(0x60);
  1228  00B6  3060               	movlw	96
  1229  00B7  1283               	bcf	3,5	;RP0=0, select bank0
  1230  00B8  1303               	bcf	3,6	;RP1=0, select bank0
  1231  00B9  00A8               	movwf	I2C_Master_Write@d
  1232  00BA  3000               	movlw	0
  1233  00BB  00A9               	movwf	I2C_Master_Write@d+1
  1234  00BC  120A  158A  2592  120A  118A  	fcall	_I2C_Master_Write
  1235  00C1                     l2490:
  1236                           
  1237                           ;C:/Users/Andy Bonilla/Documents/GitHub/ED2/Proyecto1_ED2/PIC_maestro.X/main_mastre.c: 1
      +                          14:         I2C_Master_Write(CERRADO);
  1238  00C1  1283               	bcf	3,5	;RP0=0, select bank0
  1239  00C2  1303               	bcf	3,6	;RP1=0, select bank0
  1240  00C3  0850               	movf	_CERRADO,w
  1241  00C4  00CB               	movwf	??_main
  1242  00C5  01CC               	clrf	??_main+1
  1243  00C6  084B               	movf	??_main,w
  1244  00C7  00A8               	movwf	I2C_Master_Write@d
  1245  00C8  084C               	movf	??_main+1,w
  1246  00C9  00A9               	movwf	I2C_Master_Write@d+1
  1247  00CA  120A  158A  2592  120A  118A  	fcall	_I2C_Master_Write
  1248  00CF                     l2492:
  1249                           
  1250                           ;C:/Users/Andy Bonilla/Documents/GitHub/ED2/Proyecto1_ED2/PIC_maestro.X/main_mastre.c: 1
      +                          15:         I2C_Master_Stop();
  1251  00CF  120A  158A  2589  120A  118A  	fcall	_I2C_Master_Stop
  1252  00D4                     l2494:
  1253                           
  1254                           ;C:/Users/Andy Bonilla/Documents/GitHub/ED2/Proyecto1_ED2/PIC_maestro.X/main_mastre.c: 1
      +                          16:         _delay((unsigned long)((10)*(8000000/4000.0)));
  1255  00D4  301A               	movlw	26
  1256  00D5  1283               	bcf	3,5	;RP0=0, select bank0
  1257  00D6  1303               	bcf	3,6	;RP1=0, select bank0
  1258  00D7  00CC               	movwf	??_main+1
  1259  00D8  30F7               	movlw	247
  1260  00D9  00CB               	movwf	??_main
  1261  00DA                     u1517:
  1262  00DA  0BCB               	decfsz	??_main,f
  1263  00DB  28DA               	goto	u1517
  1264  00DC  0BCC               	decfsz	??_main+1,f
  1265  00DD  28DA               	goto	u1517
  1266  00DE  28DF               	nop2
  1267  00DF                     l2496:
  1268                           
  1269                           ;C:/Users/Andy Bonilla/Documents/GitHub/ED2/Proyecto1_ED2/PIC_maestro.X/main_mastre.c: 1
      +                          18:         I2C_Master_Start();
  1270  00DF  120A  158A  2580  120A  118A  	fcall	_I2C_Master_Start
  1271  00E4                     l2498:
  1272                           
  1273                           ;C:/Users/Andy Bonilla/Documents/GitHub/ED2/Proyecto1_ED2/PIC_maestro.X/main_mastre.c: 1
      +                          19:         I2C_Master_Write(0x61);
  1274  00E4  3061               	movlw	97
  1275  00E5  1283               	bcf	3,5	;RP0=0, select bank0
  1276  00E6  1303               	bcf	3,6	;RP1=0, select bank0
  1277  00E7  00A8               	movwf	I2C_Master_Write@d
  1278  00E8  3000               	movlw	0
  1279  00E9  00A9               	movwf	I2C_Master_Write@d+1
  1280  00EA  120A  158A  2592  120A  118A  	fcall	_I2C_Master_Write
  1281  00EF                     l2500:
  1282                           
  1283                           ;C:/Users/Andy Bonilla/Documents/GitHub/ED2/Proyecto1_ED2/PIC_maestro.X/main_mastre.c: 1
      +                          20:         temperatura = I2C_Master_Read(0);
  1284  00EF  3000               	movlw	0
  1285  00F0  1283               	bcf	3,5	;RP0=0, select bank0
  1286  00F1  1303               	bcf	3,6	;RP1=0, select bank0
  1287  00F2  00A8               	movwf	I2C_Master_Read@a
  1288  00F3  00A9               	movwf	I2C_Master_Read@a+1
  1289  00F4  120A  158A  2664  120A  118A  	fcall	_I2C_Master_Read
  1290  00F9  1283               	bcf	3,5	;RP0=0, select bank0
  1291  00FA  1303               	bcf	3,6	;RP1=0, select bank0
  1292  00FB  0828               	movf	?_I2C_Master_Read,w
  1293  00FC  00CB               	movwf	??_main
  1294  00FD  084B               	movf	??_main,w
  1295  00FE  00CE               	movwf	_temperatura
  1296  00FF                     l2502:
  1297                           
  1298                           ;C:/Users/Andy Bonilla/Documents/GitHub/ED2/Proyecto1_ED2/PIC_maestro.X/main_mastre.c: 1
      +                          21:         I2C_Master_Stop();
  1299  00FF  120A  158A  2589  120A  118A  	fcall	_I2C_Master_Stop
  1300  0104                     l2504:
  1301                           
  1302                           ;C:/Users/Andy Bonilla/Documents/GitHub/ED2/Proyecto1_ED2/PIC_maestro.X/main_mastre.c: 1
      +                          22:         _delay((unsigned long)((10)*(8000000/4000.0)));
  1303  0104  301A               	movlw	26
  1304  0105  1283               	bcf	3,5	;RP0=0, select bank0
  1305  0106  1303               	bcf	3,6	;RP1=0, select bank0
  1306  0107  00CC               	movwf	??_main+1
  1307  0108  30F7               	movlw	247
  1308  0109  00CB               	movwf	??_main
  1309  010A                     u1527:
  1310  010A  0BCB               	decfsz	??_main,f
  1311  010B  290A               	goto	u1527
  1312  010C  0BCC               	decfsz	??_main+1,f
  1313  010D  290A               	goto	u1527
  1314  010E  290F               	nop2
  1315  010F                     l2506:
  1316                           
  1317                           ;C:/Users/Andy Bonilla/Documents/GitHub/ED2/Proyecto1_ED2/PIC_maestro.X/main_mastre.c: 1
      +                          24:         I2C_Master_Start();
  1318  010F  120A  158A  2580  120A  118A  	fcall	_I2C_Master_Start
  1319  0114                     l2508:
  1320                           
  1321                           ;C:/Users/Andy Bonilla/Documents/GitHub/ED2/Proyecto1_ED2/PIC_maestro.X/main_mastre.c: 1
      +                          25:         I2C_Master_Write(0xD0);
  1322  0114  30D0               	movlw	208
  1323  0115  1283               	bcf	3,5	;RP0=0, select bank0
  1324  0116  1303               	bcf	3,6	;RP1=0, select bank0
  1325  0117  00A8               	movwf	I2C_Master_Write@d
  1326  0118  3000               	movlw	0
  1327  0119  00A9               	movwf	I2C_Master_Write@d+1
  1328  011A  120A  158A  2592  120A  118A  	fcall	_I2C_Master_Write
  1329  011F                     l2510:
  1330                           
  1331                           ;C:/Users/Andy Bonilla/Documents/GitHub/ED2/Proyecto1_ED2/PIC_maestro.X/main_mastre.c: 1
      +                          26:         I2C_Master_Write(0x02);
  1332  011F  3002               	movlw	2
  1333  0120  1283               	bcf	3,5	;RP0=0, select bank0
  1334  0121  1303               	bcf	3,6	;RP1=0, select bank0
  1335  0122  00A8               	movwf	I2C_Master_Write@d
  1336  0123  3000               	movlw	0
  1337  0124  00A9               	movwf	I2C_Master_Write@d+1
  1338  0125  120A  158A  2592  120A  118A  	fcall	_I2C_Master_Write
  1339  012A                     l2512:
  1340                           
  1341                           ;C:/Users/Andy Bonilla/Documents/GitHub/ED2/Proyecto1_ED2/PIC_maestro.X/main_mastre.c: 1
      +                          27:         I2C_Master_Stop();
  1342  012A  120A  158A  2589  120A  118A  	fcall	_I2C_Master_Stop
  1343  012F                     l2514:
  1344                           
  1345                           ;C:/Users/Andy Bonilla/Documents/GitHub/ED2/Proyecto1_ED2/PIC_maestro.X/main_mastre.c: 1
      +                          28:         _delay((unsigned long)((10)*(8000000/4000.0)));
  1346  012F  301A               	movlw	26
  1347  0130  1283               	bcf	3,5	;RP0=0, select bank0
  1348  0131  1303               	bcf	3,6	;RP1=0, select bank0
  1349  0132  00CC               	movwf	??_main+1
  1350  0133  30F7               	movlw	247
  1351  0134  00CB               	movwf	??_main
  1352  0135                     u1537:
  1353  0135  0BCB               	decfsz	??_main,f
  1354  0136  2935               	goto	u1537
  1355  0137  0BCC               	decfsz	??_main+1,f
  1356  0138  2935               	goto	u1537
  1357  0139  293A               	nop2
  1358  013A                     l2516:
  1359                           
  1360                           ;C:/Users/Andy Bonilla/Documents/GitHub/ED2/Proyecto1_ED2/PIC_maestro.X/main_mastre.c: 1
      +                          30:         I2C_Master_Start();
  1361  013A  120A  158A  2580  120A  118A  	fcall	_I2C_Master_Start
  1362  013F                     l2518:
  1363                           
  1364                           ;C:/Users/Andy Bonilla/Documents/GitHub/ED2/Proyecto1_ED2/PIC_maestro.X/main_mastre.c: 1
      +                          31:         I2C_Master_Write(0xD1);
  1365  013F  30D1               	movlw	209
  1366  0140  1283               	bcf	3,5	;RP0=0, select bank0
  1367  0141  1303               	bcf	3,6	;RP1=0, select bank0
  1368  0142  00A8               	movwf	I2C_Master_Write@d
  1369  0143  3000               	movlw	0
  1370  0144  00A9               	movwf	I2C_Master_Write@d+1
  1371  0145  120A  158A  2592  120A  118A  	fcall	_I2C_Master_Write
  1372  014A                     l2520:
  1373                           
  1374                           ;C:/Users/Andy Bonilla/Documents/GitHub/ED2/Proyecto1_ED2/PIC_maestro.X/main_mastre.c: 1
      +                          32:         HORA = I2C_Master_Read(0);
  1375  014A  3000               	movlw	0
  1376  014B  1283               	bcf	3,5	;RP0=0, select bank0
  1377  014C  1303               	bcf	3,6	;RP1=0, select bank0
  1378  014D  00A8               	movwf	I2C_Master_Read@a
  1379  014E  00A9               	movwf	I2C_Master_Read@a+1
  1380  014F  120A  158A  2664  120A  118A  	fcall	_I2C_Master_Read
  1381  0154  1283               	bcf	3,5	;RP0=0, select bank0
  1382  0155  1303               	bcf	3,6	;RP1=0, select bank0
  1383  0156  0828               	movf	?_I2C_Master_Read,w
  1384  0157  00CB               	movwf	??_main
  1385  0158  084B               	movf	??_main,w
  1386  0159  00DA               	movwf	_HORA
  1387  015A                     l2522:
  1388                           
  1389                           ;C:/Users/Andy Bonilla/Documents/GitHub/ED2/Proyecto1_ED2/PIC_maestro.X/main_mastre.c: 1
      +                          33:         I2C_Master_Stop();
  1390  015A  120A  158A  2589  120A  118A  	fcall	_I2C_Master_Stop
  1391  015F                     l2524:
  1392                           
  1393                           ;C:/Users/Andy Bonilla/Documents/GitHub/ED2/Proyecto1_ED2/PIC_maestro.X/main_mastre.c: 1
      +                          34:         _delay((unsigned long)((10)*(8000000/4000.0)));
  1394  015F  301A               	movlw	26
  1395  0160  1283               	bcf	3,5	;RP0=0, select bank0
  1396  0161  1303               	bcf	3,6	;RP1=0, select bank0
  1397  0162  00CC               	movwf	??_main+1
  1398  0163  30F7               	movlw	247
  1399  0164  00CB               	movwf	??_main
  1400  0165                     u1547:
  1401  0165  0BCB               	decfsz	??_main,f
  1402  0166  2965               	goto	u1547
  1403  0167  0BCC               	decfsz	??_main+1,f
  1404  0168  2965               	goto	u1547
  1405  0169  296A               	nop2
  1406  016A                     l2526:
  1407                           
  1408                           ;C:/Users/Andy Bonilla/Documents/GitHub/ED2/Proyecto1_ED2/PIC_maestro.X/main_mastre.c: 1
      +                          36:         I2C_Master_Start();
  1409  016A  120A  158A  2580  120A  118A  	fcall	_I2C_Master_Start
  1410  016F                     l2528:
  1411                           
  1412                           ;C:/Users/Andy Bonilla/Documents/GitHub/ED2/Proyecto1_ED2/PIC_maestro.X/main_mastre.c: 1
      +                          37:         I2C_Master_Write(0xD0);
  1413  016F  30D0               	movlw	208
  1414  0170  1283               	bcf	3,5	;RP0=0, select bank0
  1415  0171  1303               	bcf	3,6	;RP1=0, select bank0
  1416  0172  00A8               	movwf	I2C_Master_Write@d
  1417  0173  3000               	movlw	0
  1418  0174  00A9               	movwf	I2C_Master_Write@d+1
  1419  0175  120A  158A  2592  120A  118A  	fcall	_I2C_Master_Write
  1420  017A                     l2530:
  1421                           
  1422                           ;C:/Users/Andy Bonilla/Documents/GitHub/ED2/Proyecto1_ED2/PIC_maestro.X/main_mastre.c: 1
      +                          38:         I2C_Master_Write(0x03);
  1423  017A  3003               	movlw	3
  1424  017B  1283               	bcf	3,5	;RP0=0, select bank0
  1425  017C  1303               	bcf	3,6	;RP1=0, select bank0
  1426  017D  00A8               	movwf	I2C_Master_Write@d
  1427  017E  3000               	movlw	0
  1428  017F  00A9               	movwf	I2C_Master_Write@d+1
  1429  0180  120A  158A  2592  120A  118A  	fcall	_I2C_Master_Write
  1430  0185                     l2532:
  1431                           
  1432                           ;C:/Users/Andy Bonilla/Documents/GitHub/ED2/Proyecto1_ED2/PIC_maestro.X/main_mastre.c: 1
      +                          39:         I2C_Master_Stop();
  1433  0185  120A  158A  2589  120A  118A  	fcall	_I2C_Master_Stop
  1434  018A                     l2534:
  1435                           
  1436                           ;C:/Users/Andy Bonilla/Documents/GitHub/ED2/Proyecto1_ED2/PIC_maestro.X/main_mastre.c: 1
      +                          40:         _delay((unsigned long)((10)*(8000000/4000.0)));
  1437  018A  301A               	movlw	26
  1438  018B  1283               	bcf	3,5	;RP0=0, select bank0
  1439  018C  1303               	bcf	3,6	;RP1=0, select bank0
  1440  018D  00CC               	movwf	??_main+1
  1441  018E  30F7               	movlw	247
  1442  018F  00CB               	movwf	??_main
  1443  0190                     u1557:
  1444  0190  0BCB               	decfsz	??_main,f
  1445  0191  2990               	goto	u1557
  1446  0192  0BCC               	decfsz	??_main+1,f
  1447  0193  2990               	goto	u1557
  1448  0194  2995               	nop2
  1449  0195                     l2536:
  1450                           
  1451                           ;C:/Users/Andy Bonilla/Documents/GitHub/ED2/Proyecto1_ED2/PIC_maestro.X/main_mastre.c: 1
      +                          42:         I2C_Master_Start();
  1452  0195  120A  158A  2580  120A  118A  	fcall	_I2C_Master_Start
  1453  019A                     l2538:
  1454                           
  1455                           ;C:/Users/Andy Bonilla/Documents/GitHub/ED2/Proyecto1_ED2/PIC_maestro.X/main_mastre.c: 1
      +                          43:         I2C_Master_Write(0xD1);
  1456  019A  30D1               	movlw	209
  1457  019B  1283               	bcf	3,5	;RP0=0, select bank0
  1458  019C  1303               	bcf	3,6	;RP1=0, select bank0
  1459  019D  00A8               	movwf	I2C_Master_Write@d
  1460  019E  3000               	movlw	0
  1461  019F  00A9               	movwf	I2C_Master_Write@d+1
  1462  01A0  120A  158A  2592  120A  118A  	fcall	_I2C_Master_Write
  1463  01A5                     l2540:
  1464                           
  1465                           ;C:/Users/Andy Bonilla/Documents/GitHub/ED2/Proyecto1_ED2/PIC_maestro.X/main_mastre.c: 1
      +                          44:         DIA = I2C_Master_Read(0);
  1466  01A5  3000               	movlw	0
  1467  01A6  1283               	bcf	3,5	;RP0=0, select bank0
  1468  01A7  1303               	bcf	3,6	;RP1=0, select bank0
  1469  01A8  00A8               	movwf	I2C_Master_Read@a
  1470  01A9  00A9               	movwf	I2C_Master_Read@a+1
  1471  01AA  120A  158A  2664  120A  118A  	fcall	_I2C_Master_Read
  1472  01AF  1283               	bcf	3,5	;RP0=0, select bank0
  1473  01B0  1303               	bcf	3,6	;RP1=0, select bank0
  1474  01B1  0828               	movf	?_I2C_Master_Read,w
  1475  01B2  00CB               	movwf	??_main
  1476  01B3  084B               	movf	??_main,w
  1477  01B4  00DB               	movwf	_DIA
  1478  01B5                     l2542:
  1479                           
  1480                           ;C:/Users/Andy Bonilla/Documents/GitHub/ED2/Proyecto1_ED2/PIC_maestro.X/main_mastre.c: 1
      +                          45:         I2C_Master_Stop();
  1481  01B5  120A  158A  2589  120A  118A  	fcall	_I2C_Master_Stop
  1482  01BA                     l2544:
  1483                           
  1484                           ;C:/Users/Andy Bonilla/Documents/GitHub/ED2/Proyecto1_ED2/PIC_maestro.X/main_mastre.c: 1
      +                          46:         _delay((unsigned long)((10)*(8000000/4000.0)));
  1485  01BA  301A               	movlw	26
  1486  01BB  1283               	bcf	3,5	;RP0=0, select bank0
  1487  01BC  1303               	bcf	3,6	;RP1=0, select bank0
  1488  01BD  00CC               	movwf	??_main+1
  1489  01BE  30F7               	movlw	247
  1490  01BF  00CB               	movwf	??_main
  1491  01C0                     u1567:
  1492  01C0  0BCB               	decfsz	??_main,f
  1493  01C1  29C0               	goto	u1567
  1494  01C2  0BCC               	decfsz	??_main+1,f
  1495  01C3  29C0               	goto	u1567
  1496  01C4  29C5               	nop2
  1497  01C5                     l2546:
  1498                           
  1499                           ;C:/Users/Andy Bonilla/Documents/GitHub/ED2/Proyecto1_ED2/PIC_maestro.X/main_mastre.c: 1
      +                          48:         I2C_Master_Start();
  1500  01C5  120A  158A  2580  120A  118A  	fcall	_I2C_Master_Start
  1501  01CA                     l2548:
  1502                           
  1503                           ;C:/Users/Andy Bonilla/Documents/GitHub/ED2/Proyecto1_ED2/PIC_maestro.X/main_mastre.c: 1
      +                          49:         I2C_Master_Write(0xD0);
  1504  01CA  30D0               	movlw	208
  1505  01CB  1283               	bcf	3,5	;RP0=0, select bank0
  1506  01CC  1303               	bcf	3,6	;RP1=0, select bank0
  1507  01CD  00A8               	movwf	I2C_Master_Write@d
  1508  01CE  3000               	movlw	0
  1509  01CF  00A9               	movwf	I2C_Master_Write@d+1
  1510  01D0  120A  158A  2592  120A  118A  	fcall	_I2C_Master_Write
  1511  01D5                     l2550:
  1512                           
  1513                           ;C:/Users/Andy Bonilla/Documents/GitHub/ED2/Proyecto1_ED2/PIC_maestro.X/main_mastre.c: 1
      +                          50:         I2C_Master_Write(0x01);
  1514  01D5  3001               	movlw	1
  1515  01D6  1283               	bcf	3,5	;RP0=0, select bank0
  1516  01D7  1303               	bcf	3,6	;RP1=0, select bank0
  1517  01D8  00A8               	movwf	I2C_Master_Write@d
  1518  01D9  3000               	movlw	0
  1519  01DA  00A9               	movwf	I2C_Master_Write@d+1
  1520  01DB  120A  158A  2592  120A  118A  	fcall	_I2C_Master_Write
  1521  01E0                     l2552:
  1522                           
  1523                           ;C:/Users/Andy Bonilla/Documents/GitHub/ED2/Proyecto1_ED2/PIC_maestro.X/main_mastre.c: 1
      +                          51:         I2C_Master_Stop();
  1524  01E0  120A  158A  2589  120A  118A  	fcall	_I2C_Master_Stop
  1525  01E5                     l2554:
  1526                           
  1527                           ;C:/Users/Andy Bonilla/Documents/GitHub/ED2/Proyecto1_ED2/PIC_maestro.X/main_mastre.c: 1
      +                          52:         _delay((unsigned long)((10)*(8000000/4000.0)));
  1528  01E5  301A               	movlw	26
  1529  01E6  1283               	bcf	3,5	;RP0=0, select bank0
  1530  01E7  1303               	bcf	3,6	;RP1=0, select bank0
  1531  01E8  00CC               	movwf	??_main+1
  1532  01E9  30F7               	movlw	247
  1533  01EA  00CB               	movwf	??_main
  1534  01EB                     u1577:
  1535  01EB  0BCB               	decfsz	??_main,f
  1536  01EC  29EB               	goto	u1577
  1537  01ED  0BCC               	decfsz	??_main+1,f
  1538  01EE  29EB               	goto	u1577
  1539  01EF  29F0               	nop2
  1540  01F0                     l2556:
  1541                           
  1542                           ;C:/Users/Andy Bonilla/Documents/GitHub/ED2/Proyecto1_ED2/PIC_maestro.X/main_mastre.c: 1
      +                          54:         I2C_Master_Start();
  1543  01F0  120A  158A  2580  120A  118A  	fcall	_I2C_Master_Start
  1544  01F5                     l2558:
  1545                           
  1546                           ;C:/Users/Andy Bonilla/Documents/GitHub/ED2/Proyecto1_ED2/PIC_maestro.X/main_mastre.c: 1
      +                          55:         I2C_Master_Write(0xD1);
  1547  01F5  30D1               	movlw	209
  1548  01F6  1283               	bcf	3,5	;RP0=0, select bank0
  1549  01F7  1303               	bcf	3,6	;RP1=0, select bank0
  1550  01F8  00A8               	movwf	I2C_Master_Write@d
  1551  01F9  3000               	movlw	0
  1552  01FA  00A9               	movwf	I2C_Master_Write@d+1
  1553  01FB  120A  158A  2592  120A  118A  	fcall	_I2C_Master_Write
  1554  0200                     l2560:
  1555                           
  1556                           ;C:/Users/Andy Bonilla/Documents/GitHub/ED2/Proyecto1_ED2/PIC_maestro.X/main_mastre.c: 1
      +                          56:         MIN = I2C_Master_Read(0);
  1557  0200  3000               	movlw	0
  1558  0201  1283               	bcf	3,5	;RP0=0, select bank0
  1559  0202  1303               	bcf	3,6	;RP1=0, select bank0
  1560  0203  00A8               	movwf	I2C_Master_Read@a
  1561  0204  00A9               	movwf	I2C_Master_Read@a+1
  1562  0205  120A  158A  2664  120A  118A  	fcall	_I2C_Master_Read
  1563  020A  1283               	bcf	3,5	;RP0=0, select bank0
  1564  020B  1303               	bcf	3,6	;RP1=0, select bank0
  1565  020C  0828               	movf	?_I2C_Master_Read,w
  1566  020D  00CB               	movwf	??_main
  1567  020E  084B               	movf	??_main,w
  1568  020F  00D9               	movwf	_MIN
  1569  0210                     l2562:
  1570                           
  1571                           ;C:/Users/Andy Bonilla/Documents/GitHub/ED2/Proyecto1_ED2/PIC_maestro.X/main_mastre.c: 1
      +                          57:         I2C_Master_Stop();
  1572  0210  120A  158A  2589  120A  118A  	fcall	_I2C_Master_Stop
  1573  0215                     l2564:
  1574                           
  1575                           ;C:/Users/Andy Bonilla/Documents/GitHub/ED2/Proyecto1_ED2/PIC_maestro.X/main_mastre.c: 1
      +                          58:         _delay((unsigned long)((10)*(8000000/4000.0)));
  1576  0215  301A               	movlw	26
  1577  0216  1283               	bcf	3,5	;RP0=0, select bank0
  1578  0217  1303               	bcf	3,6	;RP1=0, select bank0
  1579  0218  00CC               	movwf	??_main+1
  1580  0219  30F7               	movlw	247
  1581  021A  00CB               	movwf	??_main
  1582  021B                     u1587:
  1583  021B  0BCB               	decfsz	??_main,f
  1584  021C  2A1B               	goto	u1587
  1585  021D  0BCC               	decfsz	??_main+1,f
  1586  021E  2A1B               	goto	u1587
  1587  021F  2A20               	nop2
  1588  0220  282A               	goto	l2458
  1589  0221  120A  118A  2810   	ljmp	start
  1590  0224                     __end_of_main:
  1591                           
  1592                           	psect	text1
  1593  0224                     __ptext1:	
  1594 ;; *************** function _setup *****************
  1595 ;; Defined at:
  1596 ;;		line 166 in file "C:/Users/Andy Bonilla/Documents/GitHub/ED2/Proyecto1_ED2/PIC_maestro.X/main_mastre.c"
  1597 ;; Parameters:    Size  Location     Type
  1598 ;;		None
  1599 ;; Auto vars:     Size  Location     Type
  1600 ;;		None
  1601 ;; Return value:  Size  Location     Type
  1602 ;;                  1    wreg      void 
  1603 ;; Registers used:
  1604 ;;		wreg, fsr0l, fsr0h, status,2, status,0, pclath, cstack
  1605 ;; Tracked objects:
  1606 ;;		On entry : 0/0
  1607 ;;		On exit  : 0/0
  1608 ;;		Unchanged: 0/0
  1609 ;; Data sizes:     COMMON   BANK0   BANK1   BANK3   BANK2
  1610 ;;      Params:         0       0       0       0       0
  1611 ;;      Locals:         0       0       0       0       0
  1612 ;;      Temps:          0       2       0       0       0
  1613 ;;      Totals:         0       2       0       0       0
  1614 ;;Total ram usage:        2 bytes
  1615 ;; Hardware stack levels used: 1
  1616 ;; Hardware stack levels required when called: 5
  1617 ;; This function calls:
  1618 ;;		_I2C_Master_Init
  1619 ;;		_I2C_Master_Read
  1620 ;;		_I2C_Master_Start
  1621 ;;		_I2C_Master_Stop
  1622 ;;		_I2C_Master_Write
  1623 ;;		_osc_config
  1624 ;;		_uart_config
  1625 ;; This function is called by:
  1626 ;;		_main
  1627 ;; This function uses a non-reentrant model
  1628 ;;
  1629                           
  1630                           
  1631                           ;psect for function _setup
  1632  0224                     _setup:
  1633  0224                     l2184:	
  1634                           ;incstack = 0
  1635                           ; Regs used in _setup: [wreg-fsr0h+status,2+status,0+pclath+cstack]
  1636                           
  1637                           
  1638                           ;C:/Users/Andy Bonilla/Documents/GitHub/ED2/Proyecto1_ED2/PIC_maestro.X/main_mastre.c: 1
      +                          67:     ANSEL = 0;
  1639  0224  1683               	bsf	3,5	;RP0=1, select bank3
  1640  0225  1703               	bsf	3,6	;RP1=1, select bank3
  1641  0226  0188               	clrf	8	;volatile
  1642                           
  1643                           ;C:/Users/Andy Bonilla/Documents/GitHub/ED2/Proyecto1_ED2/PIC_maestro.X/main_mastre.c: 1
      +                          68:     ANSELH = 0;
  1644  0227  0189               	clrf	9	;volatile
  1645                           
  1646                           ;C:/Users/Andy Bonilla/Documents/GitHub/ED2/Proyecto1_ED2/PIC_maestro.X/main_mastre.c: 1
      +                          69:     TRISA = 0;
  1647  0228  1683               	bsf	3,5	;RP0=1, select bank1
  1648  0229  1303               	bcf	3,6	;RP1=0, select bank1
  1649  022A  0185               	clrf	5	;volatile
  1650                           
  1651                           ;C:/Users/Andy Bonilla/Documents/GitHub/ED2/Proyecto1_ED2/PIC_maestro.X/main_mastre.c: 1
      +                          70:     TRISB = 0;
  1652  022B  0186               	clrf	6	;volatile
  1653                           
  1654                           ;C:/Users/Andy Bonilla/Documents/GitHub/ED2/Proyecto1_ED2/PIC_maestro.X/main_mastre.c: 1
      +                          71:     TRISD = 0;
  1655  022C  0188               	clrf	8	;volatile
  1656                           
  1657                           ;C:/Users/Andy Bonilla/Documents/GitHub/ED2/Proyecto1_ED2/PIC_maestro.X/main_mastre.c: 1
      +                          72:     TRISE = 0;
  1658  022D  0189               	clrf	9	;volatile
  1659                           
  1660                           ;C:/Users/Andy Bonilla/Documents/GitHub/ED2/Proyecto1_ED2/PIC_maestro.X/main_mastre.c: 1
      +                          73:     PORTA = 0;
  1661  022E  1283               	bcf	3,5	;RP0=0, select bank0
  1662  022F  1303               	bcf	3,6	;RP1=0, select bank0
  1663  0230  0185               	clrf	5	;volatile
  1664                           
  1665                           ;C:/Users/Andy Bonilla/Documents/GitHub/ED2/Proyecto1_ED2/PIC_maestro.X/main_mastre.c: 1
      +                          74:     PORTB = 0;
  1666  0231  0186               	clrf	6	;volatile
  1667                           
  1668                           ;C:/Users/Andy Bonilla/Documents/GitHub/ED2/Proyecto1_ED2/PIC_maestro.X/main_mastre.c: 1
      +                          75:     PORTD = 0;
  1669  0232  0188               	clrf	8	;volatile
  1670  0233                     l2186:
  1671                           
  1672                           ;C:/Users/Andy Bonilla/Documents/GitHub/ED2/Proyecto1_ED2/PIC_maestro.X/main_mastre.c: 1
      +                          76:     osc_config(8);
  1673  0233  3008               	movlw	8
  1674  0234  120A  158A  2696  120A  118A  	fcall	_osc_config
  1675  0239                     l2188:
  1676                           
  1677                           ;C:/Users/Andy Bonilla/Documents/GitHub/ED2/Proyecto1_ED2/PIC_maestro.X/main_mastre.c: 1
      +                          77:     uart_config();
  1678  0239  120A  158A  259C  120A  118A  	fcall	_uart_config
  1679  023E                     l2190:
  1680                           
  1681                           ;C:/Users/Andy Bonilla/Documents/GitHub/ED2/Proyecto1_ED2/PIC_maestro.X/main_mastre.c: 1
      +                          78:     I2C_Master_Init(100000);
  1682  023E  3000               	movlw	0
  1683  023F  1283               	bcf	3,5	;RP0=0, select bank0
  1684  0240  1303               	bcf	3,6	;RP1=0, select bank0
  1685  0241  00B9               	movwf	I2C_Master_Init@c+3
  1686  0242  3001               	movlw	1
  1687  0243  00B8               	movwf	I2C_Master_Init@c+2
  1688  0244  3086               	movlw	134
  1689  0245  00B7               	movwf	I2C_Master_Init@c+1
  1690  0246  30A0               	movlw	160
  1691  0247  00B6               	movwf	I2C_Master_Init@c
  1692  0248  120A  158A  26CF  120A  118A  	fcall	_I2C_Master_Init
  1693  024D                     l2192:
  1694                           
  1695                           ;C:/Users/Andy Bonilla/Documents/GitHub/ED2/Proyecto1_ED2/PIC_maestro.X/main_mastre.c: 1
      +                          80:     INTCONbits.GIE=1;
  1696  024D  178B               	bsf	11,7	;volatile
  1697  024E                     l2194:
  1698                           
  1699                           ;C:/Users/Andy Bonilla/Documents/GitHub/ED2/Proyecto1_ED2/PIC_maestro.X/main_mastre.c: 1
      +                          81:     INTCONbits.PEIE=1;
  1700  024E  170B               	bsf	11,6	;volatile
  1701  024F                     l2196:
  1702                           
  1703                           ;C:/Users/Andy Bonilla/Documents/GitHub/ED2/Proyecto1_ED2/PIC_maestro.X/main_mastre.c: 1
      +                          82:     PIE1bits.TXIE=1;
  1704  024F  1683               	bsf	3,5	;RP0=1, select bank1
  1705  0250  1303               	bcf	3,6	;RP1=0, select bank1
  1706  0251  160C               	bsf	12,4	;volatile
  1707  0252                     l2198:
  1708                           
  1709                           ;C:/Users/Andy Bonilla/Documents/GitHub/ED2/Proyecto1_ED2/PIC_maestro.X/main_mastre.c: 1
      +                          83:     PIR1bits.TXIF=0;
  1710  0252  1283               	bcf	3,5	;RP0=0, select bank0
  1711  0253  1303               	bcf	3,6	;RP1=0, select bank0
  1712  0254  120C               	bcf	12,4	;volatile
  1713  0255                     l2200:
  1714                           
  1715                           ;C:/Users/Andy Bonilla/Documents/GitHub/ED2/Proyecto1_ED2/PIC_maestro.X/main_mastre.c: 1
      +                          85:     I2C_Master_Start();
  1716  0255  120A  158A  2580  120A  118A  	fcall	_I2C_Master_Start
  1717  025A                     l2202:
  1718                           
  1719                           ;C:/Users/Andy Bonilla/Documents/GitHub/ED2/Proyecto1_ED2/PIC_maestro.X/main_mastre.c: 1
      +                          86:     I2C_Master_Write(0xD0);
  1720  025A  30D0               	movlw	208
  1721  025B  1283               	bcf	3,5	;RP0=0, select bank0
  1722  025C  1303               	bcf	3,6	;RP1=0, select bank0
  1723  025D  00A8               	movwf	I2C_Master_Write@d
  1724  025E  3000               	movlw	0
  1725  025F  00A9               	movwf	I2C_Master_Write@d+1
  1726  0260  120A  158A  2592  120A  118A  	fcall	_I2C_Master_Write
  1727  0265                     l2204:
  1728                           
  1729                           ;C:/Users/Andy Bonilla/Documents/GitHub/ED2/Proyecto1_ED2/PIC_maestro.X/main_mastre.c: 1
      +                          87:     I2C_Master_Write(0x02);
  1730  0265  3002               	movlw	2
  1731  0266  1283               	bcf	3,5	;RP0=0, select bank0
  1732  0267  1303               	bcf	3,6	;RP1=0, select bank0
  1733  0268  00A8               	movwf	I2C_Master_Write@d
  1734  0269  3000               	movlw	0
  1735  026A  00A9               	movwf	I2C_Master_Write@d+1
  1736  026B  120A  158A  2592  120A  118A  	fcall	_I2C_Master_Write
  1737  0270                     l2206:
  1738                           
  1739                           ;C:/Users/Andy Bonilla/Documents/GitHub/ED2/Proyecto1_ED2/PIC_maestro.X/main_mastre.c: 1
      +                          88:     I2C_Master_Write(0x06);
  1740  0270  3006               	movlw	6
  1741  0271  1283               	bcf	3,5	;RP0=0, select bank0
  1742  0272  1303               	bcf	3,6	;RP1=0, select bank0
  1743  0273  00A8               	movwf	I2C_Master_Write@d
  1744  0274  3000               	movlw	0
  1745  0275  00A9               	movwf	I2C_Master_Write@d+1
  1746  0276  120A  158A  2592  120A  118A  	fcall	_I2C_Master_Write
  1747  027B                     l2208:
  1748                           
  1749                           ;C:/Users/Andy Bonilla/Documents/GitHub/ED2/Proyecto1_ED2/PIC_maestro.X/main_mastre.c: 1
      +                          89:     I2C_Master_Stop();
  1750  027B  120A  158A  2589  120A  118A  	fcall	_I2C_Master_Stop
  1751  0280                     l2210:
  1752                           
  1753                           ;C:/Users/Andy Bonilla/Documents/GitHub/ED2/Proyecto1_ED2/PIC_maestro.X/main_mastre.c: 1
      +                          90:     _delay((unsigned long)((10)*(8000000/4000.0)));
  1754  0280  301A               	movlw	26
  1755  0281  1283               	bcf	3,5	;RP0=0, select bank0
  1756  0282  1303               	bcf	3,6	;RP1=0, select bank0
  1757  0283  00BF               	movwf	??_setup+1
  1758  0284  30F7               	movlw	247
  1759  0285  00BE               	movwf	??_setup
  1760  0286                     u1597:
  1761  0286  0BBE               	decfsz	??_setup,f
  1762  0287  2A86               	goto	u1597
  1763  0288  0BBF               	decfsz	??_setup+1,f
  1764  0289  2A86               	goto	u1597
  1765  028A  2A8B               	nop2
  1766  028B                     l2212:
  1767                           
  1768                           ;C:/Users/Andy Bonilla/Documents/GitHub/ED2/Proyecto1_ED2/PIC_maestro.X/main_mastre.c: 1
      +                          92:     I2C_Master_Start();
  1769  028B  120A  158A  2580  120A  118A  	fcall	_I2C_Master_Start
  1770  0290                     l2214:
  1771                           
  1772                           ;C:/Users/Andy Bonilla/Documents/GitHub/ED2/Proyecto1_ED2/PIC_maestro.X/main_mastre.c: 1
      +                          93:     I2C_Master_Write(0xD1);
  1773  0290  30D1               	movlw	209
  1774  0291  1283               	bcf	3,5	;RP0=0, select bank0
  1775  0292  1303               	bcf	3,6	;RP1=0, select bank0
  1776  0293  00A8               	movwf	I2C_Master_Write@d
  1777  0294  3000               	movlw	0
  1778  0295  00A9               	movwf	I2C_Master_Write@d+1
  1779  0296  120A  158A  2592  120A  118A  	fcall	_I2C_Master_Write
  1780  029B                     l2216:
  1781                           
  1782                           ;C:/Users/Andy Bonilla/Documents/GitHub/ED2/Proyecto1_ED2/PIC_maestro.X/main_mastre.c: 1
      +                          94:     BASURA = I2C_Master_Read(0);
  1783  029B  3000               	movlw	0
  1784  029C  1283               	bcf	3,5	;RP0=0, select bank0
  1785  029D  1303               	bcf	3,6	;RP1=0, select bank0
  1786  029E  00A8               	movwf	I2C_Master_Read@a
  1787  029F  00A9               	movwf	I2C_Master_Read@a+1
  1788  02A0  120A  158A  2664  120A  118A  	fcall	_I2C_Master_Read
  1789  02A5  1283               	bcf	3,5	;RP0=0, select bank0
  1790  02A6  1303               	bcf	3,6	;RP1=0, select bank0
  1791  02A7  0828               	movf	?_I2C_Master_Read,w
  1792  02A8  00BE               	movwf	??_setup
  1793  02A9  083E               	movf	??_setup,w
  1794  02AA  00DC               	movwf	_BASURA
  1795  02AB                     l2218:
  1796                           
  1797                           ;C:/Users/Andy Bonilla/Documents/GitHub/ED2/Proyecto1_ED2/PIC_maestro.X/main_mastre.c: 1
      +                          95:     I2C_Master_Stop();
  1798  02AB  120A  158A  2589  120A  118A  	fcall	_I2C_Master_Stop
  1799  02B0                     l2220:
  1800                           
  1801                           ;C:/Users/Andy Bonilla/Documents/GitHub/ED2/Proyecto1_ED2/PIC_maestro.X/main_mastre.c: 1
      +                          96:     _delay((unsigned long)((10)*(8000000/4000.0)));
  1802  02B0  301A               	movlw	26
  1803  02B1  1283               	bcf	3,5	;RP0=0, select bank0
  1804  02B2  1303               	bcf	3,6	;RP1=0, select bank0
  1805  02B3  00BF               	movwf	??_setup+1
  1806  02B4  30F7               	movlw	247
  1807  02B5  00BE               	movwf	??_setup
  1808  02B6                     u1607:
  1809  02B6  0BBE               	decfsz	??_setup,f
  1810  02B7  2AB6               	goto	u1607
  1811  02B8  0BBF               	decfsz	??_setup+1,f
  1812  02B9  2AB6               	goto	u1607
  1813  02BA  2ABB               	nop2
  1814  02BB                     l2222:
  1815                           
  1816                           ;C:/Users/Andy Bonilla/Documents/GitHub/ED2/Proyecto1_ED2/PIC_maestro.X/main_mastre.c: 1
      +                          98:     I2C_Master_Start();
  1817  02BB  120A  158A  2580  120A  118A  	fcall	_I2C_Master_Start
  1818  02C0                     l2224:
  1819                           
  1820                           ;C:/Users/Andy Bonilla/Documents/GitHub/ED2/Proyecto1_ED2/PIC_maestro.X/main_mastre.c: 1
      +                          99:     I2C_Master_Write(0xD0);
  1821  02C0  30D0               	movlw	208
  1822  02C1  1283               	bcf	3,5	;RP0=0, select bank0
  1823  02C2  1303               	bcf	3,6	;RP1=0, select bank0
  1824  02C3  00A8               	movwf	I2C_Master_Write@d
  1825  02C4  3000               	movlw	0
  1826  02C5  00A9               	movwf	I2C_Master_Write@d+1
  1827  02C6  120A  158A  2592  120A  118A  	fcall	_I2C_Master_Write
  1828  02CB                     l2226:
  1829                           
  1830                           ;C:/Users/Andy Bonilla/Documents/GitHub/ED2/Proyecto1_ED2/PIC_maestro.X/main_mastre.c: 2
      +                          00:     I2C_Master_Write(0x01);
  1831  02CB  3001               	movlw	1
  1832  02CC  1283               	bcf	3,5	;RP0=0, select bank0
  1833  02CD  1303               	bcf	3,6	;RP1=0, select bank0
  1834  02CE  00A8               	movwf	I2C_Master_Write@d
  1835  02CF  3000               	movlw	0
  1836  02D0  00A9               	movwf	I2C_Master_Write@d+1
  1837  02D1  120A  158A  2592  120A  118A  	fcall	_I2C_Master_Write
  1838  02D6                     l2228:
  1839                           
  1840                           ;C:/Users/Andy Bonilla/Documents/GitHub/ED2/Proyecto1_ED2/PIC_maestro.X/main_mastre.c: 2
      +                          01:     I2C_Master_Write(0x59);
  1841  02D6  3059               	movlw	89
  1842  02D7  1283               	bcf	3,5	;RP0=0, select bank0
  1843  02D8  1303               	bcf	3,6	;RP1=0, select bank0
  1844  02D9  00A8               	movwf	I2C_Master_Write@d
  1845  02DA  3000               	movlw	0
  1846  02DB  00A9               	movwf	I2C_Master_Write@d+1
  1847  02DC  120A  158A  2592  120A  118A  	fcall	_I2C_Master_Write
  1848  02E1                     l2230:
  1849                           
  1850                           ;C:/Users/Andy Bonilla/Documents/GitHub/ED2/Proyecto1_ED2/PIC_maestro.X/main_mastre.c: 2
      +                          02:     I2C_Master_Stop();
  1851  02E1  120A  158A  2589  120A  118A  	fcall	_I2C_Master_Stop
  1852  02E6                     l2232:
  1853                           
  1854                           ;C:/Users/Andy Bonilla/Documents/GitHub/ED2/Proyecto1_ED2/PIC_maestro.X/main_mastre.c: 2
      +                          03:     _delay((unsigned long)((10)*(8000000/4000.0)));
  1855  02E6  301A               	movlw	26
  1856  02E7  1283               	bcf	3,5	;RP0=0, select bank0
  1857  02E8  1303               	bcf	3,6	;RP1=0, select bank0
  1858  02E9  00BF               	movwf	??_setup+1
  1859  02EA  30F7               	movlw	247
  1860  02EB  00BE               	movwf	??_setup
  1861  02EC                     u1617:
  1862  02EC  0BBE               	decfsz	??_setup,f
  1863  02ED  2AEC               	goto	u1617
  1864  02EE  0BBF               	decfsz	??_setup+1,f
  1865  02EF  2AEC               	goto	u1617
  1866  02F0  2AF1               	nop2
  1867  02F1                     l2234:
  1868                           
  1869                           ;C:/Users/Andy Bonilla/Documents/GitHub/ED2/Proyecto1_ED2/PIC_maestro.X/main_mastre.c: 2
      +                          05:     I2C_Master_Start();
  1870  02F1  120A  158A  2580  120A  118A  	fcall	_I2C_Master_Start
  1871  02F6                     l2236:
  1872                           
  1873                           ;C:/Users/Andy Bonilla/Documents/GitHub/ED2/Proyecto1_ED2/PIC_maestro.X/main_mastre.c: 2
      +                          06:     I2C_Master_Write(0xD1);
  1874  02F6  30D1               	movlw	209
  1875  02F7  1283               	bcf	3,5	;RP0=0, select bank0
  1876  02F8  1303               	bcf	3,6	;RP1=0, select bank0
  1877  02F9  00A8               	movwf	I2C_Master_Write@d
  1878  02FA  3000               	movlw	0
  1879  02FB  00A9               	movwf	I2C_Master_Write@d+1
  1880  02FC  120A  158A  2592  120A  118A  	fcall	_I2C_Master_Write
  1881  0301                     l2238:
  1882                           
  1883                           ;C:/Users/Andy Bonilla/Documents/GitHub/ED2/Proyecto1_ED2/PIC_maestro.X/main_mastre.c: 2
      +                          07:     BASURA = I2C_Master_Read(0);
  1884  0301  3000               	movlw	0
  1885  0302  1283               	bcf	3,5	;RP0=0, select bank0
  1886  0303  1303               	bcf	3,6	;RP1=0, select bank0
  1887  0304  00A8               	movwf	I2C_Master_Read@a
  1888  0305  00A9               	movwf	I2C_Master_Read@a+1
  1889  0306  120A  158A  2664  120A  118A  	fcall	_I2C_Master_Read
  1890  030B  1283               	bcf	3,5	;RP0=0, select bank0
  1891  030C  1303               	bcf	3,6	;RP1=0, select bank0
  1892  030D  0828               	movf	?_I2C_Master_Read,w
  1893  030E  00BE               	movwf	??_setup
  1894  030F  083E               	movf	??_setup,w
  1895  0310  00DC               	movwf	_BASURA
  1896  0311                     l2240:
  1897                           
  1898                           ;C:/Users/Andy Bonilla/Documents/GitHub/ED2/Proyecto1_ED2/PIC_maestro.X/main_mastre.c: 2
      +                          08:     I2C_Master_Stop();
  1899  0311  120A  158A  2589  120A  118A  	fcall	_I2C_Master_Stop
  1900  0316                     l2242:
  1901                           
  1902                           ;C:/Users/Andy Bonilla/Documents/GitHub/ED2/Proyecto1_ED2/PIC_maestro.X/main_mastre.c: 2
      +                          09:     _delay((unsigned long)((10)*(8000000/4000.0)));
  1903  0316  301A               	movlw	26
  1904  0317  1283               	bcf	3,5	;RP0=0, select bank0
  1905  0318  1303               	bcf	3,6	;RP1=0, select bank0
  1906  0319  00BF               	movwf	??_setup+1
  1907  031A  30F7               	movlw	247
  1908  031B  00BE               	movwf	??_setup
  1909  031C                     u1627:
  1910  031C  0BBE               	decfsz	??_setup,f
  1911  031D  2B1C               	goto	u1627
  1912  031E  0BBF               	decfsz	??_setup+1,f
  1913  031F  2B1C               	goto	u1627
  1914  0320  2B21               	nop2
  1915  0321                     l2244:
  1916                           
  1917                           ;C:/Users/Andy Bonilla/Documents/GitHub/ED2/Proyecto1_ED2/PIC_maestro.X/main_mastre.c: 2
      +                          11:     I2C_Master_Start();
  1918  0321  120A  158A  2580  120A  118A  	fcall	_I2C_Master_Start
  1919  0326                     l2246:
  1920                           
  1921                           ;C:/Users/Andy Bonilla/Documents/GitHub/ED2/Proyecto1_ED2/PIC_maestro.X/main_mastre.c: 2
      +                          12:     I2C_Master_Write(0xD0);
  1922  0326  30D0               	movlw	208
  1923  0327  1283               	bcf	3,5	;RP0=0, select bank0
  1924  0328  1303               	bcf	3,6	;RP1=0, select bank0
  1925  0329  00A8               	movwf	I2C_Master_Write@d
  1926  032A  3000               	movlw	0
  1927  032B  00A9               	movwf	I2C_Master_Write@d+1
  1928  032C  120A  158A  2592  120A  118A  	fcall	_I2C_Master_Write
  1929  0331                     l2248:
  1930                           
  1931                           ;C:/Users/Andy Bonilla/Documents/GitHub/ED2/Proyecto1_ED2/PIC_maestro.X/main_mastre.c: 2
      +                          13:     I2C_Master_Write(0x00);
  1932  0331  3000               	movlw	0
  1933  0332  1283               	bcf	3,5	;RP0=0, select bank0
  1934  0333  1303               	bcf	3,6	;RP1=0, select bank0
  1935  0334  00A8               	movwf	I2C_Master_Write@d
  1936  0335  00A9               	movwf	I2C_Master_Write@d+1
  1937  0336  120A  158A  2592  120A  118A  	fcall	_I2C_Master_Write
  1938  033B                     l2250:
  1939                           
  1940                           ;C:/Users/Andy Bonilla/Documents/GitHub/ED2/Proyecto1_ED2/PIC_maestro.X/main_mastre.c: 2
      +                          14:     I2C_Master_Write(0x58);
  1941  033B  3058               	movlw	88
  1942  033C  1283               	bcf	3,5	;RP0=0, select bank0
  1943  033D  1303               	bcf	3,6	;RP1=0, select bank0
  1944  033E  00A8               	movwf	I2C_Master_Write@d
  1945  033F  3000               	movlw	0
  1946  0340  00A9               	movwf	I2C_Master_Write@d+1
  1947  0341  120A  158A  2592  120A  118A  	fcall	_I2C_Master_Write
  1948  0346                     l2252:
  1949                           
  1950                           ;C:/Users/Andy Bonilla/Documents/GitHub/ED2/Proyecto1_ED2/PIC_maestro.X/main_mastre.c: 2
      +                          15:     I2C_Master_Stop();
  1951  0346  120A  158A  2589  120A  118A  	fcall	_I2C_Master_Stop
  1952  034B                     l2254:
  1953                           
  1954                           ;C:/Users/Andy Bonilla/Documents/GitHub/ED2/Proyecto1_ED2/PIC_maestro.X/main_mastre.c: 2
      +                          16:     _delay((unsigned long)((10)*(8000000/4000.0)));
  1955  034B  301A               	movlw	26
  1956  034C  1283               	bcf	3,5	;RP0=0, select bank0
  1957  034D  1303               	bcf	3,6	;RP1=0, select bank0
  1958  034E  00BF               	movwf	??_setup+1
  1959  034F  30F7               	movlw	247
  1960  0350  00BE               	movwf	??_setup
  1961  0351                     u1637:
  1962  0351  0BBE               	decfsz	??_setup,f
  1963  0352  2B51               	goto	u1637
  1964  0353  0BBF               	decfsz	??_setup+1,f
  1965  0354  2B51               	goto	u1637
  1966  0355  2B56               	nop2
  1967  0356                     l2256:
  1968                           
  1969                           ;C:/Users/Andy Bonilla/Documents/GitHub/ED2/Proyecto1_ED2/PIC_maestro.X/main_mastre.c: 2
      +                          18:     I2C_Master_Start();
  1970  0356  120A  158A  2580  120A  118A  	fcall	_I2C_Master_Start
  1971  035B                     l2258:
  1972                           
  1973                           ;C:/Users/Andy Bonilla/Documents/GitHub/ED2/Proyecto1_ED2/PIC_maestro.X/main_mastre.c: 2
      +                          19:     I2C_Master_Write(0xD1);
  1974  035B  30D1               	movlw	209
  1975  035C  1283               	bcf	3,5	;RP0=0, select bank0
  1976  035D  1303               	bcf	3,6	;RP1=0, select bank0
  1977  035E  00A8               	movwf	I2C_Master_Write@d
  1978  035F  3000               	movlw	0
  1979  0360  00A9               	movwf	I2C_Master_Write@d+1
  1980  0361  120A  158A  2592  120A  118A  	fcall	_I2C_Master_Write
  1981  0366                     l2260:
  1982                           
  1983                           ;C:/Users/Andy Bonilla/Documents/GitHub/ED2/Proyecto1_ED2/PIC_maestro.X/main_mastre.c: 2
      +                          20:     BASURA = I2C_Master_Read(0);
  1984  0366  3000               	movlw	0
  1985  0367  1283               	bcf	3,5	;RP0=0, select bank0
  1986  0368  1303               	bcf	3,6	;RP1=0, select bank0
  1987  0369  00A8               	movwf	I2C_Master_Read@a
  1988  036A  00A9               	movwf	I2C_Master_Read@a+1
  1989  036B  120A  158A  2664  120A  118A  	fcall	_I2C_Master_Read
  1990  0370  1283               	bcf	3,5	;RP0=0, select bank0
  1991  0371  1303               	bcf	3,6	;RP1=0, select bank0
  1992  0372  0828               	movf	?_I2C_Master_Read,w
  1993  0373  00BE               	movwf	??_setup
  1994  0374  083E               	movf	??_setup,w
  1995  0375  00DC               	movwf	_BASURA
  1996  0376                     l2262:
  1997                           
  1998                           ;C:/Users/Andy Bonilla/Documents/GitHub/ED2/Proyecto1_ED2/PIC_maestro.X/main_mastre.c: 2
      +                          21:     I2C_Master_Stop();
  1999  0376  120A  158A  2589  120A  118A  	fcall	_I2C_Master_Stop
  2000  037B                     l2264:
  2001                           
  2002                           ;C:/Users/Andy Bonilla/Documents/GitHub/ED2/Proyecto1_ED2/PIC_maestro.X/main_mastre.c: 2
      +                          22:     _delay((unsigned long)((10)*(8000000/4000.0)));
  2003  037B  301A               	movlw	26
  2004  037C  1283               	bcf	3,5	;RP0=0, select bank0
  2005  037D  1303               	bcf	3,6	;RP1=0, select bank0
  2006  037E  00BF               	movwf	??_setup+1
  2007  037F  30F7               	movlw	247
  2008  0380  00BE               	movwf	??_setup
  2009  0381                     u1647:
  2010  0381  0BBE               	decfsz	??_setup,f
  2011  0382  2B81               	goto	u1647
  2012  0383  0BBF               	decfsz	??_setup+1,f
  2013  0384  2B81               	goto	u1647
  2014  0385  2B86               	nop2
  2015  0386                     l2266:
  2016                           
  2017                           ;C:/Users/Andy Bonilla/Documents/GitHub/ED2/Proyecto1_ED2/PIC_maestro.X/main_mastre.c: 2
      +                          24:     I2C_Master_Start();
  2018  0386  120A  158A  2580  120A  118A  	fcall	_I2C_Master_Start
  2019  038B                     l2268:
  2020                           
  2021                           ;C:/Users/Andy Bonilla/Documents/GitHub/ED2/Proyecto1_ED2/PIC_maestro.X/main_mastre.c: 2
      +                          25:     I2C_Master_Write(0xD0);
  2022  038B  30D0               	movlw	208
  2023  038C  1283               	bcf	3,5	;RP0=0, select bank0
  2024  038D  1303               	bcf	3,6	;RP1=0, select bank0
  2025  038E  00A8               	movwf	I2C_Master_Write@d
  2026  038F  3000               	movlw	0
  2027  0390  00A9               	movwf	I2C_Master_Write@d+1
  2028  0391  120A  158A  2592  120A  118A  	fcall	_I2C_Master_Write
  2029  0396                     l2270:
  2030                           
  2031                           ;C:/Users/Andy Bonilla/Documents/GitHub/ED2/Proyecto1_ED2/PIC_maestro.X/main_mastre.c: 2
      +                          26:     I2C_Master_Write(0x03);
  2032  0396  3003               	movlw	3
  2033  0397  1283               	bcf	3,5	;RP0=0, select bank0
  2034  0398  1303               	bcf	3,6	;RP1=0, select bank0
  2035  0399  00A8               	movwf	I2C_Master_Write@d
  2036  039A  3000               	movlw	0
  2037  039B  00A9               	movwf	I2C_Master_Write@d+1
  2038  039C  120A  158A  2592  120A  118A  	fcall	_I2C_Master_Write
  2039  03A1                     l2272:
  2040                           
  2041                           ;C:/Users/Andy Bonilla/Documents/GitHub/ED2/Proyecto1_ED2/PIC_maestro.X/main_mastre.c: 2
      +                          27:     I2C_Master_Write(0x06);
  2042  03A1  3006               	movlw	6
  2043  03A2  1283               	bcf	3,5	;RP0=0, select bank0
  2044  03A3  1303               	bcf	3,6	;RP1=0, select bank0
  2045  03A4  00A8               	movwf	I2C_Master_Write@d
  2046  03A5  3000               	movlw	0
  2047  03A6  00A9               	movwf	I2C_Master_Write@d+1
  2048  03A7  120A  158A  2592  120A  118A  	fcall	_I2C_Master_Write
  2049  03AC                     l2274:
  2050                           
  2051                           ;C:/Users/Andy Bonilla/Documents/GitHub/ED2/Proyecto1_ED2/PIC_maestro.X/main_mastre.c: 2
      +                          28:     I2C_Master_Stop();
  2052  03AC  120A  158A  2589  120A  118A  	fcall	_I2C_Master_Stop
  2053  03B1                     l2276:
  2054                           
  2055                           ;C:/Users/Andy Bonilla/Documents/GitHub/ED2/Proyecto1_ED2/PIC_maestro.X/main_mastre.c: 2
      +                          29:     _delay((unsigned long)((10)*(8000000/4000.0)));
  2056  03B1  301A               	movlw	26
  2057  03B2  1283               	bcf	3,5	;RP0=0, select bank0
  2058  03B3  1303               	bcf	3,6	;RP1=0, select bank0
  2059  03B4  00BF               	movwf	??_setup+1
  2060  03B5  30F7               	movlw	247
  2061  03B6  00BE               	movwf	??_setup
  2062  03B7                     u1657:
  2063  03B7  0BBE               	decfsz	??_setup,f
  2064  03B8  2BB7               	goto	u1657
  2065  03B9  0BBF               	decfsz	??_setup+1,f
  2066  03BA  2BB7               	goto	u1657
  2067  03BB  2BBC               	nop2
  2068  03BC                     l2278:
  2069                           
  2070                           ;C:/Users/Andy Bonilla/Documents/GitHub/ED2/Proyecto1_ED2/PIC_maestro.X/main_mastre.c: 2
      +                          31:     I2C_Master_Start();
  2071  03BC  120A  158A  2580  120A  118A  	fcall	_I2C_Master_Start
  2072  03C1                     l2280:
  2073                           
  2074                           ;C:/Users/Andy Bonilla/Documents/GitHub/ED2/Proyecto1_ED2/PIC_maestro.X/main_mastre.c: 2
      +                          32:     I2C_Master_Write(0xD1);
  2075  03C1  30D1               	movlw	209
  2076  03C2  1283               	bcf	3,5	;RP0=0, select bank0
  2077  03C3  1303               	bcf	3,6	;RP1=0, select bank0
  2078  03C4  00A8               	movwf	I2C_Master_Write@d
  2079  03C5  3000               	movlw	0
  2080  03C6  00A9               	movwf	I2C_Master_Write@d+1
  2081  03C7  120A  158A  2592  120A  118A  	fcall	_I2C_Master_Write
  2082  03CC                     l2282:
  2083                           
  2084                           ;C:/Users/Andy Bonilla/Documents/GitHub/ED2/Proyecto1_ED2/PIC_maestro.X/main_mastre.c: 2
      +                          33:     BASURA = I2C_Master_Read(0);
  2085  03CC  3000               	movlw	0
  2086  03CD  1283               	bcf	3,5	;RP0=0, select bank0
  2087  03CE  1303               	bcf	3,6	;RP1=0, select bank0
  2088  03CF  00A8               	movwf	I2C_Master_Read@a
  2089  03D0  00A9               	movwf	I2C_Master_Read@a+1
  2090  03D1  120A  158A  2664  120A  118A  	fcall	_I2C_Master_Read
  2091  03D6  1283               	bcf	3,5	;RP0=0, select bank0
  2092  03D7  1303               	bcf	3,6	;RP1=0, select bank0
  2093  03D8  0828               	movf	?_I2C_Master_Read,w
  2094  03D9  00BE               	movwf	??_setup
  2095  03DA  083E               	movf	??_setup,w
  2096  03DB  00DC               	movwf	_BASURA
  2097  03DC                     l2284:
  2098                           
  2099                           ;C:/Users/Andy Bonilla/Documents/GitHub/ED2/Proyecto1_ED2/PIC_maestro.X/main_mastre.c: 2
      +                          34:     I2C_Master_Stop();
  2100  03DC  120A  158A  2589  120A  118A  	fcall	_I2C_Master_Stop
  2101  03E1                     l2286:
  2102                           
  2103                           ;C:/Users/Andy Bonilla/Documents/GitHub/ED2/Proyecto1_ED2/PIC_maestro.X/main_mastre.c: 2
      +                          35:     _delay((unsigned long)((10)*(8000000/4000.0)));
  2104  03E1  301A               	movlw	26
  2105  03E2  1283               	bcf	3,5	;RP0=0, select bank0
  2106  03E3  1303               	bcf	3,6	;RP1=0, select bank0
  2107  03E4  00BF               	movwf	??_setup+1
  2108  03E5  30F7               	movlw	247
  2109  03E6  00BE               	movwf	??_setup
  2110  03E7                     u1667:
  2111  03E7  0BBE               	decfsz	??_setup,f
  2112  03E8  2BE7               	goto	u1667
  2113  03E9  0BBF               	decfsz	??_setup+1,f
  2114  03EA  2BE7               	goto	u1667
  2115  03EB  2BEC               	nop2
  2116  03EC                     l115:
  2117  03EC  0008               	return
  2118  03ED                     __end_of_setup:
  2119                           
  2120                           	psect	text2
  2121  0D9C                     __ptext2:	
  2122 ;; *************** function _uart_config *****************
  2123 ;; Defined at:
  2124 ;;		line 21 in file "C:/Users/Andy Bonilla/Documents/GitHub/ED2/Proyecto1_ED2/PIC_maestro.X/UART_CONFIG.c"
  2125 ;; Parameters:    Size  Location     Type
  2126 ;;		None
  2127 ;; Auto vars:     Size  Location     Type
  2128 ;;		None
  2129 ;; Return value:  Size  Location     Type
  2130 ;;                  1    wreg      void 
  2131 ;; Registers used:
  2132 ;;		wreg, status,2
  2133 ;; Tracked objects:
  2134 ;;		On entry : 0/0
  2135 ;;		On exit  : 0/0
  2136 ;;		Unchanged: 0/0
  2137 ;; Data sizes:     COMMON   BANK0   BANK1   BANK3   BANK2
  2138 ;;      Params:         0       0       0       0       0
  2139 ;;      Locals:         0       0       0       0       0
  2140 ;;      Temps:          0       0       0       0       0
  2141 ;;      Totals:         0       0       0       0       0
  2142 ;;Total ram usage:        0 bytes
  2143 ;; Hardware stack levels used: 1
  2144 ;; Hardware stack levels required when called: 3
  2145 ;; This function calls:
  2146 ;;		Nothing
  2147 ;; This function is called by:
  2148 ;;		_setup
  2149 ;; This function uses a non-reentrant model
  2150 ;;
  2151                           
  2152                           
  2153                           ;psect for function _uart_config
  2154  0D9C                     _uart_config:
  2155  0D9C                     l1870:	
  2156                           ;incstack = 0
  2157                           ; Regs used in _uart_config: [wreg+status,2]
  2158                           
  2159                           
  2160                           ;C:/Users/Andy Bonilla/Documents/GitHub/ED2/Proyecto1_ED2/PIC_maestro.X/UART_CONFIG.c: 2
      +                          4:     TXSTAbits.SYNC = 0;
  2161  0D9C  1683               	bsf	3,5	;RP0=1, select bank1
  2162  0D9D  1303               	bcf	3,6	;RP1=0, select bank1
  2163  0D9E  1218               	bcf	24,4	;volatile
  2164                           
  2165                           ;C:/Users/Andy Bonilla/Documents/GitHub/ED2/Proyecto1_ED2/PIC_maestro.X/UART_CONFIG.c: 2
      +                          5:  TXSTAbits.BRGH = 1;
  2166  0D9F  1518               	bsf	24,2	;volatile
  2167                           
  2168                           ;C:/Users/Andy Bonilla/Documents/GitHub/ED2/Proyecto1_ED2/PIC_maestro.X/UART_CONFIG.c: 2
      +                          6:  TXSTAbits.TX9 = 0;
  2169  0DA0  1318               	bcf	24,6	;volatile
  2170                           
  2171                           ;C:/Users/Andy Bonilla/Documents/GitHub/ED2/Proyecto1_ED2/PIC_maestro.X/UART_CONFIG.c: 2
      +                          7:  BAUDCTLbits.BRG16 = 0;
  2172  0DA1  1683               	bsf	3,5	;RP0=1, select bank3
  2173  0DA2  1703               	bsf	3,6	;RP1=1, select bank3
  2174  0DA3  1187               	bcf	7,3	;volatile
  2175  0DA4                     l1872:
  2176                           
  2177                           ;C:/Users/Andy Bonilla/Documents/GitHub/ED2/Proyecto1_ED2/PIC_maestro.X/UART_CONFIG.c: 2
      +                          8:  SPBRGH = 0;
  2178  0DA4  1683               	bsf	3,5	;RP0=1, select bank1
  2179  0DA5  1303               	bcf	3,6	;RP1=0, select bank1
  2180  0DA6  019A               	clrf	26	;volatile
  2181  0DA7                     l1874:
  2182                           
  2183                           ;C:/Users/Andy Bonilla/Documents/GitHub/ED2/Proyecto1_ED2/PIC_maestro.X/UART_CONFIG.c: 2
      +                          9:  SPBRG = 25;
  2184  0DA7  3019               	movlw	25
  2185  0DA8  0099               	movwf	25	;volatile
  2186  0DA9                     l1876:
  2187                           
  2188                           ;C:/Users/Andy Bonilla/Documents/GitHub/ED2/Proyecto1_ED2/PIC_maestro.X/UART_CONFIG.c: 3
      +                          1:  RCSTAbits.SPEN = 1;
  2189  0DA9  1283               	bcf	3,5	;RP0=0, select bank0
  2190  0DAA  1303               	bcf	3,6	;RP1=0, select bank0
  2191  0DAB  1798               	bsf	24,7	;volatile
  2192  0DAC                     l1878:
  2193                           
  2194                           ;C:/Users/Andy Bonilla/Documents/GitHub/ED2/Proyecto1_ED2/PIC_maestro.X/UART_CONFIG.c: 3
      +                          2:  RCSTAbits.RX9 = 0;
  2195  0DAC  1318               	bcf	24,6	;volatile
  2196  0DAD                     l1880:
  2197                           
  2198                           ;C:/Users/Andy Bonilla/Documents/GitHub/ED2/Proyecto1_ED2/PIC_maestro.X/UART_CONFIG.c: 3
      +                          3:  RCSTAbits.CREN = 0;
  2199  0DAD  1218               	bcf	24,4	;volatile
  2200  0DAE                     l1882:
  2201                           
  2202                           ;C:/Users/Andy Bonilla/Documents/GitHub/ED2/Proyecto1_ED2/PIC_maestro.X/UART_CONFIG.c: 3
      +                          4:  TXSTAbits.TXEN = 1;
  2203  0DAE  1683               	bsf	3,5	;RP0=1, select bank1
  2204  0DAF  1303               	bcf	3,6	;RP1=0, select bank1
  2205  0DB0  1698               	bsf	24,5	;volatile
  2206  0DB1                     l306:
  2207  0DB1  0008               	return
  2208  0DB2                     __end_of_uart_config:
  2209                           
  2210                           	psect	text3
  2211  0E96                     __ptext3:	
  2212 ;; *************** function _osc_config *****************
  2213 ;; Defined at:
  2214 ;;		line 16 in file "C:/Users/Andy Bonilla/Documents/GitHub/ED2/Proyecto1_ED2/PIC_maestro.X/Osc_config.c"
  2215 ;; Parameters:    Size  Location     Type
  2216 ;;  freq            1    wreg     unsigned char 
  2217 ;; Auto vars:     Size  Location     Type
  2218 ;;  freq            1   10[BANK0 ] unsigned char 
  2219 ;; Return value:  Size  Location     Type
  2220 ;;                  1    wreg      void 
  2221 ;; Registers used:
  2222 ;;		wreg, fsr0l, fsr0h, status,2, status,0
  2223 ;; Tracked objects:
  2224 ;;		On entry : 0/0
  2225 ;;		On exit  : 0/0
  2226 ;;		Unchanged: 0/0
  2227 ;; Data sizes:     COMMON   BANK0   BANK1   BANK3   BANK2
  2228 ;;      Params:         0       0       0       0       0
  2229 ;;      Locals:         0       1       0       0       0
  2230 ;;      Temps:          0       2       0       0       0
  2231 ;;      Totals:         0       3       0       0       0
  2232 ;;Total ram usage:        3 bytes
  2233 ;; Hardware stack levels used: 1
  2234 ;; Hardware stack levels required when called: 3
  2235 ;; This function calls:
  2236 ;;		Nothing
  2237 ;; This function is called by:
  2238 ;;		_setup
  2239 ;; This function uses a non-reentrant model
  2240 ;;
  2241                           
  2242                           
  2243                           ;psect for function _osc_config
  2244  0E96                     _osc_config:
  2245                           
  2246                           ;incstack = 0
  2247                           ; Regs used in _osc_config: [wreg-fsr0h+status,2+status,0]
  2248                           ;osc_config@freq stored from wreg
  2249  0E96  1283               	bcf	3,5	;RP0=0, select bank0
  2250  0E97  1303               	bcf	3,6	;RP1=0, select bank0
  2251  0E98  00AA               	movwf	osc_config@freq
  2252  0E99                     l1842:
  2253                           
  2254                           ;C:/Users/Andy Bonilla/Documents/GitHub/ED2/Proyecto1_ED2/PIC_maestro.X/Osc_config.c: 16
      +                          : void osc_config(uint8_t freq);C:/Users/Andy Bonilla/Documents/GitHub/ED2/Proyecto1_ED2
      +                          /PIC_maestro.X/Osc_config.c: 17: {;C:/Users/Andy Bonilla/Documents/GitHub/ED2/Proyecto1_
      +                          ED2/PIC_maestro.X/Osc_config.c: 18:     switch(freq)
  2255  0E99  2EB8               	goto	l1862
  2256  0E9A                     l1844:
  2257                           
  2258                           ;C:/Users/Andy Bonilla/Documents/GitHub/ED2/Proyecto1_ED2/PIC_maestro.X/Osc_config.c: 21
      +                          :             OSCCONbits.IRCF=0b100;
  2259  0E9A  1683               	bsf	3,5	;RP0=1, select bank1
  2260  0E9B  1303               	bcf	3,6	;RP1=0, select bank1
  2261  0E9C  080F               	movf	15,w	;volatile
  2262  0E9D  398F               	andlw	-113
  2263  0E9E  3840               	iorlw	64
  2264  0E9F  008F               	movwf	15	;volatile
  2265  0EA0                     l1846:
  2266                           
  2267                           ;C:/Users/Andy Bonilla/Documents/GitHub/ED2/Proyecto1_ED2/PIC_maestro.X/Osc_config.c: 22
      +                          :             OSCCONbits.SCS=1;
  2268  0EA0  140F               	bsf	15,0	;volatile
  2269                           
  2270                           ;C:/Users/Andy Bonilla/Documents/GitHub/ED2/Proyecto1_ED2/PIC_maestro.X/Osc_config.c: 23
      +                          :             break;
  2271  0EA1  2ECE               	goto	l293
  2272  0EA2                     l1848:
  2273                           
  2274                           ;C:/Users/Andy Bonilla/Documents/GitHub/ED2/Proyecto1_ED2/PIC_maestro.X/Osc_config.c: 26
      +                          :             OSCCONbits.IRCF=0b101;
  2275  0EA2  1683               	bsf	3,5	;RP0=1, select bank1
  2276  0EA3  1303               	bcf	3,6	;RP1=0, select bank1
  2277  0EA4  080F               	movf	15,w	;volatile
  2278  0EA5  398F               	andlw	-113
  2279  0EA6  3850               	iorlw	80
  2280  0EA7  008F               	movwf	15	;volatile
  2281  0EA8                     l1850:
  2282                           
  2283                           ;C:/Users/Andy Bonilla/Documents/GitHub/ED2/Proyecto1_ED2/PIC_maestro.X/Osc_config.c: 27
      +                          :             OSCCONbits.SCS=1;
  2284  0EA8  140F               	bsf	15,0	;volatile
  2285                           
  2286                           ;C:/Users/Andy Bonilla/Documents/GitHub/ED2/Proyecto1_ED2/PIC_maestro.X/Osc_config.c: 28
      +                          :             break;
  2287  0EA9  2ECE               	goto	l293
  2288  0EAA                     l1852:
  2289                           
  2290                           ;C:/Users/Andy Bonilla/Documents/GitHub/ED2/Proyecto1_ED2/PIC_maestro.X/Osc_config.c: 31
      +                          :             OSCCONbits.IRCF=0b110;
  2291  0EAA  1683               	bsf	3,5	;RP0=1, select bank1
  2292  0EAB  1303               	bcf	3,6	;RP1=0, select bank1
  2293  0EAC  080F               	movf	15,w	;volatile
  2294  0EAD  398F               	andlw	-113
  2295  0EAE  3860               	iorlw	96
  2296  0EAF  008F               	movwf	15	;volatile
  2297  0EB0                     l1854:
  2298                           
  2299                           ;C:/Users/Andy Bonilla/Documents/GitHub/ED2/Proyecto1_ED2/PIC_maestro.X/Osc_config.c: 32
      +                          :             OSCCONbits.SCS=1;
  2300  0EB0  140F               	bsf	15,0	;volatile
  2301                           
  2302                           ;C:/Users/Andy Bonilla/Documents/GitHub/ED2/Proyecto1_ED2/PIC_maestro.X/Osc_config.c: 33
      +                          :             break;
  2303  0EB1  2ECE               	goto	l293
  2304  0EB2                     l1856:
  2305                           
  2306                           ;C:/Users/Andy Bonilla/Documents/GitHub/ED2/Proyecto1_ED2/PIC_maestro.X/Osc_config.c: 36
      +                          :             OSCCONbits.IRCF=0b111;
  2307  0EB2  3070               	movlw	112
  2308  0EB3  1683               	bsf	3,5	;RP0=1, select bank1
  2309  0EB4  1303               	bcf	3,6	;RP1=0, select bank1
  2310  0EB5  048F               	iorwf	15,f	;volatile
  2311  0EB6                     l1858:
  2312                           
  2313                           ;C:/Users/Andy Bonilla/Documents/GitHub/ED2/Proyecto1_ED2/PIC_maestro.X/Osc_config.c: 37
      +                          :             OSCCONbits.SCS=1;
  2314  0EB6  140F               	bsf	15,0	;volatile
  2315                           
  2316                           ;C:/Users/Andy Bonilla/Documents/GitHub/ED2/Proyecto1_ED2/PIC_maestro.X/Osc_config.c: 38
      +                          :             break;
  2317  0EB7  2ECE               	goto	l293
  2318  0EB8                     l1862:
  2319  0EB8  082A               	movf	osc_config@freq,w
  2320  0EB9  00A8               	movwf	??_osc_config
  2321  0EBA  01A9               	clrf	??_osc_config+1
  2322                           
  2323                           ; Switch on 2 bytes has been partitioned into a top level switch of size 1, and 1 sub-sw
      +                          itches
  2324                           ; Switch size 1, requested type "simple"
  2325                           ; Number of cases is 1, Range of values is 0 to 0
  2326                           ; switch strategies available:
  2327                           ; Name         Instructions Cycles
  2328                           ; simple_byte            4     3 (average)
  2329                           ; direct_byte           11     8 (fixed)
  2330                           ; jumptable            260     6 (fixed)
  2331                           ;	Chosen strategy is simple_byte
  2332  0EBB  0829               	movf	??_osc_config+1,w
  2333  0EBC  3A00               	xorlw	0	; case 0
  2334  0EBD  1903               	skipnz
  2335  0EBE  2EC0               	goto	l2656
  2336  0EBF  2ECE               	goto	l293
  2337  0EC0                     l2656:
  2338                           
  2339                           ; Switch size 1, requested type "simple"
  2340                           ; Number of cases is 4, Range of values is 1 to 8
  2341                           ; switch strategies available:
  2342                           ; Name         Instructions Cycles
  2343                           ; simple_byte           13     7 (average)
  2344                           ; direct_byte           35    11 (fixed)
  2345                           ; jumptable            263     9 (fixed)
  2346                           ;	Chosen strategy is simple_byte
  2347  0EC0  0828               	movf	??_osc_config,w
  2348  0EC1  3A01               	xorlw	1	; case 1
  2349  0EC2  1903               	skipnz
  2350  0EC3  2E9A               	goto	l1844
  2351  0EC4  3A03               	xorlw	3	; case 2
  2352  0EC5  1903               	skipnz
  2353  0EC6  2EA2               	goto	l1848
  2354  0EC7  3A06               	xorlw	6	; case 4
  2355  0EC8  1903               	skipnz
  2356  0EC9  2EAA               	goto	l1852
  2357  0ECA  3A0C               	xorlw	12	; case 8
  2358  0ECB  1903               	skipnz
  2359  0ECC  2EB2               	goto	l1856
  2360  0ECD  2ECE               	goto	l293
  2361  0ECE                     l293:
  2362  0ECE  0008               	return
  2363  0ECF                     __end_of_osc_config:
  2364                           
  2365                           	psect	text4
  2366  0D92                     __ptext4:	
  2367 ;; *************** function _I2C_Master_Write *****************
  2368 ;; Defined at:
  2369 ;;		line 65 in file "C:/Users/Andy Bonilla/Documents/GitHub/ED2/Proyecto1_ED2/PIC_maestro.X/I2C.c"
  2370 ;; Parameters:    Size  Location     Type
  2371 ;;  d               2    8[BANK0 ] unsigned int 
  2372 ;; Auto vars:     Size  Location     Type
  2373 ;;		None
  2374 ;; Return value:  Size  Location     Type
  2375 ;;                  1    wreg      void 
  2376 ;; Registers used:
  2377 ;;		wreg, status,2, status,0, pclath, cstack
  2378 ;; Tracked objects:
  2379 ;;		On entry : 0/0
  2380 ;;		On exit  : 0/0
  2381 ;;		Unchanged: 0/0
  2382 ;; Data sizes:     COMMON   BANK0   BANK1   BANK3   BANK2
  2383 ;;      Params:         0       2       0       0       0
  2384 ;;      Locals:         0       0       0       0       0
  2385 ;;      Temps:          0       0       0       0       0
  2386 ;;      Totals:         0       2       0       0       0
  2387 ;;Total ram usage:        2 bytes
  2388 ;; Hardware stack levels used: 1
  2389 ;; Hardware stack levels required when called: 4
  2390 ;; This function calls:
  2391 ;;		_I2C_Master_Wait
  2392 ;; This function is called by:
  2393 ;;		_main
  2394 ;;		_setup
  2395 ;; This function uses a non-reentrant model
  2396 ;;
  2397                           
  2398                           
  2399                           ;psect for function _I2C_Master_Write
  2400  0D92                     _I2C_Master_Write:
  2401  0D92                     l1818:	
  2402                           ;incstack = 0
  2403                           ; Regs used in _I2C_Master_Write: [wreg+status,2+status,0+pclath+cstack]
  2404                           
  2405                           
  2406                           ;C:/Users/Andy Bonilla/Documents/GitHub/ED2/Proyecto1_ED2/PIC_maestro.X/I2C.c: 65: void 
      +                          I2C_Master_Write(unsigned d);C:/Users/Andy Bonilla/Documents/GitHub/ED2/Proyecto1_ED2/PI
      +                          C_maestro.X/I2C.c: 66: {;C:/Users/Andy Bonilla/Documents/GitHub/ED2/Proyecto1_ED2/PIC_ma
      +                          estro.X/I2C.c: 67:     I2C_Master_Wait();
  2407  0D92  120A  118A  27F1  120A  158A  	fcall	_I2C_Master_Wait
  2408  0D97                     l1820:
  2409                           
  2410                           ;C:/Users/Andy Bonilla/Documents/GitHub/ED2/Proyecto1_ED2/PIC_maestro.X/I2C.c: 68:     S
      +                          SPBUF = d;
  2411  0D97  1283               	bcf	3,5	;RP0=0, select bank0
  2412  0D98  1303               	bcf	3,6	;RP1=0, select bank0
  2413  0D99  0828               	movf	I2C_Master_Write@d,w
  2414  0D9A  0093               	movwf	19	;volatile
  2415  0D9B                     l274:
  2416  0D9B  0008               	return
  2417  0D9C                     __end_of_I2C_Master_Write:
  2418                           
  2419                           	psect	text5
  2420  0D89                     __ptext5:	
  2421 ;; *************** function _I2C_Master_Stop *****************
  2422 ;; Defined at:
  2423 ;;		line 55 in file "C:/Users/Andy Bonilla/Documents/GitHub/ED2/Proyecto1_ED2/PIC_maestro.X/I2C.c"
  2424 ;; Parameters:    Size  Location     Type
  2425 ;;		None
  2426 ;; Auto vars:     Size  Location     Type
  2427 ;;		None
  2428 ;; Return value:  Size  Location     Type
  2429 ;;                  1    wreg      void 
  2430 ;; Registers used:
  2431 ;;		wreg, status,2, status,0, pclath, cstack
  2432 ;; Tracked objects:
  2433 ;;		On entry : 0/0
  2434 ;;		On exit  : 0/0
  2435 ;;		Unchanged: 0/0
  2436 ;; Data sizes:     COMMON   BANK0   BANK1   BANK3   BANK2
  2437 ;;      Params:         0       0       0       0       0
  2438 ;;      Locals:         0       0       0       0       0
  2439 ;;      Temps:          0       0       0       0       0
  2440 ;;      Totals:         0       0       0       0       0
  2441 ;;Total ram usage:        0 bytes
  2442 ;; Hardware stack levels used: 1
  2443 ;; Hardware stack levels required when called: 4
  2444 ;; This function calls:
  2445 ;;		_I2C_Master_Wait
  2446 ;; This function is called by:
  2447 ;;		_main
  2448 ;;		_setup
  2449 ;; This function uses a non-reentrant model
  2450 ;;
  2451                           
  2452                           
  2453                           ;psect for function _I2C_Master_Stop
  2454  0D89                     _I2C_Master_Stop:
  2455  0D89                     l1822:	
  2456                           ;incstack = 0
  2457                           ; Regs used in _I2C_Master_Stop: [wreg+status,2+status,0+pclath+cstack]
  2458                           
  2459                           
  2460                           ;C:/Users/Andy Bonilla/Documents/GitHub/ED2/Proyecto1_ED2/PIC_maestro.X/I2C.c: 57:     I
      +                          2C_Master_Wait();
  2461  0D89  120A  118A  27F1  120A  158A  	fcall	_I2C_Master_Wait
  2462  0D8E                     l1824:
  2463                           
  2464                           ;C:/Users/Andy Bonilla/Documents/GitHub/ED2/Proyecto1_ED2/PIC_maestro.X/I2C.c: 58:     S
      +                          SPCON2bits.PEN = 1;
  2465  0D8E  1683               	bsf	3,5	;RP0=1, select bank1
  2466  0D8F  1303               	bcf	3,6	;RP1=0, select bank1
  2467  0D90  1511               	bsf	17,2	;volatile
  2468  0D91                     l271:
  2469  0D91  0008               	return
  2470  0D92                     __end_of_I2C_Master_Stop:
  2471                           
  2472                           	psect	text6
  2473  0D80                     __ptext6:	
  2474 ;; *************** function _I2C_Master_Start *****************
  2475 ;; Defined at:
  2476 ;;		line 39 in file "C:/Users/Andy Bonilla/Documents/GitHub/ED2/Proyecto1_ED2/PIC_maestro.X/I2C.c"
  2477 ;; Parameters:    Size  Location     Type
  2478 ;;		None
  2479 ;; Auto vars:     Size  Location     Type
  2480 ;;		None
  2481 ;; Return value:  Size  Location     Type
  2482 ;;                  1    wreg      void 
  2483 ;; Registers used:
  2484 ;;		wreg, status,2, status,0, pclath, cstack
  2485 ;; Tracked objects:
  2486 ;;		On entry : 0/0
  2487 ;;		On exit  : 0/0
  2488 ;;		Unchanged: 0/0
  2489 ;; Data sizes:     COMMON   BANK0   BANK1   BANK3   BANK2
  2490 ;;      Params:         0       0       0       0       0
  2491 ;;      Locals:         0       0       0       0       0
  2492 ;;      Temps:          0       0       0       0       0
  2493 ;;      Totals:         0       0       0       0       0
  2494 ;;Total ram usage:        0 bytes
  2495 ;; Hardware stack levels used: 1
  2496 ;; Hardware stack levels required when called: 4
  2497 ;; This function calls:
  2498 ;;		_I2C_Master_Wait
  2499 ;; This function is called by:
  2500 ;;		_main
  2501 ;;		_setup
  2502 ;; This function uses a non-reentrant model
  2503 ;;
  2504                           
  2505                           
  2506                           ;psect for function _I2C_Master_Start
  2507  0D80                     _I2C_Master_Start:
  2508  0D80                     l1814:	
  2509                           ;incstack = 0
  2510                           ; Regs used in _I2C_Master_Start: [wreg+status,2+status,0+pclath+cstack]
  2511                           
  2512                           
  2513                           ;C:/Users/Andy Bonilla/Documents/GitHub/ED2/Proyecto1_ED2/PIC_maestro.X/I2C.c: 41:     I
      +                          2C_Master_Wait();
  2514  0D80  120A  118A  27F1  120A  158A  	fcall	_I2C_Master_Wait
  2515  0D85                     l1816:
  2516                           
  2517                           ;C:/Users/Andy Bonilla/Documents/GitHub/ED2/Proyecto1_ED2/PIC_maestro.X/I2C.c: 42:     S
      +                          SPCON2bits.SEN = 1;
  2518  0D85  1683               	bsf	3,5	;RP0=1, select bank1
  2519  0D86  1303               	bcf	3,6	;RP1=0, select bank1
  2520  0D87  1411               	bsf	17,0	;volatile
  2521  0D88                     l265:
  2522  0D88  0008               	return
  2523  0D89                     __end_of_I2C_Master_Start:
  2524                           
  2525                           	psect	text7
  2526  0E64                     __ptext7:	
  2527 ;; *************** function _I2C_Master_Read *****************
  2528 ;; Defined at:
  2529 ;;		line 74 in file "C:/Users/Andy Bonilla/Documents/GitHub/ED2/Proyecto1_ED2/PIC_maestro.X/I2C.c"
  2530 ;; Parameters:    Size  Location     Type
  2531 ;;  a               2    8[BANK0 ] unsigned short 
  2532 ;; Auto vars:     Size  Location     Type
  2533 ;;  temp            2   12[BANK0 ] unsigned short 
  2534 ;; Return value:  Size  Location     Type
  2535 ;;                  2    8[BANK0 ] unsigned short 
  2536 ;; Registers used:
  2537 ;;		wreg, status,2, status,0, pclath, cstack
  2538 ;; Tracked objects:
  2539 ;;		On entry : 0/0
  2540 ;;		On exit  : 0/0
  2541 ;;		Unchanged: 0/0
  2542 ;; Data sizes:     COMMON   BANK0   BANK1   BANK3   BANK2
  2543 ;;      Params:         0       2       0       0       0
  2544 ;;      Locals:         0       2       0       0       0
  2545 ;;      Temps:          0       2       0       0       0
  2546 ;;      Totals:         0       6       0       0       0
  2547 ;;Total ram usage:        6 bytes
  2548 ;; Hardware stack levels used: 1
  2549 ;; Hardware stack levels required when called: 4
  2550 ;; This function calls:
  2551 ;;		_I2C_Master_Wait
  2552 ;; This function is called by:
  2553 ;;		_main
  2554 ;;		_setup
  2555 ;; This function uses a non-reentrant model
  2556 ;;
  2557                           
  2558                           
  2559                           ;psect for function _I2C_Master_Read
  2560  0E64                     _I2C_Master_Read:
  2561  0E64                     l1826:	
  2562                           ;incstack = 0
  2563                           ; Regs used in _I2C_Master_Read: [wreg+status,2+status,0+pclath+cstack]
  2564                           
  2565                           
  2566                           ;C:/Users/Andy Bonilla/Documents/GitHub/ED2/Proyecto1_ED2/PIC_maestro.X/I2C.c: 74: unsig
      +                          ned short I2C_Master_Read(unsigned short a);C:/Users/Andy Bonilla/Documents/GitHub/ED2/P
      +                          royecto1_ED2/PIC_maestro.X/I2C.c: 75: {;C:/Users/Andy Bonilla/Documents/GitHub/ED2/Proye
      +                          cto1_ED2/PIC_maestro.X/I2C.c: 76:     unsigned short temp;;C:/Users/Andy Bonilla/Documen
      +                          ts/GitHub/ED2/Proyecto1_ED2/PIC_maestro.X/I2C.c: 77:     I2C_Master_Wait();
  2567  0E64  120A  118A  27F1  120A  158A  	fcall	_I2C_Master_Wait
  2568  0E69                     l1828:
  2569                           
  2570                           ;C:/Users/Andy Bonilla/Documents/GitHub/ED2/Proyecto1_ED2/PIC_maestro.X/I2C.c: 78:     S
      +                          SPCON2bits.RCEN = 1;
  2571  0E69  1683               	bsf	3,5	;RP0=1, select bank1
  2572  0E6A  1303               	bcf	3,6	;RP1=0, select bank1
  2573  0E6B  1591               	bsf	17,3	;volatile
  2574                           
  2575                           ;C:/Users/Andy Bonilla/Documents/GitHub/ED2/Proyecto1_ED2/PIC_maestro.X/I2C.c: 79:     I
      +                          2C_Master_Wait();
  2576  0E6C  120A  118A  27F1  120A  158A  	fcall	_I2C_Master_Wait
  2577  0E71                     l1830:
  2578                           
  2579                           ;C:/Users/Andy Bonilla/Documents/GitHub/ED2/Proyecto1_ED2/PIC_maestro.X/I2C.c: 80:     t
      +                          emp = SSPBUF;
  2580  0E71  1283               	bcf	3,5	;RP0=0, select bank0
  2581  0E72  1303               	bcf	3,6	;RP1=0, select bank0
  2582  0E73  0813               	movf	19,w	;volatile
  2583  0E74  00AA               	movwf	??_I2C_Master_Read
  2584  0E75  01AB               	clrf	??_I2C_Master_Read+1
  2585  0E76  082A               	movf	??_I2C_Master_Read,w
  2586  0E77  00AC               	movwf	I2C_Master_Read@temp
  2587  0E78  082B               	movf	??_I2C_Master_Read+1,w
  2588  0E79  00AD               	movwf	I2C_Master_Read@temp+1
  2589  0E7A                     l1832:
  2590                           
  2591                           ;C:/Users/Andy Bonilla/Documents/GitHub/ED2/Proyecto1_ED2/PIC_maestro.X/I2C.c: 81:     I
      +                          2C_Master_Wait();
  2592  0E7A  120A  118A  27F1  120A  158A  	fcall	_I2C_Master_Wait
  2593  0E7F                     l1834:
  2594                           
  2595                           ;C:/Users/Andy Bonilla/Documents/GitHub/ED2/Proyecto1_ED2/PIC_maestro.X/I2C.c: 82:     i
      +                          f(a == 1){
  2596  0E7F  1283               	bcf	3,5	;RP0=0, select bank0
  2597  0E80  1303               	bcf	3,6	;RP1=0, select bank0
  2598  0E81  0328               	decf	I2C_Master_Read@a,w
  2599  0E82  0429               	iorwf	I2C_Master_Read@a+1,w
  2600  0E83  1D03               	btfss	3,2
  2601  0E84  2E86               	goto	u841
  2602  0E85  2E87               	goto	u840
  2603  0E86                     u841:
  2604  0E86  2E8B               	goto	l277
  2605  0E87                     u840:
  2606  0E87                     l1836:
  2607                           
  2608                           ;C:/Users/Andy Bonilla/Documents/GitHub/ED2/Proyecto1_ED2/PIC_maestro.X/I2C.c: 83:      
      +                             SSPCON2bits.ACKDT = 0;
  2609  0E87  1683               	bsf	3,5	;RP0=1, select bank1
  2610  0E88  1303               	bcf	3,6	;RP1=0, select bank1
  2611  0E89  1291               	bcf	17,5	;volatile
  2612                           
  2613                           ;C:/Users/Andy Bonilla/Documents/GitHub/ED2/Proyecto1_ED2/PIC_maestro.X/I2C.c: 84:     }
      +                          else{
  2614  0E8A  2E8E               	goto	l278
  2615  0E8B                     l277:
  2616                           
  2617                           ;C:/Users/Andy Bonilla/Documents/GitHub/ED2/Proyecto1_ED2/PIC_maestro.X/I2C.c: 85:      
      +                             SSPCON2bits.ACKDT = 1;
  2618  0E8B  1683               	bsf	3,5	;RP0=1, select bank1
  2619  0E8C  1303               	bcf	3,6	;RP1=0, select bank1
  2620  0E8D  1691               	bsf	17,5	;volatile
  2621  0E8E                     l278:	
  2622                           ;C:/Users/Andy Bonilla/Documents/GitHub/ED2/Proyecto1_ED2/PIC_maestro.X/I2C.c: 86:     }
  2623                           
  2624                           
  2625                           ;C:/Users/Andy Bonilla/Documents/GitHub/ED2/Proyecto1_ED2/PIC_maestro.X/I2C.c: 87:     S
      +                          SPCON2bits.ACKEN = 1;
  2626  0E8E  1611               	bsf	17,4	;volatile
  2627  0E8F                     l1838:
  2628                           
  2629                           ;C:/Users/Andy Bonilla/Documents/GitHub/ED2/Proyecto1_ED2/PIC_maestro.X/I2C.c: 88:     r
      +                          eturn temp;
  2630  0E8F  1283               	bcf	3,5	;RP0=0, select bank0
  2631  0E90  1303               	bcf	3,6	;RP1=0, select bank0
  2632  0E91  082D               	movf	I2C_Master_Read@temp+1,w
  2633  0E92  00A9               	movwf	?_I2C_Master_Read+1
  2634  0E93  082C               	movf	I2C_Master_Read@temp,w
  2635  0E94  00A8               	movwf	?_I2C_Master_Read
  2636  0E95                     l279:
  2637  0E95  0008               	return
  2638  0E96                     __end_of_I2C_Master_Read:
  2639                           
  2640                           	psect	text8
  2641  07F1                     __ptext8:	
  2642 ;; *************** function _I2C_Master_Wait *****************
  2643 ;; Defined at:
  2644 ;;		line 32 in file "C:/Users/Andy Bonilla/Documents/GitHub/ED2/Proyecto1_ED2/PIC_maestro.X/I2C.c"
  2645 ;; Parameters:    Size  Location     Type
  2646 ;;		None
  2647 ;; Auto vars:     Size  Location     Type
  2648 ;;		None
  2649 ;; Return value:  Size  Location     Type
  2650 ;;                  1    wreg      void 
  2651 ;; Registers used:
  2652 ;;		wreg, status,2
  2653 ;; Tracked objects:
  2654 ;;		On entry : 0/0
  2655 ;;		On exit  : 0/0
  2656 ;;		Unchanged: 0/0
  2657 ;; Data sizes:     COMMON   BANK0   BANK1   BANK3   BANK2
  2658 ;;      Params:         0       0       0       0       0
  2659 ;;      Locals:         0       0       0       0       0
  2660 ;;      Temps:          0       0       0       0       0
  2661 ;;      Totals:         0       0       0       0       0
  2662 ;;Total ram usage:        0 bytes
  2663 ;; Hardware stack levels used: 1
  2664 ;; Hardware stack levels required when called: 3
  2665 ;; This function calls:
  2666 ;;		Nothing
  2667 ;; This function is called by:
  2668 ;;		_I2C_Master_Start
  2669 ;;		_I2C_Master_Stop
  2670 ;;		_I2C_Master_Write
  2671 ;;		_I2C_Master_Read
  2672 ;;		_I2C_Master_RepeatedStart
  2673 ;; This function uses a non-reentrant model
  2674 ;;
  2675                           
  2676                           
  2677                           ;psect for function _I2C_Master_Wait
  2678  07F1                     _I2C_Master_Wait:
  2679  07F1                     l1786:	
  2680                           ;incstack = 0
  2681                           ; Regs used in _I2C_Master_Wait: [wreg+status,2]
  2682                           
  2683  07F1                     l259:	
  2684                           ;C:/Users/Andy Bonilla/Documents/GitHub/ED2/Proyecto1_ED2/PIC_maestro.X/I2C.c: 34:     w
      +                          hile ((SSPSTAT & 0x04) || (SSPCON2 & 0x1F));
  2685                           
  2686  07F1  1683               	bsf	3,5	;RP0=1, select bank1
  2687  07F2  1303               	bcf	3,6	;RP1=0, select bank1
  2688  07F3  1914               	btfsc	20,2	;volatile
  2689  07F4  2FF6               	goto	u751
  2690  07F5  2FF7               	goto	u750
  2691  07F6                     u751:
  2692  07F6  2FF1               	goto	l259
  2693  07F7                     u750:
  2694  07F7                     l1788:
  2695  07F7  0811               	movf	17,w	;volatile
  2696  07F8  391F               	andlw	31
  2697  07F9  1D03               	btfss	3,2
  2698  07FA  2FFC               	goto	u761
  2699  07FB  2FFD               	goto	u760
  2700  07FC                     u761:
  2701  07FC  2FF1               	goto	l259
  2702  07FD                     u760:
  2703  07FD                     l262:
  2704  07FD  0008               	return
  2705  07FE                     __end_of_I2C_Master_Wait:
  2706                           
  2707                           	psect	text9
  2708  0ECF                     __ptext9:	
  2709 ;; *************** function _I2C_Master_Init *****************
  2710 ;; Defined at:
  2711 ;;		line 16 in file "C:/Users/Andy Bonilla/Documents/GitHub/ED2/Proyecto1_ED2/PIC_maestro.X/I2C.c"
  2712 ;; Parameters:    Size  Location     Type
  2713 ;;  c               4   22[BANK0 ] const unsigned long 
  2714 ;; Auto vars:     Size  Location     Type
  2715 ;;		None
  2716 ;; Return value:  Size  Location     Type
  2717 ;;                  1    wreg      void 
  2718 ;; Registers used:
  2719 ;;		wreg, status,2, status,0, pclath, cstack
  2720 ;; Tracked objects:
  2721 ;;		On entry : 0/0
  2722 ;;		On exit  : 0/0
  2723 ;;		Unchanged: 0/0
  2724 ;; Data sizes:     COMMON   BANK0   BANK1   BANK3   BANK2
  2725 ;;      Params:         0       4       0       0       0
  2726 ;;      Locals:         0       0       0       0       0
  2727 ;;      Temps:          0       4       0       0       0
  2728 ;;      Totals:         0       8       0       0       0
  2729 ;;Total ram usage:        8 bytes
  2730 ;; Hardware stack levels used: 1
  2731 ;; Hardware stack levels required when called: 4
  2732 ;; This function calls:
  2733 ;;		___lldiv
  2734 ;; This function is called by:
  2735 ;;		_setup
  2736 ;; This function uses a non-reentrant model
  2737 ;;
  2738                           
  2739                           
  2740                           ;psect for function _I2C_Master_Init
  2741  0ECF                     _I2C_Master_Init:
  2742  0ECF                     l1884:	
  2743                           ;incstack = 0
  2744                           ; Regs used in _I2C_Master_Init: [wreg+status,2+status,0+pclath+cstack]
  2745                           
  2746                           
  2747                           ;C:/Users/Andy Bonilla/Documents/GitHub/ED2/Proyecto1_ED2/PIC_maestro.X/I2C.c: 16: void 
      +                          I2C_Master_Init(const unsigned long c);C:/Users/Andy Bonilla/Documents/GitHub/ED2/Proyec
      +                          to1_ED2/PIC_maestro.X/I2C.c: 17: {;C:/Users/Andy Bonilla/Documents/GitHub/ED2/Proyecto1_
      +                          ED2/PIC_maestro.X/I2C.c: 18:     SSPCON = 0b00101000;
  2748  0ECF  3028               	movlw	40
  2749  0ED0  1283               	bcf	3,5	;RP0=0, select bank0
  2750  0ED1  1303               	bcf	3,6	;RP1=0, select bank0
  2751  0ED2  0094               	movwf	20	;volatile
  2752  0ED3                     l1886:
  2753                           
  2754                           ;C:/Users/Andy Bonilla/Documents/GitHub/ED2/Proyecto1_ED2/PIC_maestro.X/I2C.c: 19:     S
      +                          SPCON2 = 0;
  2755  0ED3  1683               	bsf	3,5	;RP0=1, select bank1
  2756  0ED4  1303               	bcf	3,6	;RP1=0, select bank1
  2757  0ED5  0191               	clrf	17	;volatile
  2758  0ED6                     l1888:
  2759                           
  2760                           ;C:/Users/Andy Bonilla/Documents/GitHub/ED2/Proyecto1_ED2/PIC_maestro.X/I2C.c: 20:     S
      +                          SPADD = (8000000/(4*c))-1;
  2761  0ED6  1283               	bcf	3,5	;RP0=0, select bank0
  2762  0ED7  1303               	bcf	3,6	;RP1=0, select bank0
  2763  0ED8  0836               	movf	I2C_Master_Init@c,w
  2764  0ED9  00BA               	movwf	??_I2C_Master_Init
  2765  0EDA  0837               	movf	I2C_Master_Init@c+1,w
  2766  0EDB  00BB               	movwf	??_I2C_Master_Init+1
  2767  0EDC  0838               	movf	I2C_Master_Init@c+2,w
  2768  0EDD  00BC               	movwf	??_I2C_Master_Init+2
  2769  0EDE  0839               	movf	I2C_Master_Init@c+3,w
  2770  0EDF  00BD               	movwf	??_I2C_Master_Init+3
  2771  0EE0  3002               	movlw	2
  2772  0EE1                     u855:
  2773  0EE1  1003               	clrc
  2774  0EE2  0DBA               	rlf	??_I2C_Master_Init,f
  2775  0EE3  0DBB               	rlf	??_I2C_Master_Init+1,f
  2776  0EE4  0DBC               	rlf	??_I2C_Master_Init+2,f
  2777  0EE5  0DBD               	rlf	??_I2C_Master_Init+3,f
  2778  0EE6                     u850:
  2779  0EE6  3EFF               	addlw	-1
  2780  0EE7  1D03               	skipz
  2781  0EE8  2EE1               	goto	u855
  2782  0EE9  083D               	movf	??_I2C_Master_Init+3,w
  2783  0EEA  00AB               	movwf	___lldiv@divisor+3
  2784  0EEB  083C               	movf	??_I2C_Master_Init+2,w
  2785  0EEC  00AA               	movwf	___lldiv@divisor+2
  2786  0EED  083B               	movf	??_I2C_Master_Init+1,w
  2787  0EEE  00A9               	movwf	___lldiv@divisor+1
  2788  0EEF  083A               	movf	??_I2C_Master_Init,w
  2789  0EF0  00A8               	movwf	___lldiv@divisor
  2790  0EF1  3000               	movlw	0
  2791  0EF2  00AF               	movwf	___lldiv@dividend+3
  2792  0EF3  307A               	movlw	122
  2793  0EF4  00AE               	movwf	___lldiv@dividend+2
  2794  0EF5  3012               	movlw	18
  2795  0EF6  00AD               	movwf	___lldiv@dividend+1
  2796  0EF7  3000               	movlw	0
  2797  0EF8  00AC               	movwf	___lldiv@dividend
  2798  0EF9  120A  118A  267D  120A  158A  	fcall	___lldiv
  2799  0EFE  1283               	bcf	3,5	;RP0=0, select bank0
  2800  0EFF  1303               	bcf	3,6	;RP1=0, select bank0
  2801  0F00  0828               	movf	?___lldiv,w
  2802  0F01  3EFF               	addlw	255
  2803  0F02  1683               	bsf	3,5	;RP0=1, select bank1
  2804  0F03  1303               	bcf	3,6	;RP1=0, select bank1
  2805  0F04  0093               	movwf	19	;volatile
  2806  0F05                     l1890:
  2807                           
  2808                           ;C:/Users/Andy Bonilla/Documents/GitHub/ED2/Proyecto1_ED2/PIC_maestro.X/I2C.c: 21:     S
      +                          SPSTAT = 0;
  2809  0F05  0194               	clrf	20	;volatile
  2810  0F06                     l1892:
  2811                           
  2812                           ;C:/Users/Andy Bonilla/Documents/GitHub/ED2/Proyecto1_ED2/PIC_maestro.X/I2C.c: 22:     T
      +                          RISCbits.TRISC3 = 1;
  2813  0F06  1587               	bsf	7,3	;volatile
  2814  0F07                     l1894:
  2815                           
  2816                           ;C:/Users/Andy Bonilla/Documents/GitHub/ED2/Proyecto1_ED2/PIC_maestro.X/I2C.c: 23:     T
      +                          RISCbits.TRISC4 = 1;
  2817  0F07  1607               	bsf	7,4	;volatile
  2818  0F08                     l256:
  2819  0F08  0008               	return
  2820  0F09                     __end_of_I2C_Master_Init:
  2821                           
  2822                           	psect	text10
  2823  067D                     __ptext10:	
  2824 ;; *************** function ___lldiv *****************
  2825 ;; Defined at:
  2826 ;;		line 5 in file "C:\Program Files\Microchip\xc8\v2.32\pic\sources\c90\common\__lldiv.c"
  2827 ;; Parameters:    Size  Location     Type
  2828 ;;  divisor         4    8[BANK0 ] unsigned long 
  2829 ;;  dividend        4   12[BANK0 ] unsigned long 
  2830 ;; Auto vars:     Size  Location     Type
  2831 ;;  quotient        4   17[BANK0 ] unsigned long 
  2832 ;;  counter         1   21[BANK0 ] unsigned char 
  2833 ;; Return value:  Size  Location     Type
  2834 ;;                  4    8[BANK0 ] unsigned long 
  2835 ;; Registers used:
  2836 ;;		wreg, status,2, status,0
  2837 ;; Tracked objects:
  2838 ;;		On entry : 0/0
  2839 ;;		On exit  : 0/0
  2840 ;;		Unchanged: 0/0
  2841 ;; Data sizes:     COMMON   BANK0   BANK1   BANK3   BANK2
  2842 ;;      Params:         0       8       0       0       0
  2843 ;;      Locals:         0       5       0       0       0
  2844 ;;      Temps:          0       1       0       0       0
  2845 ;;      Totals:         0      14       0       0       0
  2846 ;;Total ram usage:       14 bytes
  2847 ;; Hardware stack levels used: 1
  2848 ;; Hardware stack levels required when called: 3
  2849 ;; This function calls:
  2850 ;;		Nothing
  2851 ;; This function is called by:
  2852 ;;		_I2C_Master_Init
  2853 ;; This function uses a non-reentrant model
  2854 ;;
  2855                           
  2856                           
  2857                           ;psect for function ___lldiv
  2858  067D                     ___lldiv:
  2859  067D                     l1790:	
  2860                           ;incstack = 0
  2861                           ; Regs used in ___lldiv: [wreg+status,2+status,0]
  2862                           
  2863  067D  3000               	movlw	0
  2864  067E  1283               	bcf	3,5	;RP0=0, select bank0
  2865  067F  1303               	bcf	3,6	;RP1=0, select bank0
  2866  0680  00B4               	movwf	___lldiv@quotient+3
  2867  0681  3000               	movlw	0
  2868  0682  00B3               	movwf	___lldiv@quotient+2
  2869  0683  3000               	movlw	0
  2870  0684  00B2               	movwf	___lldiv@quotient+1
  2871  0685  3000               	movlw	0
  2872  0686  00B1               	movwf	___lldiv@quotient
  2873  0687  082B               	movf	___lldiv@divisor+3,w
  2874  0688  042A               	iorwf	___lldiv@divisor+2,w
  2875  0689  0429               	iorwf	___lldiv@divisor+1,w
  2876  068A  0428               	iorwf	___lldiv@divisor,w
  2877  068B  1903               	skipnz
  2878  068C  2E8E               	goto	u771
  2879  068D  2E8F               	goto	u770
  2880  068E                     u771:
  2881  068E  2EDC               	goto	l1810
  2882  068F                     u770:
  2883  068F                     l1792:
  2884  068F  01B5               	clrf	___lldiv@counter
  2885  0690  0AB5               	incf	___lldiv@counter,f
  2886  0691  2E9F               	goto	l1796
  2887  0692                     l1794:
  2888  0692  3001               	movlw	1
  2889  0693  00B0               	movwf	??___lldiv
  2890  0694                     u785:
  2891  0694  1003               	clrc
  2892  0695  0DA8               	rlf	___lldiv@divisor,f
  2893  0696  0DA9               	rlf	___lldiv@divisor+1,f
  2894  0697  0DAA               	rlf	___lldiv@divisor+2,f
  2895  0698  0DAB               	rlf	___lldiv@divisor+3,f
  2896  0699  0BB0               	decfsz	??___lldiv,f
  2897  069A  2E94               	goto	u785
  2898  069B  3001               	movlw	1
  2899  069C  00B0               	movwf	??___lldiv
  2900  069D  0830               	movf	??___lldiv,w
  2901  069E  07B5               	addwf	___lldiv@counter,f
  2902  069F                     l1796:
  2903  069F  1FAB               	btfss	___lldiv@divisor+3,7
  2904  06A0  2EA2               	goto	u791
  2905  06A1  2EA3               	goto	u790
  2906  06A2                     u791:
  2907  06A2  2E92               	goto	l1794
  2908  06A3                     u790:
  2909  06A3                     l1798:
  2910  06A3  3001               	movlw	1
  2911  06A4  00B0               	movwf	??___lldiv
  2912  06A5                     u805:
  2913  06A5  1003               	clrc
  2914  06A6  0DB1               	rlf	___lldiv@quotient,f
  2915  06A7  0DB2               	rlf	___lldiv@quotient+1,f
  2916  06A8  0DB3               	rlf	___lldiv@quotient+2,f
  2917  06A9  0DB4               	rlf	___lldiv@quotient+3,f
  2918  06AA  0BB0               	decfsz	??___lldiv,f
  2919  06AB  2EA5               	goto	u805
  2920  06AC                     l1800:
  2921  06AC  082B               	movf	___lldiv@divisor+3,w
  2922  06AD  022F               	subwf	___lldiv@dividend+3,w
  2923  06AE  1D03               	skipz
  2924  06AF  2EBA               	goto	u815
  2925  06B0  082A               	movf	___lldiv@divisor+2,w
  2926  06B1  022E               	subwf	___lldiv@dividend+2,w
  2927  06B2  1D03               	skipz
  2928  06B3  2EBA               	goto	u815
  2929  06B4  0829               	movf	___lldiv@divisor+1,w
  2930  06B5  022D               	subwf	___lldiv@dividend+1,w
  2931  06B6  1D03               	skipz
  2932  06B7  2EBA               	goto	u815
  2933  06B8  0828               	movf	___lldiv@divisor,w
  2934  06B9  022C               	subwf	___lldiv@dividend,w
  2935  06BA                     u815:
  2936  06BA  1C03               	skipc
  2937  06BB  2EBD               	goto	u811
  2938  06BC  2EBE               	goto	u810
  2939  06BD                     u811:
  2940  06BD  2ECD               	goto	l1806
  2941  06BE                     u810:
  2942  06BE                     l1802:
  2943  06BE  0828               	movf	___lldiv@divisor,w
  2944  06BF  02AC               	subwf	___lldiv@dividend,f
  2945  06C0  0829               	movf	___lldiv@divisor+1,w
  2946  06C1  1C03               	skipc
  2947  06C2  0F29               	incfsz	___lldiv@divisor+1,w
  2948  06C3  02AD               	subwf	___lldiv@dividend+1,f
  2949  06C4  082A               	movf	___lldiv@divisor+2,w
  2950  06C5  1C03               	skipc
  2951  06C6  0F2A               	incfsz	___lldiv@divisor+2,w
  2952  06C7  02AE               	subwf	___lldiv@dividend+2,f
  2953  06C8  082B               	movf	___lldiv@divisor+3,w
  2954  06C9  1C03               	skipc
  2955  06CA  0F2B               	incfsz	___lldiv@divisor+3,w
  2956  06CB  02AF               	subwf	___lldiv@dividend+3,f
  2957  06CC                     l1804:
  2958  06CC  1431               	bsf	___lldiv@quotient,0
  2959  06CD                     l1806:
  2960  06CD  3001               	movlw	1
  2961  06CE                     u825:
  2962  06CE  1003               	clrc
  2963  06CF  0CAB               	rrf	___lldiv@divisor+3,f
  2964  06D0  0CAA               	rrf	___lldiv@divisor+2,f
  2965  06D1  0CA9               	rrf	___lldiv@divisor+1,f
  2966  06D2  0CA8               	rrf	___lldiv@divisor,f
  2967  06D3  3EFF               	addlw	-1
  2968  06D4  1D03               	skipz
  2969  06D5  2ECE               	goto	u825
  2970  06D6                     l1808:
  2971  06D6  3001               	movlw	1
  2972  06D7  02B5               	subwf	___lldiv@counter,f
  2973  06D8  1D03               	btfss	3,2
  2974  06D9  2EDB               	goto	u831
  2975  06DA  2EDC               	goto	u830
  2976  06DB                     u831:
  2977  06DB  2EA3               	goto	l1798
  2978  06DC                     u830:
  2979  06DC                     l1810:
  2980  06DC  0834               	movf	___lldiv@quotient+3,w
  2981  06DD  00AB               	movwf	?___lldiv+3
  2982  06DE  0833               	movf	___lldiv@quotient+2,w
  2983  06DF  00AA               	movwf	?___lldiv+2
  2984  06E0  0832               	movf	___lldiv@quotient+1,w
  2985  06E1  00A9               	movwf	?___lldiv+1
  2986  06E2  0831               	movf	___lldiv@quotient,w
  2987  06E3  00A8               	movwf	?___lldiv
  2988  06E4                     l428:
  2989  06E4  0008               	return
  2990  06E5                     __end_of___lldiv:
  2991                           
  2992                           	psect	text11
  2993  059B                     __ptext11:	
  2994 ;; *************** function _conver1 *****************
  2995 ;; Defined at:
  2996 ;;		line 259 in file "C:/Users/Andy Bonilla/Documents/GitHub/ED2/Proyecto1_ED2/PIC_maestro.X/main_mastre.c"
  2997 ;; Parameters:    Size  Location     Type
  2998 ;;		None
  2999 ;; Auto vars:     Size  Location     Type
  3000 ;;  temporal       16   27[BANK0 ] unsigned char [16]
  3001 ;; Return value:  Size  Location     Type
  3002 ;;                  1    wreg      PTR const unsigned char 
  3003 ;; Registers used:
  3004 ;;		wreg, status,2, status,0, pclath, cstack
  3005 ;; Tracked objects:
  3006 ;;		On entry : 0/0
  3007 ;;		On exit  : 0/0
  3008 ;;		Unchanged: 0/0
  3009 ;; Data sizes:     COMMON   BANK0   BANK1   BANK3   BANK2
  3010 ;;      Params:         0       0       0       0       0
  3011 ;;      Locals:         0      16       0       0       0
  3012 ;;      Temps:          0       3       0       0       0
  3013 ;;      Totals:         0      19       0       0       0
  3014 ;;Total ram usage:       19 bytes
  3015 ;; Hardware stack levels used: 1
  3016 ;; Hardware stack levels required when called: 4
  3017 ;; This function calls:
  3018 ;;		___awdiv
  3019 ;;		___awmod
  3020 ;; This function is called by:
  3021 ;;		_main
  3022 ;; This function uses a non-reentrant model
  3023 ;;
  3024                           
  3025                           
  3026                           ;psect for function _conver1
  3027  059B                     _conver1:
  3028  059B                     l2302:	
  3029                           ;incstack = 0
  3030                           ; Regs used in _conver1: [wreg+status,2+status,0+pclath+cstack]
  3031                           
  3032                           
  3033                           ;C:/Users/Andy Bonilla/Documents/GitHub/ED2/Proyecto1_ED2/PIC_maestro.X/main_mastre.c: 2
      +                          61:     char temporal[16];;C:/Users/Andy Bonilla/Documents/GitHub/ED2/Proyecto1_ED2/PIC_
      +                          maestro.X/main_mastre.c: 262:     temporal[0] = C1;
  3034  059B  1283               	bcf	3,5	;RP0=0, select bank0
  3035  059C  1303               	bcf	3,6	;RP1=0, select bank0
  3036  059D  0857               	movf	_C1,w
  3037  059E  00B8               	movwf	??_conver1
  3038  059F  0838               	movf	??_conver1,w
  3039  05A0  00BB               	movwf	conver1@temporal
  3040                           
  3041                           ;C:/Users/Andy Bonilla/Documents/GitHub/ED2/Proyecto1_ED2/PIC_maestro.X/main_mastre.c: 2
      +                          63:     temporal[1] = C2;
  3042  05A1  0856               	movf	_C2,w
  3043  05A2  00B8               	movwf	??_conver1
  3044  05A3  0838               	movf	??_conver1,w
  3045  05A4  00BC               	movwf	conver1@temporal+1
  3046                           
  3047                           ;C:/Users/Andy Bonilla/Documents/GitHub/ED2/Proyecto1_ED2/PIC_maestro.X/main_mastre.c: 2
      +                          64:     temporal[2] = C3;
  3048  05A5  0855               	movf	_C3,w
  3049  05A6  00B8               	movwf	??_conver1
  3050  05A7  0838               	movf	??_conver1,w
  3051  05A8  00BD               	movwf	conver1@temporal+2
  3052                           
  3053                           ;C:/Users/Andy Bonilla/Documents/GitHub/ED2/Proyecto1_ED2/PIC_maestro.X/main_mastre.c: 2
      +                          65:     temporal[3] = 0x2E;
  3054  05A9  302E               	movlw	46
  3055  05AA  00B8               	movwf	??_conver1
  3056  05AB  0838               	movf	??_conver1,w
  3057  05AC  00BE               	movwf	conver1@temporal+3
  3058                           
  3059                           ;C:/Users/Andy Bonilla/Documents/GitHub/ED2/Proyecto1_ED2/PIC_maestro.X/main_mastre.c: 2
      +                          66:     temporal[4] = 0x20;
  3060  05AD  3020               	movlw	32
  3061  05AE  00B8               	movwf	??_conver1
  3062  05AF  0838               	movf	??_conver1,w
  3063  05B0  00BF               	movwf	conver1@temporal+4
  3064                           
  3065                           ;C:/Users/Andy Bonilla/Documents/GitHub/ED2/Proyecto1_ED2/PIC_maestro.X/main_mastre.c: 2
      +                          67:     temporal[5] = DH;
  3066  05B1  0853               	movf	_DH,w
  3067  05B2  00B8               	movwf	??_conver1
  3068  05B3  0838               	movf	??_conver1,w
  3069  05B4  00C0               	movwf	conver1@temporal+5
  3070                           
  3071                           ;C:/Users/Andy Bonilla/Documents/GitHub/ED2/Proyecto1_ED2/PIC_maestro.X/main_mastre.c: 2
      +                          68:     temporal[6] = UH;
  3072  05B5  0854               	movf	_UH,w
  3073  05B6  00B8               	movwf	??_conver1
  3074  05B7  0838               	movf	??_conver1,w
  3075  05B8  00C1               	movwf	conver1@temporal+6
  3076                           
  3077                           ;C:/Users/Andy Bonilla/Documents/GitHub/ED2/Proyecto1_ED2/PIC_maestro.X/main_mastre.c: 2
      +                          69:     temporal[7] = 0x3A;
  3078  05B9  303A               	movlw	58
  3079  05BA  00B8               	movwf	??_conver1
  3080  05BB  0838               	movf	??_conver1,w
  3081  05BC  00C2               	movwf	conver1@temporal+7
  3082                           
  3083                           ;C:/Users/Andy Bonilla/Documents/GitHub/ED2/Proyecto1_ED2/PIC_maestro.X/main_mastre.c: 2
      +                          70:     temporal[8] = DM;
  3084  05BD  0851               	movf	_DM,w
  3085  05BE  00B8               	movwf	??_conver1
  3086  05BF  0838               	movf	??_conver1,w
  3087  05C0  00C3               	movwf	conver1@temporal+8
  3088                           
  3089                           ;C:/Users/Andy Bonilla/Documents/GitHub/ED2/Proyecto1_ED2/PIC_maestro.X/main_mastre.c: 2
      +                          71:     temporal[9] = UM;
  3090  05C1  0852               	movf	_UM,w
  3091  05C2  00B8               	movwf	??_conver1
  3092  05C3  0838               	movf	??_conver1,w
  3093  05C4  00C4               	movwf	conver1@temporal+9
  3094                           
  3095                           ;C:/Users/Andy Bonilla/Documents/GitHub/ED2/Proyecto1_ED2/PIC_maestro.X/main_mastre.c: 2
      +                          72:     temporal[10] = 0x20;
  3096  05C5  3020               	movlw	32
  3097  05C6  00B8               	movwf	??_conver1
  3098  05C7  0838               	movf	??_conver1,w
  3099  05C8  00C5               	movwf	conver1@temporal+10
  3100  05C9                     l2304:
  3101                           
  3102                           ;C:/Users/Andy Bonilla/Documents/GitHub/ED2/Proyecto1_ED2/PIC_maestro.X/main_mastre.c: 2
      +                          73:     temporal[11] = ((temperatura/10)%10+0x30);
  3103  05C9  300A               	movlw	10
  3104  05CA  00B1               	movwf	___awmod@divisor
  3105  05CB  3000               	movlw	0
  3106  05CC  00B2               	movwf	___awmod@divisor+1
  3107  05CD  300A               	movlw	10
  3108  05CE  00A8               	movwf	___awdiv@divisor
  3109  05CF  3000               	movlw	0
  3110  05D0  00A9               	movwf	___awdiv@divisor+1
  3111  05D1  084E               	movf	_temperatura,w
  3112  05D2  00B8               	movwf	??_conver1
  3113  05D3  01B9               	clrf	??_conver1+1
  3114  05D4  0838               	movf	??_conver1,w
  3115  05D5  00AA               	movwf	___awdiv@dividend
  3116  05D6  0839               	movf	??_conver1+1,w
  3117  05D7  00AB               	movwf	___awdiv@dividend+1
  3118  05D8  120A  118A  2614  120A  118A  	fcall	___awdiv
  3119  05DD  1283               	bcf	3,5	;RP0=0, select bank0
  3120  05DE  1303               	bcf	3,6	;RP1=0, select bank0
  3121  05DF  0829               	movf	?___awdiv+1,w
  3122  05E0  00B4               	movwf	___awmod@dividend+1
  3123  05E1  0828               	movf	?___awdiv,w
  3124  05E2  00B3               	movwf	___awmod@dividend
  3125  05E3  120A  158A  27A5  120A  118A  	fcall	___awmod
  3126  05E8  1283               	bcf	3,5	;RP0=0, select bank0
  3127  05E9  1303               	bcf	3,6	;RP1=0, select bank0
  3128  05EA  0831               	movf	?___awmod,w
  3129  05EB  3E30               	addlw	48
  3130  05EC  00BA               	movwf	??_conver1+2
  3131  05ED  083A               	movf	??_conver1+2,w
  3132  05EE  00C6               	movwf	conver1@temporal+11
  3133  05EF                     l2306:
  3134                           
  3135                           ;C:/Users/Andy Bonilla/Documents/GitHub/ED2/Proyecto1_ED2/PIC_maestro.X/main_mastre.c: 2
      +                          74:     temporal[12] = ((temperatura%10)+0x30);
  3136  05EF  300A               	movlw	10
  3137  05F0  00B1               	movwf	___awmod@divisor
  3138  05F1  3000               	movlw	0
  3139  05F2  00B2               	movwf	___awmod@divisor+1
  3140  05F3  084E               	movf	_temperatura,w
  3141  05F4  00B8               	movwf	??_conver1
  3142  05F5  01B9               	clrf	??_conver1+1
  3143  05F6  0838               	movf	??_conver1,w
  3144  05F7  00B3               	movwf	___awmod@dividend
  3145  05F8  0839               	movf	??_conver1+1,w
  3146  05F9  00B4               	movwf	___awmod@dividend+1
  3147  05FA  120A  158A  27A5  120A  118A  	fcall	___awmod
  3148  05FF  1283               	bcf	3,5	;RP0=0, select bank0
  3149  0600  1303               	bcf	3,6	;RP1=0, select bank0
  3150  0601  0831               	movf	?___awmod,w
  3151  0602  3E30               	addlw	48
  3152  0603  00BA               	movwf	??_conver1+2
  3153  0604  083A               	movf	??_conver1+2,w
  3154  0605  00C7               	movwf	conver1@temporal+12
  3155                           
  3156                           ;C:/Users/Andy Bonilla/Documents/GitHub/ED2/Proyecto1_ED2/PIC_maestro.X/main_mastre.c: 2
      +                          75:     temporal[13] = 0xDF;
  3157  0606  30DF               	movlw	223
  3158  0607  00B8               	movwf	??_conver1
  3159  0608  0838               	movf	??_conver1,w
  3160  0609  00C8               	movwf	conver1@temporal+13
  3161                           
  3162                           ;C:/Users/Andy Bonilla/Documents/GitHub/ED2/Proyecto1_ED2/PIC_maestro.X/main_mastre.c: 2
      +                          76:     temporal[14] = 0x43;
  3163  060A  3043               	movlw	67
  3164  060B  00B8               	movwf	??_conver1
  3165  060C  0838               	movf	??_conver1,w
  3166  060D  00C9               	movwf	conver1@temporal+14
  3167                           
  3168                           ;C:/Users/Andy Bonilla/Documents/GitHub/ED2/Proyecto1_ED2/PIC_maestro.X/main_mastre.c: 2
      +                          77:     temporal[15] = 0x20;
  3169  060E  3020               	movlw	32
  3170  060F  00B8               	movwf	??_conver1
  3171  0610  0838               	movf	??_conver1,w
  3172  0611  00CA               	movwf	conver1@temporal+15
  3173                           
  3174                           ;C:/Users/Andy Bonilla/Documents/GitHub/ED2/Proyecto1_ED2/PIC_maestro.X/main_mastre.c: 2
      +                          78:     return temporal;
  3175  0612  303B               	movlw	(low (conver1@temporal| 0))& (0+255)
  3176  0613                     l121:
  3177  0613  0008               	return
  3178  0614                     __end_of_conver1:
  3179                           
  3180                           	psect	text12
  3181  0FA5                     __ptext12:	
  3182 ;; *************** function ___awmod *****************
  3183 ;; Defined at:
  3184 ;;		line 5 in file "C:\Program Files\Microchip\xc8\v2.32\pic\sources\c90\common\awmod.c"
  3185 ;; Parameters:    Size  Location     Type
  3186 ;;  divisor         2   17[BANK0 ] int 
  3187 ;;  dividend        2   19[BANK0 ] int 
  3188 ;; Auto vars:     Size  Location     Type
  3189 ;;  sign            1   23[BANK0 ] unsigned char 
  3190 ;;  counter         1   22[BANK0 ] unsigned char 
  3191 ;; Return value:  Size  Location     Type
  3192 ;;                  2   17[BANK0 ] int 
  3193 ;; Registers used:
  3194 ;;		wreg, status,2, status,0
  3195 ;; Tracked objects:
  3196 ;;		On entry : 0/0
  3197 ;;		On exit  : 0/0
  3198 ;;		Unchanged: 0/0
  3199 ;; Data sizes:     COMMON   BANK0   BANK1   BANK3   BANK2
  3200 ;;      Params:         0       4       0       0       0
  3201 ;;      Locals:         0       2       0       0       0
  3202 ;;      Temps:          0       1       0       0       0
  3203 ;;      Totals:         0       7       0       0       0
  3204 ;;Total ram usage:        7 bytes
  3205 ;; Hardware stack levels used: 1
  3206 ;; Hardware stack levels required when called: 3
  3207 ;; This function calls:
  3208 ;;		Nothing
  3209 ;; This function is called by:
  3210 ;;		_conver1
  3211 ;; This function uses a non-reentrant model
  3212 ;;
  3213                           
  3214                           
  3215                           ;psect for function ___awmod
  3216  0FA5                     ___awmod:
  3217  0FA5                     l2042:	
  3218                           ;incstack = 0
  3219                           ; Regs used in ___awmod: [wreg+status,2+status,0]
  3220                           
  3221  0FA5  1283               	bcf	3,5	;RP0=0, select bank0
  3222  0FA6  1303               	bcf	3,6	;RP1=0, select bank0
  3223  0FA7  01B7               	clrf	___awmod@sign
  3224  0FA8                     l2044:
  3225  0FA8  1FB4               	btfss	___awmod@dividend+1,7
  3226  0FA9  2FAB               	goto	u961
  3227  0FAA  2FAC               	goto	u960
  3228  0FAB                     u961:
  3229  0FAB  2FB3               	goto	l2050
  3230  0FAC                     u960:
  3231  0FAC                     l2046:
  3232  0FAC  09B3               	comf	___awmod@dividend,f
  3233  0FAD  09B4               	comf	___awmod@dividend+1,f
  3234  0FAE  0AB3               	incf	___awmod@dividend,f
  3235  0FAF  1903               	skipnz
  3236  0FB0  0AB4               	incf	___awmod@dividend+1,f
  3237  0FB1                     l2048:
  3238  0FB1  01B7               	clrf	___awmod@sign
  3239  0FB2  0AB7               	incf	___awmod@sign,f
  3240  0FB3                     l2050:
  3241  0FB3  1FB2               	btfss	___awmod@divisor+1,7
  3242  0FB4  2FB6               	goto	u971
  3243  0FB5  2FB7               	goto	u970
  3244  0FB6                     u971:
  3245  0FB6  2FBC               	goto	l2054
  3246  0FB7                     u970:
  3247  0FB7                     l2052:
  3248  0FB7  09B1               	comf	___awmod@divisor,f
  3249  0FB8  09B2               	comf	___awmod@divisor+1,f
  3250  0FB9  0AB1               	incf	___awmod@divisor,f
  3251  0FBA  1903               	skipnz
  3252  0FBB  0AB2               	incf	___awmod@divisor+1,f
  3253  0FBC                     l2054:
  3254  0FBC  0831               	movf	___awmod@divisor,w
  3255  0FBD  0432               	iorwf	___awmod@divisor+1,w
  3256  0FBE  1903               	btfsc	3,2
  3257  0FBF  2FC1               	goto	u981
  3258  0FC0  2FC2               	goto	u980
  3259  0FC1                     u981:
  3260  0FC1  2FF1               	goto	l2072
  3261  0FC2                     u980:
  3262  0FC2                     l2056:
  3263  0FC2  01B6               	clrf	___awmod@counter
  3264  0FC3  0AB6               	incf	___awmod@counter,f
  3265  0FC4  2FD0               	goto	l2062
  3266  0FC5                     l2058:
  3267  0FC5  3001               	movlw	1
  3268  0FC6                     u995:
  3269  0FC6  1003               	clrc
  3270  0FC7  0DB1               	rlf	___awmod@divisor,f
  3271  0FC8  0DB2               	rlf	___awmod@divisor+1,f
  3272  0FC9  3EFF               	addlw	-1
  3273  0FCA  1D03               	skipz
  3274  0FCB  2FC6               	goto	u995
  3275  0FCC                     l2060:
  3276  0FCC  3001               	movlw	1
  3277  0FCD  00B5               	movwf	??___awmod
  3278  0FCE  0835               	movf	??___awmod,w
  3279  0FCF  07B6               	addwf	___awmod@counter,f
  3280  0FD0                     l2062:
  3281  0FD0  1FB2               	btfss	___awmod@divisor+1,7
  3282  0FD1  2FD3               	goto	u1001
  3283  0FD2  2FD4               	goto	u1000
  3284  0FD3                     u1001:
  3285  0FD3  2FC5               	goto	l2058
  3286  0FD4                     u1000:
  3287  0FD4                     l2064:
  3288  0FD4  0832               	movf	___awmod@divisor+1,w
  3289  0FD5  0234               	subwf	___awmod@dividend+1,w
  3290  0FD6  1D03               	skipz
  3291  0FD7  2FDA               	goto	u1015
  3292  0FD8  0831               	movf	___awmod@divisor,w
  3293  0FD9  0233               	subwf	___awmod@dividend,w
  3294  0FDA                     u1015:
  3295  0FDA  1C03               	skipc
  3296  0FDB  2FDD               	goto	u1011
  3297  0FDC  2FDE               	goto	u1010
  3298  0FDD                     u1011:
  3299  0FDD  2FE4               	goto	l2068
  3300  0FDE                     u1010:
  3301  0FDE                     l2066:
  3302  0FDE  0831               	movf	___awmod@divisor,w
  3303  0FDF  02B3               	subwf	___awmod@dividend,f
  3304  0FE0  0832               	movf	___awmod@divisor+1,w
  3305  0FE1  1C03               	skipc
  3306  0FE2  03B4               	decf	___awmod@dividend+1,f
  3307  0FE3  02B4               	subwf	___awmod@dividend+1,f
  3308  0FE4                     l2068:
  3309  0FE4  3001               	movlw	1
  3310  0FE5                     u1025:
  3311  0FE5  1003               	clrc
  3312  0FE6  0CB2               	rrf	___awmod@divisor+1,f
  3313  0FE7  0CB1               	rrf	___awmod@divisor,f
  3314  0FE8  3EFF               	addlw	-1
  3315  0FE9  1D03               	skipz
  3316  0FEA  2FE5               	goto	u1025
  3317  0FEB                     l2070:
  3318  0FEB  3001               	movlw	1
  3319  0FEC  02B6               	subwf	___awmod@counter,f
  3320  0FED  1D03               	btfss	3,2
  3321  0FEE  2FF0               	goto	u1031
  3322  0FEF  2FF1               	goto	u1030
  3323  0FF0                     u1031:
  3324  0FF0  2FD4               	goto	l2064
  3325  0FF1                     u1030:
  3326  0FF1                     l2072:
  3327  0FF1  0837               	movf	___awmod@sign,w
  3328  0FF2  1903               	btfsc	3,2
  3329  0FF3  2FF5               	goto	u1041
  3330  0FF4  2FF6               	goto	u1040
  3331  0FF5                     u1041:
  3332  0FF5  2FFB               	goto	l2076
  3333  0FF6                     u1040:
  3334  0FF6                     l2074:
  3335  0FF6  09B3               	comf	___awmod@dividend,f
  3336  0FF7  09B4               	comf	___awmod@dividend+1,f
  3337  0FF8  0AB3               	incf	___awmod@dividend,f
  3338  0FF9  1903               	skipnz
  3339  0FFA  0AB4               	incf	___awmod@dividend+1,f
  3340  0FFB                     l2076:
  3341  0FFB  0834               	movf	___awmod@dividend+1,w
  3342  0FFC  00B2               	movwf	?___awmod+1
  3343  0FFD  0833               	movf	___awmod@dividend,w
  3344  0FFE  00B1               	movwf	?___awmod
  3345  0FFF                     l558:
  3346  0FFF  0008               	return
  3347  1000                     __end_of___awmod:
  3348                           
  3349                           	psect	text13
  3350  0614                     __ptext13:	
  3351 ;; *************** function ___awdiv *****************
  3352 ;; Defined at:
  3353 ;;		line 5 in file "C:\Program Files\Microchip\xc8\v2.32\pic\sources\c90\common\awdiv.c"
  3354 ;; Parameters:    Size  Location     Type
  3355 ;;  divisor         2    8[BANK0 ] int 
  3356 ;;  dividend        2   10[BANK0 ] int 
  3357 ;; Auto vars:     Size  Location     Type
  3358 ;;  quotient        2   15[BANK0 ] int 
  3359 ;;  sign            1   14[BANK0 ] unsigned char 
  3360 ;;  counter         1   13[BANK0 ] unsigned char 
  3361 ;; Return value:  Size  Location     Type
  3362 ;;                  2    8[BANK0 ] int 
  3363 ;; Registers used:
  3364 ;;		wreg, status,2, status,0
  3365 ;; Tracked objects:
  3366 ;;		On entry : 0/0
  3367 ;;		On exit  : 0/0
  3368 ;;		Unchanged: 0/0
  3369 ;; Data sizes:     COMMON   BANK0   BANK1   BANK3   BANK2
  3370 ;;      Params:         0       4       0       0       0
  3371 ;;      Locals:         0       4       0       0       0
  3372 ;;      Temps:          0       1       0       0       0
  3373 ;;      Totals:         0       9       0       0       0
  3374 ;;Total ram usage:        9 bytes
  3375 ;; Hardware stack levels used: 1
  3376 ;; Hardware stack levels required when called: 3
  3377 ;; This function calls:
  3378 ;;		Nothing
  3379 ;; This function is called by:
  3380 ;;		_conver1
  3381 ;; This function uses a non-reentrant model
  3382 ;;
  3383                           
  3384                           
  3385                           ;psect for function ___awdiv
  3386  0614                     ___awdiv:
  3387  0614                     l1998:	
  3388                           ;incstack = 0
  3389                           ; Regs used in ___awdiv: [wreg+status,2+status,0]
  3390                           
  3391  0614  1283               	bcf	3,5	;RP0=0, select bank0
  3392  0615  1303               	bcf	3,6	;RP1=0, select bank0
  3393  0616  01AE               	clrf	___awdiv@sign
  3394  0617                     l2000:
  3395  0617  1FA9               	btfss	___awdiv@divisor+1,7
  3396  0618  2E1A               	goto	u861
  3397  0619  2E1B               	goto	u860
  3398  061A                     u861:
  3399  061A  2E22               	goto	l2006
  3400  061B                     u860:
  3401  061B                     l2002:
  3402  061B  09A8               	comf	___awdiv@divisor,f
  3403  061C  09A9               	comf	___awdiv@divisor+1,f
  3404  061D  0AA8               	incf	___awdiv@divisor,f
  3405  061E  1903               	skipnz
  3406  061F  0AA9               	incf	___awdiv@divisor+1,f
  3407  0620                     l2004:
  3408  0620  01AE               	clrf	___awdiv@sign
  3409  0621  0AAE               	incf	___awdiv@sign,f
  3410  0622                     l2006:
  3411  0622  1FAB               	btfss	___awdiv@dividend+1,7
  3412  0623  2E25               	goto	u871
  3413  0624  2E26               	goto	u870
  3414  0625                     u871:
  3415  0625  2E2F               	goto	l2012
  3416  0626                     u870:
  3417  0626                     l2008:
  3418  0626  09AA               	comf	___awdiv@dividend,f
  3419  0627  09AB               	comf	___awdiv@dividend+1,f
  3420  0628  0AAA               	incf	___awdiv@dividend,f
  3421  0629  1903               	skipnz
  3422  062A  0AAB               	incf	___awdiv@dividend+1,f
  3423  062B                     l2010:
  3424  062B  3001               	movlw	1
  3425  062C  00AC               	movwf	??___awdiv
  3426  062D  082C               	movf	??___awdiv,w
  3427  062E  06AE               	xorwf	___awdiv@sign,f
  3428  062F                     l2012:
  3429  062F  01AF               	clrf	___awdiv@quotient
  3430  0630  01B0               	clrf	___awdiv@quotient+1
  3431  0631                     l2014:
  3432  0631  0828               	movf	___awdiv@divisor,w
  3433  0632  0429               	iorwf	___awdiv@divisor+1,w
  3434  0633  1903               	btfsc	3,2
  3435  0634  2E36               	goto	u881
  3436  0635  2E37               	goto	u880
  3437  0636                     u881:
  3438  0636  2E6E               	goto	l2034
  3439  0637                     u880:
  3440  0637                     l2016:
  3441  0637  01AD               	clrf	___awdiv@counter
  3442  0638  0AAD               	incf	___awdiv@counter,f
  3443  0639  2E45               	goto	l2022
  3444  063A                     l2018:
  3445  063A  3001               	movlw	1
  3446  063B                     u895:
  3447  063B  1003               	clrc
  3448  063C  0DA8               	rlf	___awdiv@divisor,f
  3449  063D  0DA9               	rlf	___awdiv@divisor+1,f
  3450  063E  3EFF               	addlw	-1
  3451  063F  1D03               	skipz
  3452  0640  2E3B               	goto	u895
  3453  0641                     l2020:
  3454  0641  3001               	movlw	1
  3455  0642  00AC               	movwf	??___awdiv
  3456  0643  082C               	movf	??___awdiv,w
  3457  0644  07AD               	addwf	___awdiv@counter,f
  3458  0645                     l2022:
  3459  0645  1FA9               	btfss	___awdiv@divisor+1,7
  3460  0646  2E48               	goto	u901
  3461  0647  2E49               	goto	u900
  3462  0648                     u901:
  3463  0648  2E3A               	goto	l2018
  3464  0649                     u900:
  3465  0649                     l2024:
  3466  0649  3001               	movlw	1
  3467  064A                     u915:
  3468  064A  1003               	clrc
  3469  064B  0DAF               	rlf	___awdiv@quotient,f
  3470  064C  0DB0               	rlf	___awdiv@quotient+1,f
  3471  064D  3EFF               	addlw	-1
  3472  064E  1D03               	skipz
  3473  064F  2E4A               	goto	u915
  3474  0650  0829               	movf	___awdiv@divisor+1,w
  3475  0651  022B               	subwf	___awdiv@dividend+1,w
  3476  0652  1D03               	skipz
  3477  0653  2E56               	goto	u925
  3478  0654  0828               	movf	___awdiv@divisor,w
  3479  0655  022A               	subwf	___awdiv@dividend,w
  3480  0656                     u925:
  3481  0656  1C03               	skipc
  3482  0657  2E59               	goto	u921
  3483  0658  2E5A               	goto	u920
  3484  0659                     u921:
  3485  0659  2E61               	goto	l2030
  3486  065A                     u920:
  3487  065A                     l2026:
  3488  065A  0828               	movf	___awdiv@divisor,w
  3489  065B  02AA               	subwf	___awdiv@dividend,f
  3490  065C  0829               	movf	___awdiv@divisor+1,w
  3491  065D  1C03               	skipc
  3492  065E  03AB               	decf	___awdiv@dividend+1,f
  3493  065F  02AB               	subwf	___awdiv@dividend+1,f
  3494  0660                     l2028:
  3495  0660  142F               	bsf	___awdiv@quotient,0
  3496  0661                     l2030:
  3497  0661  3001               	movlw	1
  3498  0662                     u935:
  3499  0662  1003               	clrc
  3500  0663  0CA9               	rrf	___awdiv@divisor+1,f
  3501  0664  0CA8               	rrf	___awdiv@divisor,f
  3502  0665  3EFF               	addlw	-1
  3503  0666  1D03               	skipz
  3504  0667  2E62               	goto	u935
  3505  0668                     l2032:
  3506  0668  3001               	movlw	1
  3507  0669  02AD               	subwf	___awdiv@counter,f
  3508  066A  1D03               	btfss	3,2
  3509  066B  2E6D               	goto	u941
  3510  066C  2E6E               	goto	u940
  3511  066D                     u941:
  3512  066D  2E49               	goto	l2024
  3513  066E                     u940:
  3514  066E                     l2034:
  3515  066E  082E               	movf	___awdiv@sign,w
  3516  066F  1903               	btfsc	3,2
  3517  0670  2E72               	goto	u951
  3518  0671  2E73               	goto	u950
  3519  0672                     u951:
  3520  0672  2E78               	goto	l2038
  3521  0673                     u950:
  3522  0673                     l2036:
  3523  0673  09AF               	comf	___awdiv@quotient,f
  3524  0674  09B0               	comf	___awdiv@quotient+1,f
  3525  0675  0AAF               	incf	___awdiv@quotient,f
  3526  0676  1903               	skipnz
  3527  0677  0AB0               	incf	___awdiv@quotient+1,f
  3528  0678                     l2038:
  3529  0678  0830               	movf	___awdiv@quotient+1,w
  3530  0679  00A9               	movwf	?___awdiv+1
  3531  067A  082F               	movf	___awdiv@quotient,w
  3532  067B  00A8               	movwf	?___awdiv
  3533  067C                     l545:
  3534  067C  0008               	return
  3535  067D                     __end_of___awdiv:
  3536                           
  3537                           	psect	text14
  3538  07AD                     __ptext14:	
  3539 ;; *************** function _conver *****************
  3540 ;; Defined at:
  3541 ;;		line 238 in file "C:/Users/Andy Bonilla/Documents/GitHub/ED2/Proyecto1_ED2/PIC_maestro.X/main_mastre.c"
  3542 ;; Parameters:    Size  Location     Type
  3543 ;;		None
  3544 ;; Auto vars:     Size  Location     Type
  3545 ;;  temporal       16    9[BANK0 ] unsigned char [16]
  3546 ;; Return value:  Size  Location     Type
  3547 ;;                  1    wreg      PTR const unsigned char 
  3548 ;; Registers used:
  3549 ;;		wreg
  3550 ;; Tracked objects:
  3551 ;;		On entry : 0/0
  3552 ;;		On exit  : 0/0
  3553 ;;		Unchanged: 0/0
  3554 ;; Data sizes:     COMMON   BANK0   BANK1   BANK3   BANK2
  3555 ;;      Params:         0       0       0       0       0
  3556 ;;      Locals:         0      16       0       0       0
  3557 ;;      Temps:          0       1       0       0       0
  3558 ;;      Totals:         0      17       0       0       0
  3559 ;;Total ram usage:       17 bytes
  3560 ;; Hardware stack levels used: 1
  3561 ;; Hardware stack levels required when called: 3
  3562 ;; This function calls:
  3563 ;;		Nothing
  3564 ;; This function is called by:
  3565 ;;		_main
  3566 ;; This function uses a non-reentrant model
  3567 ;;
  3568                           
  3569                           
  3570                           ;psect for function _conver
  3571  07AD                     _conver:
  3572  07AD                     l2318:	
  3573                           ;incstack = 0
  3574                           ; Regs used in _conver: [wreg]
  3575                           
  3576                           
  3577                           ;C:/Users/Andy Bonilla/Documents/GitHub/ED2/Proyecto1_ED2/PIC_maestro.X/main_mastre.c: 2
      +                          39:     char temporal[16];;C:/Users/Andy Bonilla/Documents/GitHub/ED2/Proyecto1_ED2/PIC_
      +                          maestro.X/main_mastre.c: 240:     temporal[0] = 0x50;
  3578  07AD  3050               	movlw	80
  3579  07AE  1283               	bcf	3,5	;RP0=0, select bank0
  3580  07AF  1303               	bcf	3,6	;RP1=0, select bank0
  3581  07B0  00A8               	movwf	??_conver
  3582  07B1  0828               	movf	??_conver,w
  3583  07B2  00A9               	movwf	conver@temporal
  3584                           
  3585                           ;C:/Users/Andy Bonilla/Documents/GitHub/ED2/Proyecto1_ED2/PIC_maestro.X/main_mastre.c: 2
      +                          41:     temporal[1] = 0x41;
  3586  07B3  3041               	movlw	65
  3587  07B4  00A8               	movwf	??_conver
  3588  07B5  0828               	movf	??_conver,w
  3589  07B6  00AA               	movwf	conver@temporal+1
  3590                           
  3591                           ;C:/Users/Andy Bonilla/Documents/GitHub/ED2/Proyecto1_ED2/PIC_maestro.X/main_mastre.c: 2
      +                          42:     temporal[2] = 0x52;
  3592  07B7  3052               	movlw	82
  3593  07B8  00A8               	movwf	??_conver
  3594  07B9  0828               	movf	??_conver,w
  3595  07BA  00AB               	movwf	conver@temporal+2
  3596                           
  3597                           ;C:/Users/Andy Bonilla/Documents/GitHub/ED2/Proyecto1_ED2/PIC_maestro.X/main_mastre.c: 2
      +                          43:     temporal[3] = 0x51;
  3598  07BB  3051               	movlw	81
  3599  07BC  00A8               	movwf	??_conver
  3600  07BD  0828               	movf	??_conver,w
  3601  07BE  00AC               	movwf	conver@temporal+3
  3602                           
  3603                           ;C:/Users/Andy Bonilla/Documents/GitHub/ED2/Proyecto1_ED2/PIC_maestro.X/main_mastre.c: 2
      +                          44:     temporal[4] = 0x55;
  3604  07BF  3055               	movlw	85
  3605  07C0  00A8               	movwf	??_conver
  3606  07C1  0828               	movf	??_conver,w
  3607  07C2  00AD               	movwf	conver@temporal+4
  3608                           
  3609                           ;C:/Users/Andy Bonilla/Documents/GitHub/ED2/Proyecto1_ED2/PIC_maestro.X/main_mastre.c: 2
      +                          45:     temporal[5] = 0x45;
  3610  07C3  3045               	movlw	69
  3611  07C4  00A8               	movwf	??_conver
  3612  07C5  0828               	movf	??_conver,w
  3613  07C6  00AE               	movwf	conver@temporal+5
  3614                           
  3615                           ;C:/Users/Andy Bonilla/Documents/GitHub/ED2/Proyecto1_ED2/PIC_maestro.X/main_mastre.c: 2
      +                          46:     temporal[6] = 0x4F;
  3616  07C7  304F               	movlw	79
  3617  07C8  00A8               	movwf	??_conver
  3618  07C9  0828               	movf	??_conver,w
  3619  07CA  00AF               	movwf	conver@temporal+6
  3620                           
  3621                           ;C:/Users/Andy Bonilla/Documents/GitHub/ED2/Proyecto1_ED2/PIC_maestro.X/main_mastre.c: 2
      +                          47:     temporal[7] = 0x53;
  3622  07CB  3053               	movlw	83
  3623  07CC  00A8               	movwf	??_conver
  3624  07CD  0828               	movf	??_conver,w
  3625  07CE  00B0               	movwf	conver@temporal+7
  3626                           
  3627                           ;C:/Users/Andy Bonilla/Documents/GitHub/ED2/Proyecto1_ED2/PIC_maestro.X/main_mastre.c: 2
      +                          48:     temporal[8] = 0x3A;
  3628  07CF  303A               	movlw	58
  3629  07D0  00A8               	movwf	??_conver
  3630  07D1  0828               	movf	??_conver,w
  3631  07D2  00B1               	movwf	conver@temporal+8
  3632                           
  3633                           ;C:/Users/Andy Bonilla/Documents/GitHub/ED2/Proyecto1_ED2/PIC_maestro.X/main_mastre.c: 2
      +                          49:     temporal[9] = 0X20;
  3634  07D3  3020               	movlw	32
  3635  07D4  00A8               	movwf	??_conver
  3636  07D5  0828               	movf	??_conver,w
  3637  07D6  00B2               	movwf	conver@temporal+9
  3638                           
  3639                           ;C:/Users/Andy Bonilla/Documents/GitHub/ED2/Proyecto1_ED2/PIC_maestro.X/main_mastre.c: 2
      +                          50:     temporal[10] = 0x30;
  3640  07D7  3030               	movlw	48
  3641  07D8  00A8               	movwf	??_conver
  3642  07D9  0828               	movf	??_conver,w
  3643  07DA  00B3               	movwf	conver@temporal+10
  3644                           
  3645                           ;C:/Users/Andy Bonilla/Documents/GitHub/ED2/Proyecto1_ED2/PIC_maestro.X/main_mastre.c: 2
      +                          51:     temporal[11] = NUM;
  3646  07DB  085D               	movf	_NUM,w
  3647  07DC  00A8               	movwf	??_conver
  3648  07DD  0828               	movf	??_conver,w
  3649  07DE  00B4               	movwf	conver@temporal+11
  3650                           
  3651                           ;C:/Users/Andy Bonilla/Documents/GitHub/ED2/Proyecto1_ED2/PIC_maestro.X/main_mastre.c: 2
      +                          52:     temporal[12] = 0x20;
  3652  07DF  3020               	movlw	32
  3653  07E0  00A8               	movwf	??_conver
  3654  07E1  0828               	movf	??_conver,w
  3655  07E2  00B5               	movwf	conver@temporal+12
  3656                           
  3657                           ;C:/Users/Andy Bonilla/Documents/GitHub/ED2/Proyecto1_ED2/PIC_maestro.X/main_mastre.c: 2
      +                          53:     temporal[13] = 0x20;
  3658  07E3  3020               	movlw	32
  3659  07E4  00A8               	movwf	??_conver
  3660  07E5  0828               	movf	??_conver,w
  3661  07E6  00B6               	movwf	conver@temporal+13
  3662                           
  3663                           ;C:/Users/Andy Bonilla/Documents/GitHub/ED2/Proyecto1_ED2/PIC_maestro.X/main_mastre.c: 2
      +                          54:     temporal[14] = 0x20;
  3664  07E7  3020               	movlw	32
  3665  07E8  00A8               	movwf	??_conver
  3666  07E9  0828               	movf	??_conver,w
  3667  07EA  00B7               	movwf	conver@temporal+14
  3668                           
  3669                           ;C:/Users/Andy Bonilla/Documents/GitHub/ED2/Proyecto1_ED2/PIC_maestro.X/main_mastre.c: 2
      +                          55:     temporal[15] = 0x20;
  3670  07EB  3020               	movlw	32
  3671  07EC  00A8               	movwf	??_conver
  3672  07ED  0828               	movf	??_conver,w
  3673  07EE  00B8               	movwf	conver@temporal+15
  3674                           
  3675                           ;C:/Users/Andy Bonilla/Documents/GitHub/ED2/Proyecto1_ED2/PIC_maestro.X/main_mastre.c: 2
      +                          56:     return temporal;
  3676  07EF  3029               	movlw	(low (conver@temporal| 0))& (0+255)
  3677  07F0                     l118:
  3678  07F0  0008               	return
  3679  07F1                     __end_of_conver:
  3680                           
  3681                           	psect	text15
  3682  0E19                     __ptext15:	
  3683 ;; *************** function _Lcd_Write_String *****************
  3684 ;; Defined at:
  3685 ;;		line 56 in file "C:/Users/Andy Bonilla/Documents/GitHub/ED2/Proyecto1_ED2/PIC_maestro.X/lcd_pablo.c"
  3686 ;; Parameters:    Size  Location     Type
  3687 ;;  a               1    wreg     PTR unsigned char 
  3688 ;;		 -> conver1@temporal(16), conver@temporal(16), 
  3689 ;; Auto vars:     Size  Location     Type
  3690 ;;  a               1   14[BANK0 ] PTR unsigned char 
  3691 ;;		 -> conver1@temporal(16), conver@temporal(16), 
  3692 ;;  i               2   12[BANK0 ] int 
  3693 ;; Return value:  Size  Location     Type
  3694 ;;                  1    wreg      void 
  3695 ;; Registers used:
  3696 ;;		wreg, fsr0l, fsr0h, status,2, status,0, pclath, cstack
  3697 ;; Tracked objects:
  3698 ;;		On entry : 0/0
  3699 ;;		On exit  : 0/0
  3700 ;;		Unchanged: 0/0
  3701 ;; Data sizes:     COMMON   BANK0   BANK1   BANK3   BANK2
  3702 ;;      Params:         0       0       0       0       0
  3703 ;;      Locals:         0       3       0       0       0
  3704 ;;      Temps:          0       1       0       0       0
  3705 ;;      Totals:         0       4       0       0       0
  3706 ;;Total ram usage:        4 bytes
  3707 ;; Hardware stack levels used: 1
  3708 ;; Hardware stack levels required when called: 5
  3709 ;; This function calls:
  3710 ;;		_Lcd_Write_Char
  3711 ;; This function is called by:
  3712 ;;		_main
  3713 ;; This function uses a non-reentrant model
  3714 ;;
  3715                           
  3716                           
  3717                           ;psect for function _Lcd_Write_String
  3718  0E19                     _Lcd_Write_String:
  3719                           
  3720                           ;incstack = 0
  3721                           ; Regs used in _Lcd_Write_String: [wreg-fsr0h+status,2+status,0+pclath+cstack]
  3722                           ;Lcd_Write_String@a stored from wreg
  3723  0E19  1283               	bcf	3,5	;RP0=0, select bank0
  3724  0E1A  1303               	bcf	3,6	;RP1=0, select bank0
  3725  0E1B  00AE               	movwf	Lcd_Write_String@a
  3726  0E1C                     l2310:
  3727                           
  3728                           ;C:/Users/Andy Bonilla/Documents/GitHub/ED2/Proyecto1_ED2/PIC_maestro.X/lcd_pablo.c: 57:
      +                               int i;;C:/Users/Andy Bonilla/Documents/GitHub/ED2/Proyecto1_ED2/PIC_maestro.X/lcd_p
      +                          ablo.c: 58:     for (i = 0; a[i] != '\0'; i++)
  3729  0E1C  01AC               	clrf	Lcd_Write_String@i
  3730  0E1D  01AD               	clrf	Lcd_Write_String@i+1
  3731  0E1E  2E32               	goto	l2316
  3732  0E1F                     l2312:
  3733                           
  3734                           ;C:/Users/Andy Bonilla/Documents/GitHub/ED2/Proyecto1_ED2/PIC_maestro.X/lcd_pablo.c: 59:
      +                                   Lcd_Write_Char(a[i]);
  3735  0E1F  082C               	movf	Lcd_Write_String@i,w
  3736  0E20  072E               	addwf	Lcd_Write_String@a,w
  3737  0E21  00AB               	movwf	??_Lcd_Write_String
  3738  0E22  082B               	movf	??_Lcd_Write_String,w
  3739  0E23  0084               	movwf	4
  3740  0E24  0800               	movf	0,w
  3741  0E25  120A  158A  25E4  120A  158A  	fcall	_Lcd_Write_Char
  3742  0E2A                     l2314:
  3743  0E2A  3001               	movlw	1
  3744  0E2B  1283               	bcf	3,5	;RP0=0, select bank0
  3745  0E2C  1303               	bcf	3,6	;RP1=0, select bank0
  3746  0E2D  07AC               	addwf	Lcd_Write_String@i,f
  3747  0E2E  1803               	skipnc
  3748  0E2F  0AAD               	incf	Lcd_Write_String@i+1,f
  3749  0E30  3000               	movlw	0
  3750  0E31  07AD               	addwf	Lcd_Write_String@i+1,f
  3751  0E32                     l2316:
  3752  0E32  082C               	movf	Lcd_Write_String@i,w
  3753  0E33  072E               	addwf	Lcd_Write_String@a,w
  3754  0E34  00AB               	movwf	??_Lcd_Write_String
  3755  0E35  082B               	movf	??_Lcd_Write_String,w
  3756  0E36  0084               	movwf	4
  3757  0E37  1383               	bcf	3,7	;select IRP bank0
  3758  0E38  0800               	movf	0,w
  3759  0E39  1D03               	btfss	3,2
  3760  0E3A  2E3C               	goto	u1261
  3761  0E3B  2E3D               	goto	u1260
  3762  0E3C                     u1261:
  3763  0E3C  2E1F               	goto	l2312
  3764  0E3D                     u1260:
  3765  0E3D                     l205:
  3766  0E3D  0008               	return
  3767  0E3E                     __end_of_Lcd_Write_String:
  3768                           
  3769                           	psect	text16
  3770  0DE4                     __ptext16:	
  3771 ;; *************** function _Lcd_Write_Char *****************
  3772 ;; Defined at:
  3773 ;;		line 47 in file "C:/Users/Andy Bonilla/Documents/GitHub/ED2/Proyecto1_ED2/PIC_maestro.X/lcd_pablo.c"
  3774 ;; Parameters:    Size  Location     Type
  3775 ;;  a               1    wreg     unsigned char 
  3776 ;; Auto vars:     Size  Location     Type
  3777 ;;  a               1   10[BANK0 ] unsigned char 
  3778 ;; Return value:  Size  Location     Type
  3779 ;;                  1    wreg      void 
  3780 ;; Registers used:
  3781 ;;		wreg, status,2, status,0, pclath, cstack
  3782 ;; Tracked objects:
  3783 ;;		On entry : 0/0
  3784 ;;		On exit  : 0/0
  3785 ;;		Unchanged: 0/0
  3786 ;; Data sizes:     COMMON   BANK0   BANK1   BANK3   BANK2
  3787 ;;      Params:         0       0       0       0       0
  3788 ;;      Locals:         0       1       0       0       0
  3789 ;;      Temps:          0       1       0       0       0
  3790 ;;      Totals:         0       2       0       0       0
  3791 ;;Total ram usage:        2 bytes
  3792 ;; Hardware stack levels used: 1
  3793 ;; Hardware stack levels required when called: 4
  3794 ;; This function calls:
  3795 ;;		_Lcd_Port
  3796 ;; This function is called by:
  3797 ;;		_Lcd_Write_String
  3798 ;; This function uses a non-reentrant model
  3799 ;;
  3800                           
  3801                           
  3802                           ;psect for function _Lcd_Write_Char
  3803  0DE4                     _Lcd_Write_Char:
  3804                           
  3805                           ;incstack = 0
  3806                           ; Regs used in _Lcd_Write_Char: [wreg+status,2+status,0+pclath+cstack]
  3807                           ;Lcd_Write_Char@a stored from wreg
  3808  0DE4  1283               	bcf	3,5	;RP0=0, select bank0
  3809  0DE5  1303               	bcf	3,6	;RP1=0, select bank0
  3810  0DE6  00AA               	movwf	Lcd_Write_Char@a
  3811  0DE7                     l1986:
  3812                           
  3813                           ;C:/Users/Andy Bonilla/Documents/GitHub/ED2/Proyecto1_ED2/PIC_maestro.X/lcd_pablo.c: 48:
      +                               Lcd_Port(a);
  3814  0DE7  082A               	movf	Lcd_Write_Char@a,w
  3815  0DE8  120A  158A  2572  120A  158A  	fcall	_Lcd_Port
  3816  0DED                     l1988:
  3817                           
  3818                           ;C:/Users/Andy Bonilla/Documents/GitHub/ED2/Proyecto1_ED2/PIC_maestro.X/lcd_pablo.c: 49:
      +                               PORTEbits.RE1 = 1;
  3819  0DED  1283               	bcf	3,5	;RP0=0, select bank0
  3820  0DEE  1303               	bcf	3,6	;RP1=0, select bank0
  3821  0DEF  1489               	bsf	9,1	;volatile
  3822  0DF0                     l1990:
  3823                           
  3824                           ;C:/Users/Andy Bonilla/Documents/GitHub/ED2/Proyecto1_ED2/PIC_maestro.X/lcd_pablo.c: 50:
      +                               PORTEbits.RE2 = 0;
  3825  0DF0  1109               	bcf	9,2	;volatile
  3826  0DF1                     l1992:
  3827                           
  3828                           ;C:/Users/Andy Bonilla/Documents/GitHub/ED2/Proyecto1_ED2/PIC_maestro.X/lcd_pablo.c: 51:
      +                               PORTEbits.RE0 = 1;
  3829  0DF1  1409               	bsf	9,0	;volatile
  3830  0DF2                     l1994:
  3831                           
  3832                           ;C:/Users/Andy Bonilla/Documents/GitHub/ED2/Proyecto1_ED2/PIC_maestro.X/lcd_pablo.c: 52:
      +                               _delay((unsigned long)((40)*(8000000/4000000.0)));
  3833  0DF2  3019               	movlw	25
  3834  0DF3  1283               	bcf	3,5	;RP0=0, select bank0
  3835  0DF4  1303               	bcf	3,6	;RP1=0, select bank0
  3836  0DF5  00A9               	movwf	??_Lcd_Write_Char
  3837  0DF6                     u1677:
  3838  0DF6  0BA9               	decfsz	??_Lcd_Write_Char,f
  3839  0DF7  2DF6               	goto	u1677
  3840  0DF8  2DF9               	nop2
  3841  0DF9                     l1996:
  3842                           
  3843                           ;C:/Users/Andy Bonilla/Documents/GitHub/ED2/Proyecto1_ED2/PIC_maestro.X/lcd_pablo.c: 53:
      +                               PORTEbits.RE0 = 0;
  3844  0DF9  1283               	bcf	3,5	;RP0=0, select bank0
  3845  0DFA  1303               	bcf	3,6	;RP1=0, select bank0
  3846  0DFB  1009               	bcf	9,0	;volatile
  3847  0DFC                     l199:
  3848  0DFC  0008               	return
  3849  0DFD                     __end_of_Lcd_Write_Char:
  3850                           
  3851                           	psect	text17
  3852  0E3E                     __ptext17:	
  3853 ;; *************** function _Lcd_Set_Cursor *****************
  3854 ;; Defined at:
  3855 ;;		line 20 in file "C:/Users/Andy Bonilla/Documents/GitHub/ED2/Proyecto1_ED2/PIC_maestro.X/lcd_pablo.c"
  3856 ;; Parameters:    Size  Location     Type
  3857 ;;  a               1    wreg     unsigned char 
  3858 ;;  b               1   12[BANK0 ] unsigned char 
  3859 ;; Auto vars:     Size  Location     Type
  3860 ;;  a               1   14[BANK0 ] unsigned char 
  3861 ;;  temp            1   15[BANK0 ] unsigned char 
  3862 ;; Return value:  Size  Location     Type
  3863 ;;                  1    wreg      void 
  3864 ;; Registers used:
  3865 ;;		wreg, status,2, status,0, pclath, cstack
  3866 ;; Tracked objects:
  3867 ;;		On entry : 0/0
  3868 ;;		On exit  : 0/0
  3869 ;;		Unchanged: 0/0
  3870 ;; Data sizes:     COMMON   BANK0   BANK1   BANK3   BANK2
  3871 ;;      Params:         0       1       0       0       0
  3872 ;;      Locals:         0       2       0       0       0
  3873 ;;      Temps:          0       1       0       0       0
  3874 ;;      Totals:         0       4       0       0       0
  3875 ;;Total ram usage:        4 bytes
  3876 ;; Hardware stack levels used: 1
  3877 ;; Hardware stack levels required when called: 5
  3878 ;; This function calls:
  3879 ;;		_Lcd_Cmd
  3880 ;; This function is called by:
  3881 ;;		_main
  3882 ;; This function uses a non-reentrant model
  3883 ;;
  3884                           
  3885                           
  3886                           ;psect for function _Lcd_Set_Cursor
  3887  0E3E                     _Lcd_Set_Cursor:
  3888                           
  3889                           ;incstack = 0
  3890                           ; Regs used in _Lcd_Set_Cursor: [wreg+status,2+status,0+pclath+cstack]
  3891                           ;Lcd_Set_Cursor@a stored from wreg
  3892  0E3E  1283               	bcf	3,5	;RP0=0, select bank0
  3893  0E3F  1303               	bcf	3,6	;RP1=0, select bank0
  3894  0E40  00AE               	movwf	Lcd_Set_Cursor@a
  3895  0E41                     l2290:
  3896                           
  3897                           ;C:/Users/Andy Bonilla/Documents/GitHub/ED2/Proyecto1_ED2/PIC_maestro.X/lcd_pablo.c: 21:
      +                               char temp;;C:/Users/Andy Bonilla/Documents/GitHub/ED2/Proyecto1_ED2/PIC_maestro.X/l
      +                          cd_pablo.c: 22:     if (a == 1)
  3898  0E41  032E               	decf	Lcd_Set_Cursor@a,w
  3899  0E42  1D03               	btfss	3,2
  3900  0E43  2E45               	goto	u1241
  3901  0E44  2E46               	goto	u1240
  3902  0E45                     u1241:
  3903  0E45  2E52               	goto	l2296
  3904  0E46                     u1240:
  3905  0E46                     l2292:
  3906                           
  3907                           ;C:/Users/Andy Bonilla/Documents/GitHub/ED2/Proyecto1_ED2/PIC_maestro.X/lcd_pablo.c: 23:
      +                               {;C:/Users/Andy Bonilla/Documents/GitHub/ED2/Proyecto1_ED2/PIC_maestro.X/lcd_pablo.
      +                          c: 24:         temp = 0x80 + b - 1;
  3908  0E46  082C               	movf	Lcd_Set_Cursor@b,w
  3909  0E47  3E7F               	addlw	127
  3910  0E48  00AD               	movwf	??_Lcd_Set_Cursor
  3911  0E49  082D               	movf	??_Lcd_Set_Cursor,w
  3912  0E4A  00AF               	movwf	Lcd_Set_Cursor@temp
  3913  0E4B                     l2294:
  3914                           
  3915                           ;C:/Users/Andy Bonilla/Documents/GitHub/ED2/Proyecto1_ED2/PIC_maestro.X/lcd_pablo.c: 25:
      +                                   Lcd_Cmd(temp);
  3916  0E4B  082F               	movf	Lcd_Set_Cursor@temp,w
  3917  0E4C  120A  158A  25FD  120A  158A  	fcall	_Lcd_Cmd
  3918                           
  3919                           ;C:/Users/Andy Bonilla/Documents/GitHub/ED2/Proyecto1_ED2/PIC_maestro.X/lcd_pablo.c: 26:
      +                               }
  3920  0E51  2E63               	goto	l193
  3921  0E52                     l2296:
  3922  0E52  3002               	movlw	2
  3923  0E53  062E               	xorwf	Lcd_Set_Cursor@a,w
  3924  0E54  1D03               	btfss	3,2
  3925  0E55  2E57               	goto	u1251
  3926  0E56  2E58               	goto	u1250
  3927  0E57                     u1251:
  3928  0E57  2E63               	goto	l193
  3929  0E58                     u1250:
  3930  0E58                     l2298:
  3931                           
  3932                           ;C:/Users/Andy Bonilla/Documents/GitHub/ED2/Proyecto1_ED2/PIC_maestro.X/lcd_pablo.c: 28:
      +                                   temp = 0xC0 + b - 1;
  3933  0E58  082C               	movf	Lcd_Set_Cursor@b,w
  3934  0E59  3EBF               	addlw	191
  3935  0E5A  00AD               	movwf	??_Lcd_Set_Cursor
  3936  0E5B  082D               	movf	??_Lcd_Set_Cursor,w
  3937  0E5C  00AF               	movwf	Lcd_Set_Cursor@temp
  3938  0E5D                     l2300:
  3939                           
  3940                           ;C:/Users/Andy Bonilla/Documents/GitHub/ED2/Proyecto1_ED2/PIC_maestro.X/lcd_pablo.c: 29:
      +                                   Lcd_Cmd(temp);
  3941  0E5D  082F               	movf	Lcd_Set_Cursor@temp,w
  3942  0E5E  120A  158A  25FD  120A  158A  	fcall	_Lcd_Cmd
  3943  0E63                     l193:
  3944  0E63  0008               	return
  3945  0E64                     __end_of_Lcd_Set_Cursor:
  3946                           
  3947                           	psect	text18
  3948  0DCB                     __ptext18:	
  3949 ;; *************** function _Lcd_Init *****************
  3950 ;; Defined at:
  3951 ;;		line 33 in file "C:/Users/Andy Bonilla/Documents/GitHub/ED2/Proyecto1_ED2/PIC_maestro.X/lcd_pablo.c"
  3952 ;; Parameters:    Size  Location     Type
  3953 ;;		None
  3954 ;; Auto vars:     Size  Location     Type
  3955 ;;		None
  3956 ;; Return value:  Size  Location     Type
  3957 ;;                  1    wreg      void 
  3958 ;; Registers used:
  3959 ;;		wreg, status,2, status,0, pclath, cstack
  3960 ;; Tracked objects:
  3961 ;;		On entry : 0/0
  3962 ;;		On exit  : 0/0
  3963 ;;		Unchanged: 0/0
  3964 ;; Data sizes:     COMMON   BANK0   BANK1   BANK3   BANK2
  3965 ;;      Params:         0       0       0       0       0
  3966 ;;      Locals:         0       0       0       0       0
  3967 ;;      Temps:          0       0       0       0       0
  3968 ;;      Totals:         0       0       0       0       0
  3969 ;;Total ram usage:        0 bytes
  3970 ;; Hardware stack levels used: 1
  3971 ;; Hardware stack levels required when called: 5
  3972 ;; This function calls:
  3973 ;;		_Lcd_Cmd
  3974 ;; This function is called by:
  3975 ;;		_main
  3976 ;; This function uses a non-reentrant model
  3977 ;;
  3978                           
  3979                           
  3980                           ;psect for function _Lcd_Init
  3981  0DCB                     _Lcd_Init:
  3982  0DCB                     l2288:	
  3983                           ;incstack = 0
  3984                           ; Regs used in _Lcd_Init: [wreg+status,2+status,0+pclath+cstack]
  3985                           
  3986                           
  3987                           ;C:/Users/Andy Bonilla/Documents/GitHub/ED2/Proyecto1_ED2/PIC_maestro.X/lcd_pablo.c: 41:
      +                               Lcd_Cmd(0x38);
  3988  0DCB  3038               	movlw	56
  3989  0DCC  120A  158A  25FD  120A  158A  	fcall	_Lcd_Cmd
  3990                           
  3991                           ;C:/Users/Andy Bonilla/Documents/GitHub/ED2/Proyecto1_ED2/PIC_maestro.X/lcd_pablo.c: 42:
      +                               Lcd_Cmd(0x06);
  3992  0DD1  3006               	movlw	6
  3993  0DD2  120A  158A  25FD  120A  158A  	fcall	_Lcd_Cmd
  3994                           
  3995                           ;C:/Users/Andy Bonilla/Documents/GitHub/ED2/Proyecto1_ED2/PIC_maestro.X/lcd_pablo.c: 43:
      +                               Lcd_Cmd(0x0c);
  3996  0DD7  300C               	movlw	12
  3997  0DD8  120A  158A  25FD  120A  158A  	fcall	_Lcd_Cmd
  3998                           
  3999                           ;C:/Users/Andy Bonilla/Documents/GitHub/ED2/Proyecto1_ED2/PIC_maestro.X/lcd_pablo.c: 44:
      +                               Lcd_Cmd(0x80);
  4000  0DDD  3080               	movlw	128
  4001  0DDE  120A  158A  25FD  120A  158A  	fcall	_Lcd_Cmd
  4002  0DE3                     l196:
  4003  0DE3  0008               	return
  4004  0DE4                     __end_of_Lcd_Init:
  4005                           
  4006                           	psect	text19
  4007  0DFD                     __ptext19:	
  4008 ;; *************** function _Lcd_Cmd *****************
  4009 ;; Defined at:
  4010 ;;		line 7 in file "C:/Users/Andy Bonilla/Documents/GitHub/ED2/Proyecto1_ED2/PIC_maestro.X/lcd_pablo.c"
  4011 ;; Parameters:    Size  Location     Type
  4012 ;;  a               1    wreg     unsigned char 
  4013 ;; Auto vars:     Size  Location     Type
  4014 ;;  a               1   11[BANK0 ] unsigned char 
  4015 ;; Return value:  Size  Location     Type
  4016 ;;                  1    wreg      void 
  4017 ;; Registers used:
  4018 ;;		wreg, status,2, status,0, pclath, cstack
  4019 ;; Tracked objects:
  4020 ;;		On entry : 0/0
  4021 ;;		On exit  : 0/0
  4022 ;;		Unchanged: 0/0
  4023 ;; Data sizes:     COMMON   BANK0   BANK1   BANK3   BANK2
  4024 ;;      Params:         0       0       0       0       0
  4025 ;;      Locals:         0       1       0       0       0
  4026 ;;      Temps:          0       2       0       0       0
  4027 ;;      Totals:         0       3       0       0       0
  4028 ;;Total ram usage:        3 bytes
  4029 ;; Hardware stack levels used: 1
  4030 ;; Hardware stack levels required when called: 4
  4031 ;; This function calls:
  4032 ;;		_Lcd_Port
  4033 ;; This function is called by:
  4034 ;;		_Lcd_Set_Cursor
  4035 ;;		_Lcd_Init
  4036 ;;		_Lcd_Clear
  4037 ;;		_Lcd_Shift_Right
  4038 ;;		_Lcd_Shift_Left
  4039 ;; This function uses a non-reentrant model
  4040 ;;
  4041                           
  4042                           
  4043                           ;psect for function _Lcd_Cmd
  4044  0DFD                     _Lcd_Cmd:
  4045                           
  4046                           ;incstack = 0
  4047                           ; Regs used in _Lcd_Cmd: [wreg+status,2+status,0+pclath+cstack]
  4048                           ;Lcd_Cmd@a stored from wreg
  4049  0DFD  1283               	bcf	3,5	;RP0=0, select bank0
  4050  0DFE  1303               	bcf	3,6	;RP1=0, select bank0
  4051  0DFF  00AB               	movwf	Lcd_Cmd@a
  4052  0E00                     l1974:
  4053                           
  4054                           ;C:/Users/Andy Bonilla/Documents/GitHub/ED2/Proyecto1_ED2/PIC_maestro.X/lcd_pablo.c: 8: 
      +                              Lcd_Port(a);
  4055  0E00  082B               	movf	Lcd_Cmd@a,w
  4056  0E01  120A  158A  2572  120A  158A  	fcall	_Lcd_Port
  4057  0E06                     l1976:
  4058                           
  4059                           ;C:/Users/Andy Bonilla/Documents/GitHub/ED2/Proyecto1_ED2/PIC_maestro.X/lcd_pablo.c: 9: 
      +                              PORTEbits.RE1 = 0;
  4060  0E06  1283               	bcf	3,5	;RP0=0, select bank0
  4061  0E07  1303               	bcf	3,6	;RP1=0, select bank0
  4062  0E08  1089               	bcf	9,1	;volatile
  4063  0E09                     l1978:
  4064                           
  4065                           ;C:/Users/Andy Bonilla/Documents/GitHub/ED2/Proyecto1_ED2/PIC_maestro.X/lcd_pablo.c: 10:
      +                               PORTEbits.RE2 = 0;
  4066  0E09  1109               	bcf	9,2	;volatile
  4067  0E0A                     l1980:
  4068                           
  4069                           ;C:/Users/Andy Bonilla/Documents/GitHub/ED2/Proyecto1_ED2/PIC_maestro.X/lcd_pablo.c: 11:
      +                               PORTEbits.RE0 = 1;
  4070  0E0A  1409               	bsf	9,0	;volatile
  4071  0E0B                     l1982:
  4072                           
  4073                           ;C:/Users/Andy Bonilla/Documents/GitHub/ED2/Proyecto1_ED2/PIC_maestro.X/lcd_pablo.c: 12:
      +                               _delay((unsigned long)((5)*(8000000/4000.0)));
  4074  0E0B  300D               	movlw	13
  4075  0E0C  1283               	bcf	3,5	;RP0=0, select bank0
  4076  0E0D  1303               	bcf	3,6	;RP1=0, select bank0
  4077  0E0E  00AA               	movwf	??_Lcd_Cmd+1
  4078  0E0F  30FB               	movlw	251
  4079  0E10  00A9               	movwf	??_Lcd_Cmd
  4080  0E11                     u1687:
  4081  0E11  0BA9               	decfsz	??_Lcd_Cmd,f
  4082  0E12  2E11               	goto	u1687
  4083  0E13  0BAA               	decfsz	??_Lcd_Cmd+1,f
  4084  0E14  2E11               	goto	u1687
  4085  0E15                     l1984:
  4086                           
  4087                           ;C:/Users/Andy Bonilla/Documents/GitHub/ED2/Proyecto1_ED2/PIC_maestro.X/lcd_pablo.c: 13:
      +                               PORTEbits.RE0 = 0;
  4088  0E15  1283               	bcf	3,5	;RP0=0, select bank0
  4089  0E16  1303               	bcf	3,6	;RP1=0, select bank0
  4090  0E17  1009               	bcf	9,0	;volatile
  4091  0E18                     l184:
  4092  0E18  0008               	return
  4093  0E19                     __end_of_Lcd_Cmd:
  4094                           
  4095                           	psect	text20
  4096  0D72                     __ptext20:	
  4097 ;; *************** function _Lcd_Port *****************
  4098 ;; Defined at:
  4099 ;;		line 3 in file "C:/Users/Andy Bonilla/Documents/GitHub/ED2/Proyecto1_ED2/PIC_maestro.X/lcd_pablo.c"
  4100 ;; Parameters:    Size  Location     Type
  4101 ;;  a               1    wreg     unsigned char 
  4102 ;; Auto vars:     Size  Location     Type
  4103 ;;  a               1    8[BANK0 ] unsigned char 
  4104 ;; Return value:  Size  Location     Type
  4105 ;;                  1    wreg      void 
  4106 ;; Registers used:
  4107 ;;		wreg
  4108 ;; Tracked objects:
  4109 ;;		On entry : 0/0
  4110 ;;		On exit  : 0/0
  4111 ;;		Unchanged: 0/0
  4112 ;; Data sizes:     COMMON   BANK0   BANK1   BANK3   BANK2
  4113 ;;      Params:         0       0       0       0       0
  4114 ;;      Locals:         0       1       0       0       0
  4115 ;;      Temps:          0       0       0       0       0
  4116 ;;      Totals:         0       1       0       0       0
  4117 ;;Total ram usage:        1 bytes
  4118 ;; Hardware stack levels used: 1
  4119 ;; Hardware stack levels required when called: 3
  4120 ;; This function calls:
  4121 ;;		Nothing
  4122 ;; This function is called by:
  4123 ;;		_Lcd_Cmd
  4124 ;;		_Lcd_Write_Char
  4125 ;; This function uses a non-reentrant model
  4126 ;;
  4127                           
  4128                           
  4129                           ;psect for function _Lcd_Port
  4130  0D72                     _Lcd_Port:
  4131                           
  4132                           ;incstack = 0
  4133                           ; Regs used in _Lcd_Port: [wreg]
  4134                           ;Lcd_Port@a stored from wreg
  4135  0D72  1283               	bcf	3,5	;RP0=0, select bank0
  4136  0D73  1303               	bcf	3,6	;RP1=0, select bank0
  4137  0D74  00A8               	movwf	Lcd_Port@a
  4138  0D75                     l1784:
  4139                           
  4140                           ;C:/Users/Andy Bonilla/Documents/GitHub/ED2/Proyecto1_ED2/PIC_maestro.X/lcd_pablo.c: 4: 
      +                              PORTB = a;
  4141  0D75  0828               	movf	Lcd_Port@a,w
  4142  0D76  0086               	movwf	6	;volatile
  4143  0D77                     l181:
  4144  0D77  0008               	return
  4145  0D78                     __end_of_Lcd_Port:
  4146                           
  4147                           	psect	text21
  4148  03ED                     __ptext21:	
  4149 ;; *************** function _LECT1 *****************
  4150 ;; Defined at:
  4151 ;;		line 281 in file "C:/Users/Andy Bonilla/Documents/GitHub/ED2/Proyecto1_ED2/PIC_maestro.X/main_mastre.c"
  4152 ;; Parameters:    Size  Location     Type
  4153 ;;		None
  4154 ;; Auto vars:     Size  Location     Type
  4155 ;;		None
  4156 ;; Return value:  Size  Location     Type
  4157 ;;                  1    wreg      void 
  4158 ;; Registers used:
  4159 ;;		wreg, fsr0l, fsr0h, status,2, status,0, pclath, cstack
  4160 ;; Tracked objects:
  4161 ;;		On entry : 0/0
  4162 ;;		On exit  : 0/0
  4163 ;;		Unchanged: 0/0
  4164 ;; Data sizes:     COMMON   BANK0   BANK1   BANK3   BANK2
  4165 ;;      Params:         0       0       0       0       0
  4166 ;;      Locals:         0       0       0       0       0
  4167 ;;      Temps:          0       1       0       0       0
  4168 ;;      Totals:         0       1       0       0       0
  4169 ;;Total ram usage:        1 bytes
  4170 ;; Hardware stack levels used: 1
  4171 ;; Hardware stack levels required when called: 4
  4172 ;; This function calls:
  4173 ;;		_num_ascii
  4174 ;; This function is called by:
  4175 ;;		_main
  4176 ;; This function uses a non-reentrant model
  4177 ;;
  4178                           
  4179                           
  4180                           ;psect for function _LECT1
  4181  03ED                     _LECT1:
  4182  03ED                     l2322:	
  4183                           ;incstack = 0
  4184                           ; Regs used in _LECT1: [wreg-fsr0h+status,2+status,0+pclath+cstack]
  4185                           
  4186                           
  4187                           ;C:/Users/Andy Bonilla/Documents/GitHub/ED2/Proyecto1_ED2/PIC_maestro.X/main_mastre.c: 2
      +                          82:     NUM = num_ascii(PARKH);
  4188  03ED  1283               	bcf	3,5	;RP0=0, select bank0
  4189  03EE  1303               	bcf	3,6	;RP1=0, select bank0
  4190  03EF  085E               	movf	_PARKH,w
  4191  03F0  120A  158A  2709  120A  118A  	fcall	_num_ascii
  4192  03F5  1283               	bcf	3,5	;RP0=0, select bank0
  4193  03F6  1303               	bcf	3,6	;RP1=0, select bank0
  4194  03F7  00AB               	movwf	??_LECT1
  4195  03F8  082B               	movf	??_LECT1,w
  4196  03F9  00DD               	movwf	_NUM
  4197  03FA                     l2324:
  4198                           
  4199                           ;C:/Users/Andy Bonilla/Documents/GitHub/ED2/Proyecto1_ED2/PIC_maestro.X/main_mastre.c: 2
      +                          83:     if (DIA == 1){
  4200  03FA  035B               	decf	_DIA,w
  4201  03FB  1D03               	btfss	3,2
  4202  03FC  2BFE               	goto	u1271
  4203  03FD  2BFF               	goto	u1270
  4204  03FE                     u1271:
  4205  03FE  2C0C               	goto	l2328
  4206  03FF                     u1270:
  4207  03FF                     l2326:
  4208                           
  4209                           ;C:/Users/Andy Bonilla/Documents/GitHub/ED2/Proyecto1_ED2/PIC_maestro.X/main_mastre.c: 2
      +                          84:         C1 = 0x4C;
  4210  03FF  304C               	movlw	76
  4211  0400  00AB               	movwf	??_LECT1
  4212  0401  082B               	movf	??_LECT1,w
  4213  0402  00D7               	movwf	_C1
  4214                           
  4215                           ;C:/Users/Andy Bonilla/Documents/GitHub/ED2/Proyecto1_ED2/PIC_maestro.X/main_mastre.c: 2
      +                          85:         C2 = 0x75;
  4216  0403  3075               	movlw	117
  4217  0404  00AB               	movwf	??_LECT1
  4218  0405  082B               	movf	??_LECT1,w
  4219  0406  00D6               	movwf	_C2
  4220                           
  4221                           ;C:/Users/Andy Bonilla/Documents/GitHub/ED2/Proyecto1_ED2/PIC_maestro.X/main_mastre.c: 2
      +                          86:         C3 = 0x6E;
  4222  0407  306E               	movlw	110
  4223  0408  00AB               	movwf	??_LECT1
  4224  0409  082B               	movf	??_LECT1,w
  4225  040A  00D5               	movwf	_C3
  4226                           
  4227                           ;C:/Users/Andy Bonilla/Documents/GitHub/ED2/Proyecto1_ED2/PIC_maestro.X/main_mastre.c: 2
      +                          87:     }
  4228  040B  2C80               	goto	l125
  4229  040C                     l2328:
  4230  040C  3002               	movlw	2
  4231  040D  065B               	xorwf	_DIA,w
  4232  040E  1D03               	btfss	3,2
  4233  040F  2C11               	goto	u1281
  4234  0410  2C12               	goto	u1280
  4235  0411                     u1281:
  4236  0411  2C1F               	goto	l2332
  4237  0412                     u1280:
  4238  0412                     l2330:
  4239                           
  4240                           ;C:/Users/Andy Bonilla/Documents/GitHub/ED2/Proyecto1_ED2/PIC_maestro.X/main_mastre.c: 2
      +                          89:         C1 = 0x4D;
  4241  0412  304D               	movlw	77
  4242  0413  00AB               	movwf	??_LECT1
  4243  0414  082B               	movf	??_LECT1,w
  4244  0415  00D7               	movwf	_C1
  4245                           
  4246                           ;C:/Users/Andy Bonilla/Documents/GitHub/ED2/Proyecto1_ED2/PIC_maestro.X/main_mastre.c: 2
      +                          90:         C2 = 0x61;
  4247  0416  3061               	movlw	97
  4248  0417  00AB               	movwf	??_LECT1
  4249  0418  082B               	movf	??_LECT1,w
  4250  0419  00D6               	movwf	_C2
  4251                           
  4252                           ;C:/Users/Andy Bonilla/Documents/GitHub/ED2/Proyecto1_ED2/PIC_maestro.X/main_mastre.c: 2
      +                          91:         C3 = 0x72;
  4253  041A  3072               	movlw	114
  4254  041B  00AB               	movwf	??_LECT1
  4255  041C  082B               	movf	??_LECT1,w
  4256  041D  00D5               	movwf	_C3
  4257                           
  4258                           ;C:/Users/Andy Bonilla/Documents/GitHub/ED2/Proyecto1_ED2/PIC_maestro.X/main_mastre.c: 2
      +                          92:     }
  4259  041E  2C80               	goto	l125
  4260  041F                     l2332:
  4261  041F  3003               	movlw	3
  4262  0420  065B               	xorwf	_DIA,w
  4263  0421  1D03               	btfss	3,2
  4264  0422  2C24               	goto	u1291
  4265  0423  2C25               	goto	u1290
  4266  0424                     u1291:
  4267  0424  2C32               	goto	l2336
  4268  0425                     u1290:
  4269  0425                     l2334:
  4270                           
  4271                           ;C:/Users/Andy Bonilla/Documents/GitHub/ED2/Proyecto1_ED2/PIC_maestro.X/main_mastre.c: 2
      +                          94:         C1 = 0x4D;
  4272  0425  304D               	movlw	77
  4273  0426  00AB               	movwf	??_LECT1
  4274  0427  082B               	movf	??_LECT1,w
  4275  0428  00D7               	movwf	_C1
  4276                           
  4277                           ;C:/Users/Andy Bonilla/Documents/GitHub/ED2/Proyecto1_ED2/PIC_maestro.X/main_mastre.c: 2
      +                          95:         C2 = 0x69;
  4278  0429  3069               	movlw	105
  4279  042A  00AB               	movwf	??_LECT1
  4280  042B  082B               	movf	??_LECT1,w
  4281  042C  00D6               	movwf	_C2
  4282                           
  4283                           ;C:/Users/Andy Bonilla/Documents/GitHub/ED2/Proyecto1_ED2/PIC_maestro.X/main_mastre.c: 2
      +                          96:         C3 = 0x65;
  4284  042D  3065               	movlw	101
  4285  042E  00AB               	movwf	??_LECT1
  4286  042F  082B               	movf	??_LECT1,w
  4287  0430  00D5               	movwf	_C3
  4288                           
  4289                           ;C:/Users/Andy Bonilla/Documents/GitHub/ED2/Proyecto1_ED2/PIC_maestro.X/main_mastre.c: 2
      +                          97:     }
  4290  0431  2C80               	goto	l125
  4291  0432                     l2336:
  4292  0432  3004               	movlw	4
  4293  0433  065B               	xorwf	_DIA,w
  4294  0434  1D03               	btfss	3,2
  4295  0435  2C37               	goto	u1301
  4296  0436  2C38               	goto	u1300
  4297  0437                     u1301:
  4298  0437  2C45               	goto	l2340
  4299  0438                     u1300:
  4300  0438                     l2338:
  4301                           
  4302                           ;C:/Users/Andy Bonilla/Documents/GitHub/ED2/Proyecto1_ED2/PIC_maestro.X/main_mastre.c: 2
      +                          99:         C1 = 0x4A;
  4303  0438  304A               	movlw	74
  4304  0439  00AB               	movwf	??_LECT1
  4305  043A  082B               	movf	??_LECT1,w
  4306  043B  00D7               	movwf	_C1
  4307                           
  4308                           ;C:/Users/Andy Bonilla/Documents/GitHub/ED2/Proyecto1_ED2/PIC_maestro.X/main_mastre.c: 3
      +                          00:         C2 = 0x75;
  4309  043C  3075               	movlw	117
  4310  043D  00AB               	movwf	??_LECT1
  4311  043E  082B               	movf	??_LECT1,w
  4312  043F  00D6               	movwf	_C2
  4313                           
  4314                           ;C:/Users/Andy Bonilla/Documents/GitHub/ED2/Proyecto1_ED2/PIC_maestro.X/main_mastre.c: 3
      +                          01:         C3 = 0x65;
  4315  0440  3065               	movlw	101
  4316  0441  00AB               	movwf	??_LECT1
  4317  0442  082B               	movf	??_LECT1,w
  4318  0443  00D5               	movwf	_C3
  4319                           
  4320                           ;C:/Users/Andy Bonilla/Documents/GitHub/ED2/Proyecto1_ED2/PIC_maestro.X/main_mastre.c: 3
      +                          02:     }
  4321  0444  2C80               	goto	l125
  4322  0445                     l2340:
  4323  0445  3005               	movlw	5
  4324  0446  065B               	xorwf	_DIA,w
  4325  0447  1D03               	btfss	3,2
  4326  0448  2C4A               	goto	u1311
  4327  0449  2C4B               	goto	u1310
  4328  044A                     u1311:
  4329  044A  2C58               	goto	l2344
  4330  044B                     u1310:
  4331  044B                     l2342:
  4332                           
  4333                           ;C:/Users/Andy Bonilla/Documents/GitHub/ED2/Proyecto1_ED2/PIC_maestro.X/main_mastre.c: 3
      +                          04:         C1 = 0x56;
  4334  044B  3056               	movlw	86
  4335  044C  00AB               	movwf	??_LECT1
  4336  044D  082B               	movf	??_LECT1,w
  4337  044E  00D7               	movwf	_C1
  4338                           
  4339                           ;C:/Users/Andy Bonilla/Documents/GitHub/ED2/Proyecto1_ED2/PIC_maestro.X/main_mastre.c: 3
      +                          05:         C2 = 0x69;
  4340  044F  3069               	movlw	105
  4341  0450  00AB               	movwf	??_LECT1
  4342  0451  082B               	movf	??_LECT1,w
  4343  0452  00D6               	movwf	_C2
  4344                           
  4345                           ;C:/Users/Andy Bonilla/Documents/GitHub/ED2/Proyecto1_ED2/PIC_maestro.X/main_mastre.c: 3
      +                          06:         C3 = 0x65;
  4346  0453  3065               	movlw	101
  4347  0454  00AB               	movwf	??_LECT1
  4348  0455  082B               	movf	??_LECT1,w
  4349  0456  00D5               	movwf	_C3
  4350                           
  4351                           ;C:/Users/Andy Bonilla/Documents/GitHub/ED2/Proyecto1_ED2/PIC_maestro.X/main_mastre.c: 3
      +                          07:     }
  4352  0457  2C80               	goto	l125
  4353  0458                     l2344:
  4354  0458  3006               	movlw	6
  4355  0459  065B               	xorwf	_DIA,w
  4356  045A  1D03               	btfss	3,2
  4357  045B  2C5D               	goto	u1321
  4358  045C  2C5E               	goto	u1320
  4359  045D                     u1321:
  4360  045D  2C6B               	goto	l2348
  4361  045E                     u1320:
  4362  045E                     l2346:
  4363                           
  4364                           ;C:/Users/Andy Bonilla/Documents/GitHub/ED2/Proyecto1_ED2/PIC_maestro.X/main_mastre.c: 3
      +                          09:         C1 = 0x53;
  4365  045E  3053               	movlw	83
  4366  045F  00AB               	movwf	??_LECT1
  4367  0460  082B               	movf	??_LECT1,w
  4368  0461  00D7               	movwf	_C1
  4369                           
  4370                           ;C:/Users/Andy Bonilla/Documents/GitHub/ED2/Proyecto1_ED2/PIC_maestro.X/main_mastre.c: 3
      +                          10:         C2 = 0x61;
  4371  0462  3061               	movlw	97
  4372  0463  00AB               	movwf	??_LECT1
  4373  0464  082B               	movf	??_LECT1,w
  4374  0465  00D6               	movwf	_C2
  4375                           
  4376                           ;C:/Users/Andy Bonilla/Documents/GitHub/ED2/Proyecto1_ED2/PIC_maestro.X/main_mastre.c: 3
      +                          11:         C3 = 0x62;
  4377  0466  3062               	movlw	98
  4378  0467  00AB               	movwf	??_LECT1
  4379  0468  082B               	movf	??_LECT1,w
  4380  0469  00D5               	movwf	_C3
  4381                           
  4382                           ;C:/Users/Andy Bonilla/Documents/GitHub/ED2/Proyecto1_ED2/PIC_maestro.X/main_mastre.c: 3
      +                          12:     }
  4383  046A  2C80               	goto	l125
  4384  046B                     l2348:
  4385  046B  3007               	movlw	7
  4386  046C  065B               	xorwf	_DIA,w
  4387  046D  1D03               	btfss	3,2
  4388  046E  2C70               	goto	u1331
  4389  046F  2C71               	goto	u1330
  4390  0470                     u1331:
  4391  0470  2C80               	goto	l131
  4392  0471                     u1330:
  4393  0471                     l2350:
  4394                           
  4395                           ;C:/Users/Andy Bonilla/Documents/GitHub/ED2/Proyecto1_ED2/PIC_maestro.X/main_mastre.c: 3
      +                          14:         C1 = 0x44;
  4396  0471  3044               	movlw	68
  4397  0472  00AB               	movwf	??_LECT1
  4398  0473  082B               	movf	??_LECT1,w
  4399  0474  00D7               	movwf	_C1
  4400                           
  4401                           ;C:/Users/Andy Bonilla/Documents/GitHub/ED2/Proyecto1_ED2/PIC_maestro.X/main_mastre.c: 3
      +                          15:         C2 = 0x6F;
  4402  0475  306F               	movlw	111
  4403  0476  00AB               	movwf	??_LECT1
  4404  0477  082B               	movf	??_LECT1,w
  4405  0478  00D6               	movwf	_C2
  4406                           
  4407                           ;C:/Users/Andy Bonilla/Documents/GitHub/ED2/Proyecto1_ED2/PIC_maestro.X/main_mastre.c: 3
      +                          16:         C3 = 0x6D;
  4408  0479  306D               	movlw	109
  4409  047A  00AB               	movwf	??_LECT1
  4410  047B  082B               	movf	??_LECT1,w
  4411  047C  00D5               	movwf	_C3
  4412  047D                     l2352:
  4413                           
  4414                           ;C:/Users/Andy Bonilla/Documents/GitHub/ED2/Proyecto1_ED2/PIC_maestro.X/main_mastre.c: 3
      +                          17:         CERRADO = 1;
  4415  047D  01D0               	clrf	_CERRADO
  4416  047E  0AD0               	incf	_CERRADO,f
  4417  047F  2C80               	goto	l125
  4418  0480                     l131:
  4419  0480                     l125:
  4420                           
  4421                           ;C:/Users/Andy Bonilla/Documents/GitHub/ED2/Proyecto1_ED2/PIC_maestro.X/main_mastre.c: 3
      +                          19:     if (HORA<10){
  4422  0480  300A               	movlw	10
  4423  0481  025A               	subwf	_HORA,w
  4424  0482  1803               	skipnc
  4425  0483  2C85               	goto	u1341
  4426  0484  2C86               	goto	u1340
  4427  0485                     u1341:
  4428  0485  2CAA               	goto	l2366
  4429  0486                     u1340:
  4430  0486                     l2354:
  4431                           
  4432                           ;C:/Users/Andy Bonilla/Documents/GitHub/ED2/Proyecto1_ED2/PIC_maestro.X/main_mastre.c: 3
      +                          20:         DH = 0x30;
  4433  0486  3030               	movlw	48
  4434  0487  00AB               	movwf	??_LECT1
  4435  0488  082B               	movf	??_LECT1,w
  4436  0489  00D3               	movwf	_DH
  4437  048A                     l2356:
  4438                           
  4439                           ;C:/Users/Andy Bonilla/Documents/GitHub/ED2/Proyecto1_ED2/PIC_maestro.X/main_mastre.c: 3
      +                          21:         UH = num_ascii(HORA);
  4440  048A  085A               	movf	_HORA,w
  4441  048B  120A  158A  2709  120A  118A  	fcall	_num_ascii
  4442  0490  1283               	bcf	3,5	;RP0=0, select bank0
  4443  0491  1303               	bcf	3,6	;RP1=0, select bank0
  4444  0492  00AB               	movwf	??_LECT1
  4445  0493  082B               	movf	??_LECT1,w
  4446  0494  00D4               	movwf	_UH
  4447  0495                     l2358:
  4448                           
  4449                           ;C:/Users/Andy Bonilla/Documents/GitHub/ED2/Proyecto1_ED2/PIC_maestro.X/main_mastre.c: 3
      +                          22:         if (HORA<7){
  4450  0495  3007               	movlw	7
  4451  0496  025A               	subwf	_HORA,w
  4452  0497  1803               	skipnc
  4453  0498  2C9A               	goto	u1351
  4454  0499  2C9B               	goto	u1350
  4455  049A                     u1351:
  4456  049A  2CA0               	goto	l138
  4457  049B                     u1350:
  4458  049B                     l2360:
  4459                           
  4460                           ;C:/Users/Andy Bonilla/Documents/GitHub/ED2/Proyecto1_ED2/PIC_maestro.X/main_mastre.c: 3
      +                          23:             PORTDbits.RD0 = 1;
  4461  049B  1408               	bsf	8,0	;volatile
  4462                           
  4463                           ;C:/Users/Andy Bonilla/Documents/GitHub/ED2/Proyecto1_ED2/PIC_maestro.X/main_mastre.c: 3
      +                          24:             PORTDbits.RD1 = 1;
  4464  049C  1488               	bsf	8,1	;volatile
  4465                           
  4466                           ;C:/Users/Andy Bonilla/Documents/GitHub/ED2/Proyecto1_ED2/PIC_maestro.X/main_mastre.c: 3
      +                          25:             CERRADO = 1;
  4467  049D  01D0               	clrf	_CERRADO
  4468  049E  0AD0               	incf	_CERRADO,f
  4469                           
  4470                           ;C:/Users/Andy Bonilla/Documents/GitHub/ED2/Proyecto1_ED2/PIC_maestro.X/main_mastre.c: 3
      +                          26:         }
  4471  049F  2CFD               	goto	l2400
  4472  04A0                     l138:	
  4473                           ;C:/Users/Andy Bonilla/Documents/GitHub/ED2/Proyecto1_ED2/PIC_maestro.X/main_mastre.c: 3
      +                          27:         else{
  4474                           
  4475                           
  4476                           ;C:/Users/Andy Bonilla/Documents/GitHub/ED2/Proyecto1_ED2/PIC_maestro.X/main_mastre.c: 3
      +                          28:             PORTDbits.RD0 = 0;
  4477  04A0  1008               	bcf	8,0	;volatile
  4478                           
  4479                           ;C:/Users/Andy Bonilla/Documents/GitHub/ED2/Proyecto1_ED2/PIC_maestro.X/main_mastre.c: 3
      +                          29:             PORTDbits.RD1 = 0;
  4480  04A1  1088               	bcf	8,1	;volatile
  4481  04A2                     l2362:
  4482                           
  4483                           ;C:/Users/Andy Bonilla/Documents/GitHub/ED2/Proyecto1_ED2/PIC_maestro.X/main_mastre.c: 3
      +                          30:             if (DIA!=7){
  4484  04A2  3007               	movlw	7
  4485  04A3  065B               	xorwf	_DIA,w
  4486  04A4  1903               	btfsc	3,2
  4487  04A5  2CA7               	goto	u1361
  4488  04A6  2CA8               	goto	u1360
  4489  04A7                     u1361:
  4490  04A7  2CFD               	goto	l2400
  4491  04A8                     u1360:
  4492  04A8                     l2364:
  4493                           
  4494                           ;C:/Users/Andy Bonilla/Documents/GitHub/ED2/Proyecto1_ED2/PIC_maestro.X/main_mastre.c: 3
      +                          31:                 CERRADO = 0;
  4495  04A8  01D0               	clrf	_CERRADO
  4496  04A9  2CFD               	goto	l2400
  4497  04AA                     l2366:
  4498  04AA  301A               	movlw	26
  4499  04AB  025A               	subwf	_HORA,w
  4500  04AC  1803               	skipnc
  4501  04AD  2CAF               	goto	u1371
  4502  04AE  2CB0               	goto	u1370
  4503  04AF                     u1371:
  4504  04AF  2CD7               	goto	l2382
  4505  04B0                     u1370:
  4506  04B0                     l2368:
  4507                           
  4508                           ;C:/Users/Andy Bonilla/Documents/GitHub/ED2/Proyecto1_ED2/PIC_maestro.X/main_mastre.c: 3
      +                          36:         DH = 0x31;
  4509  04B0  3031               	movlw	49
  4510  04B1  00AB               	movwf	??_LECT1
  4511  04B2  082B               	movf	??_LECT1,w
  4512  04B3  00D3               	movwf	_DH
  4513  04B4                     l2370:
  4514                           
  4515                           ;C:/Users/Andy Bonilla/Documents/GitHub/ED2/Proyecto1_ED2/PIC_maestro.X/main_mastre.c: 3
      +                          37:         con = HORA-16;
  4516  04B4  085A               	movf	_HORA,w
  4517  04B5  3EF0               	addlw	240
  4518  04B6  00AB               	movwf	??_LECT1
  4519  04B7  082B               	movf	??_LECT1,w
  4520  04B8  00CF               	movwf	_con
  4521  04B9                     l2372:
  4522                           
  4523                           ;C:/Users/Andy Bonilla/Documents/GitHub/ED2/Proyecto1_ED2/PIC_maestro.X/main_mastre.c: 3
      +                          38:         UH = num_ascii(con);
  4524  04B9  084F               	movf	_con,w
  4525  04BA  120A  158A  2709  120A  118A  	fcall	_num_ascii
  4526  04BF  1283               	bcf	3,5	;RP0=0, select bank0
  4527  04C0  1303               	bcf	3,6	;RP1=0, select bank0
  4528  04C1  00AB               	movwf	??_LECT1
  4529  04C2  082B               	movf	??_LECT1,w
  4530  04C3  00D4               	movwf	_UH
  4531  04C4                     l2374:
  4532                           
  4533                           ;C:/Users/Andy Bonilla/Documents/GitHub/ED2/Proyecto1_ED2/PIC_maestro.X/main_mastre.c: 3
      +                          39:         if (DIA!=7){
  4534  04C4  3007               	movlw	7
  4535  04C5  065B               	xorwf	_DIA,w
  4536  04C6  1903               	btfsc	3,2
  4537  04C7  2CC9               	goto	u1381
  4538  04C8  2CCA               	goto	u1380
  4539  04C9                     u1381:
  4540  04C9  2CCB               	goto	l2378
  4541  04CA                     u1380:
  4542  04CA                     l2376:
  4543                           
  4544                           ;C:/Users/Andy Bonilla/Documents/GitHub/ED2/Proyecto1_ED2/PIC_maestro.X/main_mastre.c: 3
      +                          40:             CERRADO = 0;
  4545  04CA  01D0               	clrf	_CERRADO
  4546  04CB                     l2378:
  4547                           
  4548                           ;C:/Users/Andy Bonilla/Documents/GitHub/ED2/Proyecto1_ED2/PIC_maestro.X/main_mastre.c: 3
      +                          42:         if (con>7){
  4549  04CB  3008               	movlw	8
  4550  04CC  024F               	subwf	_con,w
  4551  04CD  1C03               	skipc
  4552  04CE  2CD0               	goto	u1391
  4553  04CF  2CD1               	goto	u1390
  4554  04D0                     u1391:
  4555  04D0  2CD4               	goto	l144
  4556  04D1                     u1390:
  4557  04D1                     l2380:
  4558                           
  4559                           ;C:/Users/Andy Bonilla/Documents/GitHub/ED2/Proyecto1_ED2/PIC_maestro.X/main_mastre.c: 3
      +                          43:             PORTDbits.RD0 = 1;
  4560  04D1  1408               	bsf	8,0	;volatile
  4561                           
  4562                           ;C:/Users/Andy Bonilla/Documents/GitHub/ED2/Proyecto1_ED2/PIC_maestro.X/main_mastre.c: 3
      +                          44:             PORTDbits.RD1 = 1;
  4563  04D2  1488               	bsf	8,1	;volatile
  4564                           
  4565                           ;C:/Users/Andy Bonilla/Documents/GitHub/ED2/Proyecto1_ED2/PIC_maestro.X/main_mastre.c: 3
      +                          45:         }
  4566  04D3  2CFD               	goto	l2400
  4567  04D4                     l144:	
  4568                           ;C:/Users/Andy Bonilla/Documents/GitHub/ED2/Proyecto1_ED2/PIC_maestro.X/main_mastre.c: 3
      +                          46:         else{
  4569                           
  4570                           
  4571                           ;C:/Users/Andy Bonilla/Documents/GitHub/ED2/Proyecto1_ED2/PIC_maestro.X/main_mastre.c: 3
      +                          47:             PORTDbits.RD0 = 0;
  4572  04D4  1008               	bcf	8,0	;volatile
  4573                           
  4574                           ;C:/Users/Andy Bonilla/Documents/GitHub/ED2/Proyecto1_ED2/PIC_maestro.X/main_mastre.c: 3
      +                          48:             PORTDbits.RD1 = 0;
  4575  04D5  1088               	bcf	8,1	;volatile
  4576  04D6  2CFD               	goto	l2400
  4577  04D7                     l2382:
  4578                           
  4579                           ;C:/Users/Andy Bonilla/Documents/GitHub/ED2/Proyecto1_ED2/PIC_maestro.X/main_mastre.c: 3
      +                          52:         DH = 0x32;
  4580  04D7  3032               	movlw	50
  4581  04D8  00AB               	movwf	??_LECT1
  4582  04D9  082B               	movf	??_LECT1,w
  4583  04DA  00D3               	movwf	_DH
  4584  04DB                     l2384:
  4585                           
  4586                           ;C:/Users/Andy Bonilla/Documents/GitHub/ED2/Proyecto1_ED2/PIC_maestro.X/main_mastre.c: 3
      +                          53:         con = HORA-32;
  4587  04DB  085A               	movf	_HORA,w
  4588  04DC  3EE0               	addlw	224
  4589  04DD  00AB               	movwf	??_LECT1
  4590  04DE  082B               	movf	??_LECT1,w
  4591  04DF  00CF               	movwf	_con
  4592  04E0                     l2386:
  4593                           
  4594                           ;C:/Users/Andy Bonilla/Documents/GitHub/ED2/Proyecto1_ED2/PIC_maestro.X/main_mastre.c: 3
      +                          54:         UH = num_ascii(con);
  4595  04E0  084F               	movf	_con,w
  4596  04E1  120A  158A  2709  120A  118A  	fcall	_num_ascii
  4597  04E6  1283               	bcf	3,5	;RP0=0, select bank0
  4598  04E7  1303               	bcf	3,6	;RP1=0, select bank0
  4599  04E8  00AB               	movwf	??_LECT1
  4600  04E9  082B               	movf	??_LECT1,w
  4601  04EA  00D4               	movwf	_UH
  4602  04EB                     l2388:
  4603                           
  4604                           ;C:/Users/Andy Bonilla/Documents/GitHub/ED2/Proyecto1_ED2/PIC_maestro.X/main_mastre.c: 3
      +                          55:         PORTDbits.RD0 = 1;
  4605  04EB  1408               	bsf	8,0	;volatile
  4606  04EC                     l2390:
  4607                           
  4608                           ;C:/Users/Andy Bonilla/Documents/GitHub/ED2/Proyecto1_ED2/PIC_maestro.X/main_mastre.c: 3
      +                          56:         PORTDbits.RD1 = 1;
  4609  04EC  1488               	bsf	8,1	;volatile
  4610  04ED                     l2392:
  4611                           
  4612                           ;C:/Users/Andy Bonilla/Documents/GitHub/ED2/Proyecto1_ED2/PIC_maestro.X/main_mastre.c: 3
      +                          57:         if (con>1){
  4613  04ED  3002               	movlw	2
  4614  04EE  024F               	subwf	_con,w
  4615  04EF  1C03               	skipc
  4616  04F0  2CF2               	goto	u1401
  4617  04F1  2CF3               	goto	u1400
  4618  04F2                     u1401:
  4619  04F2  2CF6               	goto	l2396
  4620  04F3                     u1400:
  4621  04F3                     l2394:
  4622                           
  4623                           ;C:/Users/Andy Bonilla/Documents/GitHub/ED2/Proyecto1_ED2/PIC_maestro.X/main_mastre.c: 3
      +                          58:             CERRADO = 1;
  4624  04F3  01D0               	clrf	_CERRADO
  4625  04F4  0AD0               	incf	_CERRADO,f
  4626                           
  4627                           ;C:/Users/Andy Bonilla/Documents/GitHub/ED2/Proyecto1_ED2/PIC_maestro.X/main_mastre.c: 3
      +                          59:         }
  4628  04F5  2CFD               	goto	l2400
  4629  04F6                     l2396:
  4630                           
  4631                           ;C:/Users/Andy Bonilla/Documents/GitHub/ED2/Proyecto1_ED2/PIC_maestro.X/main_mastre.c: 3
      +                          61:             if (DIA!=7){
  4632  04F6  3007               	movlw	7
  4633  04F7  065B               	xorwf	_DIA,w
  4634  04F8  1903               	btfsc	3,2
  4635  04F9  2CFB               	goto	u1411
  4636  04FA  2CFC               	goto	u1410
  4637  04FB                     u1411:
  4638  04FB  2CFD               	goto	l2400
  4639  04FC                     u1410:
  4640  04FC  2CA8               	goto	l2364
  4641  04FD                     l2400:
  4642                           
  4643                           ;C:/Users/Andy Bonilla/Documents/GitHub/ED2/Proyecto1_ED2/PIC_maestro.X/main_mastre.c: 3
      +                          66:     if (MIN<10){
  4644  04FD  300A               	movlw	10
  4645  04FE  0259               	subwf	_MIN,w
  4646  04FF  1803               	skipnc
  4647  0500  2D02               	goto	u1421
  4648  0501  2D03               	goto	u1420
  4649  0502                     u1421:
  4650  0502  2D13               	goto	l2406
  4651  0503                     u1420:
  4652  0503                     l2402:
  4653                           
  4654                           ;C:/Users/Andy Bonilla/Documents/GitHub/ED2/Proyecto1_ED2/PIC_maestro.X/main_mastre.c: 3
      +                          67:         DM = 0x30;
  4655  0503  3030               	movlw	48
  4656  0504  00AB               	movwf	??_LECT1
  4657  0505  082B               	movf	??_LECT1,w
  4658  0506  00D1               	movwf	_DM
  4659  0507                     l2404:
  4660                           
  4661                           ;C:/Users/Andy Bonilla/Documents/GitHub/ED2/Proyecto1_ED2/PIC_maestro.X/main_mastre.c: 3
      +                          68:         UM = num_ascii(MIN);
  4662  0507  0859               	movf	_MIN,w
  4663  0508  120A  158A  2709  120A  118A  	fcall	_num_ascii
  4664  050D  1283               	bcf	3,5	;RP0=0, select bank0
  4665  050E  1303               	bcf	3,6	;RP1=0, select bank0
  4666  050F  00AB               	movwf	??_LECT1
  4667  0510  082B               	movf	??_LECT1,w
  4668  0511  00D2               	movwf	_UM
  4669                           
  4670                           ;C:/Users/Andy Bonilla/Documents/GitHub/ED2/Proyecto1_ED2/PIC_maestro.X/main_mastre.c: 3
      +                          69:     }
  4671  0512  2D9A               	goto	l161
  4672  0513                     l2406:
  4673  0513  301A               	movlw	26
  4674  0514  0259               	subwf	_MIN,w
  4675  0515  1803               	skipnc
  4676  0516  2D18               	goto	u1431
  4677  0517  2D19               	goto	u1430
  4678  0518                     u1431:
  4679  0518  2D2E               	goto	l2414
  4680  0519                     u1430:
  4681  0519                     l2408:
  4682                           
  4683                           ;C:/Users/Andy Bonilla/Documents/GitHub/ED2/Proyecto1_ED2/PIC_maestro.X/main_mastre.c: 3
      +                          71:         DM = 0x31;
  4684  0519  3031               	movlw	49
  4685  051A  00AB               	movwf	??_LECT1
  4686  051B  082B               	movf	??_LECT1,w
  4687  051C  00D1               	movwf	_DM
  4688  051D                     l2410:
  4689                           
  4690                           ;C:/Users/Andy Bonilla/Documents/GitHub/ED2/Proyecto1_ED2/PIC_maestro.X/main_mastre.c: 3
      +                          72:         con = MIN-16;
  4691  051D  0859               	movf	_MIN,w
  4692  051E  3EF0               	addlw	240
  4693  051F  00AB               	movwf	??_LECT1
  4694  0520  082B               	movf	??_LECT1,w
  4695  0521  00CF               	movwf	_con
  4696  0522                     l2412:
  4697                           
  4698                           ;C:/Users/Andy Bonilla/Documents/GitHub/ED2/Proyecto1_ED2/PIC_maestro.X/main_mastre.c: 3
      +                          73:         UM = num_ascii(con);
  4699  0522  084F               	movf	_con,w
  4700  0523  120A  158A  2709  120A  118A  	fcall	_num_ascii
  4701  0528  1283               	bcf	3,5	;RP0=0, select bank0
  4702  0529  1303               	bcf	3,6	;RP1=0, select bank0
  4703  052A  00AB               	movwf	??_LECT1
  4704  052B  082B               	movf	??_LECT1,w
  4705  052C  00D2               	movwf	_UM
  4706                           
  4707                           ;C:/Users/Andy Bonilla/Documents/GitHub/ED2/Proyecto1_ED2/PIC_maestro.X/main_mastre.c: 3
      +                          74:     }
  4708  052D  2D9A               	goto	l161
  4709  052E                     l2414:
  4710  052E  302A               	movlw	42
  4711  052F  0259               	subwf	_MIN,w
  4712  0530  1803               	skipnc
  4713  0531  2D33               	goto	u1441
  4714  0532  2D34               	goto	u1440
  4715  0533                     u1441:
  4716  0533  2D49               	goto	l2422
  4717  0534                     u1440:
  4718  0534                     l2416:
  4719                           
  4720                           ;C:/Users/Andy Bonilla/Documents/GitHub/ED2/Proyecto1_ED2/PIC_maestro.X/main_mastre.c: 3
      +                          76:         DM = 0x32;
  4721  0534  3032               	movlw	50
  4722  0535  00AB               	movwf	??_LECT1
  4723  0536  082B               	movf	??_LECT1,w
  4724  0537  00D1               	movwf	_DM
  4725  0538                     l2418:
  4726                           
  4727                           ;C:/Users/Andy Bonilla/Documents/GitHub/ED2/Proyecto1_ED2/PIC_maestro.X/main_mastre.c: 3
      +                          77:         con = MIN-32;
  4728  0538  0859               	movf	_MIN,w
  4729  0539  3EE0               	addlw	224
  4730  053A  00AB               	movwf	??_LECT1
  4731  053B  082B               	movf	??_LECT1,w
  4732  053C  00CF               	movwf	_con
  4733  053D                     l2420:
  4734                           
  4735                           ;C:/Users/Andy Bonilla/Documents/GitHub/ED2/Proyecto1_ED2/PIC_maestro.X/main_mastre.c: 3
      +                          78:         UM = num_ascii(con);
  4736  053D  084F               	movf	_con,w
  4737  053E  120A  158A  2709  120A  118A  	fcall	_num_ascii
  4738  0543  1283               	bcf	3,5	;RP0=0, select bank0
  4739  0544  1303               	bcf	3,6	;RP1=0, select bank0
  4740  0545  00AB               	movwf	??_LECT1
  4741  0546  082B               	movf	??_LECT1,w
  4742  0547  00D2               	movwf	_UM
  4743                           
  4744                           ;C:/Users/Andy Bonilla/Documents/GitHub/ED2/Proyecto1_ED2/PIC_maestro.X/main_mastre.c: 3
      +                          79:     }
  4745  0548  2D9A               	goto	l161
  4746  0549                     l2422:
  4747  0549  303A               	movlw	58
  4748  054A  0259               	subwf	_MIN,w
  4749  054B  1803               	skipnc
  4750  054C  2D4E               	goto	u1451
  4751  054D  2D4F               	goto	u1450
  4752  054E                     u1451:
  4753  054E  2D64               	goto	l2430
  4754  054F                     u1450:
  4755  054F                     l2424:
  4756                           
  4757                           ;C:/Users/Andy Bonilla/Documents/GitHub/ED2/Proyecto1_ED2/PIC_maestro.X/main_mastre.c: 3
      +                          81:         DM = 0x33;
  4758  054F  3033               	movlw	51
  4759  0550  00AB               	movwf	??_LECT1
  4760  0551  082B               	movf	??_LECT1,w
  4761  0552  00D1               	movwf	_DM
  4762  0553                     l2426:
  4763                           
  4764                           ;C:/Users/Andy Bonilla/Documents/GitHub/ED2/Proyecto1_ED2/PIC_maestro.X/main_mastre.c: 3
      +                          82:         con = MIN-32-16;
  4765  0553  0859               	movf	_MIN,w
  4766  0554  3ED0               	addlw	208
  4767  0555  00AB               	movwf	??_LECT1
  4768  0556  082B               	movf	??_LECT1,w
  4769  0557  00CF               	movwf	_con
  4770  0558                     l2428:
  4771                           
  4772                           ;C:/Users/Andy Bonilla/Documents/GitHub/ED2/Proyecto1_ED2/PIC_maestro.X/main_mastre.c: 3
      +                          83:         UM = num_ascii(con);
  4773  0558  084F               	movf	_con,w
  4774  0559  120A  158A  2709  120A  118A  	fcall	_num_ascii
  4775  055E  1283               	bcf	3,5	;RP0=0, select bank0
  4776  055F  1303               	bcf	3,6	;RP1=0, select bank0
  4777  0560  00AB               	movwf	??_LECT1
  4778  0561  082B               	movf	??_LECT1,w
  4779  0562  00D2               	movwf	_UM
  4780                           
  4781                           ;C:/Users/Andy Bonilla/Documents/GitHub/ED2/Proyecto1_ED2/PIC_maestro.X/main_mastre.c: 3
      +                          84:     }
  4782  0563  2D9A               	goto	l161
  4783  0564                     l2430:
  4784  0564  304A               	movlw	74
  4785  0565  0259               	subwf	_MIN,w
  4786  0566  1803               	skipnc
  4787  0567  2D69               	goto	u1461
  4788  0568  2D6A               	goto	u1460
  4789  0569                     u1461:
  4790  0569  2D7F               	goto	l2438
  4791  056A                     u1460:
  4792  056A                     l2432:
  4793                           
  4794                           ;C:/Users/Andy Bonilla/Documents/GitHub/ED2/Proyecto1_ED2/PIC_maestro.X/main_mastre.c: 3
      +                          86:         DM = 0x34;
  4795  056A  3034               	movlw	52
  4796  056B  00AB               	movwf	??_LECT1
  4797  056C  082B               	movf	??_LECT1,w
  4798  056D  00D1               	movwf	_DM
  4799  056E                     l2434:
  4800                           
  4801                           ;C:/Users/Andy Bonilla/Documents/GitHub/ED2/Proyecto1_ED2/PIC_maestro.X/main_mastre.c: 3
      +                          87:         con = MIN-64;
  4802  056E  0859               	movf	_MIN,w
  4803  056F  3EC0               	addlw	192
  4804  0570  00AB               	movwf	??_LECT1
  4805  0571  082B               	movf	??_LECT1,w
  4806  0572  00CF               	movwf	_con
  4807  0573                     l2436:
  4808                           
  4809                           ;C:/Users/Andy Bonilla/Documents/GitHub/ED2/Proyecto1_ED2/PIC_maestro.X/main_mastre.c: 3
      +                          88:         UM = num_ascii(con);
  4810  0573  084F               	movf	_con,w
  4811  0574  120A  158A  2709  120A  118A  	fcall	_num_ascii
  4812  0579  1283               	bcf	3,5	;RP0=0, select bank0
  4813  057A  1303               	bcf	3,6	;RP1=0, select bank0
  4814  057B  00AB               	movwf	??_LECT1
  4815  057C  082B               	movf	??_LECT1,w
  4816  057D  00D2               	movwf	_UM
  4817                           
  4818                           ;C:/Users/Andy Bonilla/Documents/GitHub/ED2/Proyecto1_ED2/PIC_maestro.X/main_mastre.c: 3
      +                          89:     }
  4819  057E  2D9A               	goto	l161
  4820  057F                     l2438:
  4821  057F  305A               	movlw	90
  4822  0580  0259               	subwf	_MIN,w
  4823  0581  1803               	skipnc
  4824  0582  2D84               	goto	u1471
  4825  0583  2D85               	goto	u1470
  4826  0584                     u1471:
  4827  0584  2D9A               	goto	l155
  4828  0585                     u1470:
  4829  0585                     l2440:
  4830                           
  4831                           ;C:/Users/Andy Bonilla/Documents/GitHub/ED2/Proyecto1_ED2/PIC_maestro.X/main_mastre.c: 3
      +                          91:         DM = 0x35;
  4832  0585  3035               	movlw	53
  4833  0586  00AB               	movwf	??_LECT1
  4834  0587  082B               	movf	??_LECT1,w
  4835  0588  00D1               	movwf	_DM
  4836  0589                     l2442:
  4837                           
  4838                           ;C:/Users/Andy Bonilla/Documents/GitHub/ED2/Proyecto1_ED2/PIC_maestro.X/main_mastre.c: 3
      +                          92:         con = MIN-64-16;
  4839  0589  0859               	movf	_MIN,w
  4840  058A  3EB0               	addlw	176
  4841  058B  00AB               	movwf	??_LECT1
  4842  058C  082B               	movf	??_LECT1,w
  4843  058D  00CF               	movwf	_con
  4844  058E                     l2444:
  4845                           
  4846                           ;C:/Users/Andy Bonilla/Documents/GitHub/ED2/Proyecto1_ED2/PIC_maestro.X/main_mastre.c: 3
      +                          93:         UM = num_ascii(con);
  4847  058E  084F               	movf	_con,w
  4848  058F  120A  158A  2709  120A  118A  	fcall	_num_ascii
  4849  0594  1283               	bcf	3,5	;RP0=0, select bank0
  4850  0595  1303               	bcf	3,6	;RP1=0, select bank0
  4851  0596  00AB               	movwf	??_LECT1
  4852  0597  082B               	movf	??_LECT1,w
  4853  0598  00D2               	movwf	_UM
  4854  0599  2D9A               	goto	l161
  4855  059A                     l155:
  4856  059A                     l161:
  4857  059A  0008               	return
  4858  059B                     __end_of_LECT1:
  4859                           
  4860                           	psect	text22
  4861  0F09                     __ptext22:	
  4862 ;; *************** function _num_ascii *****************
  4863 ;; Defined at:
  4864 ;;		line 3 in file "C:/Users/Andy Bonilla/Documents/GitHub/ED2/Proyecto1_ED2/PIC_maestro.X/ASCII.c"
  4865 ;; Parameters:    Size  Location     Type
  4866 ;;  num             1    wreg     unsigned char 
  4867 ;; Auto vars:     Size  Location     Type
  4868 ;;  num             1   10[BANK0 ] unsigned char 
  4869 ;; Return value:  Size  Location     Type
  4870 ;;                  1    wreg      unsigned char 
  4871 ;; Registers used:
  4872 ;;		wreg, fsr0l, fsr0h, status,2, status,0
  4873 ;; Tracked objects:
  4874 ;;		On entry : 0/0
  4875 ;;		On exit  : 0/0
  4876 ;;		Unchanged: 0/0
  4877 ;; Data sizes:     COMMON   BANK0   BANK1   BANK3   BANK2
  4878 ;;      Params:         0       0       0       0       0
  4879 ;;      Locals:         0       1       0       0       0
  4880 ;;      Temps:          0       2       0       0       0
  4881 ;;      Totals:         0       3       0       0       0
  4882 ;;Total ram usage:        3 bytes
  4883 ;; Hardware stack levels used: 1
  4884 ;; Hardware stack levels required when called: 3
  4885 ;; This function calls:
  4886 ;;		Nothing
  4887 ;; This function is called by:
  4888 ;;		_LECT1
  4889 ;; This function uses a non-reentrant model
  4890 ;;
  4891                           
  4892                           
  4893                           ;psect for function _num_ascii
  4894  0F09                     _num_ascii:
  4895                           
  4896                           ;incstack = 0
  4897                           ; Regs used in _num_ascii: [wreg-fsr0h+status,2+status,0]
  4898                           ;num_ascii@num stored from wreg
  4899  0F09  1283               	bcf	3,5	;RP0=0, select bank0
  4900  0F0A  1303               	bcf	3,6	;RP1=0, select bank0
  4901  0F0B  00AA               	movwf	num_ascii@num
  4902  0F0C                     l1896:
  4903                           
  4904                           ;C:/Users/Andy Bonilla/Documents/GitHub/ED2/Proyecto1_ED2/PIC_maestro.X/ASCII.c: 3: char
      +                           num_ascii(uint8_t num);C:/Users/Andy Bonilla/Documents/GitHub/ED2/Proyecto1_ED2/PIC_mae
      +                          stro.X/ASCII.c: 4: {;C:/Users/Andy Bonilla/Documents/GitHub/ED2/Proyecto1_ED2/PIC_maestr
      +                          o.X/ASCII.c: 5:  switch(num)
  4905  0F0C  2F21               	goto	l1966
  4906  0F0D                     l1898:
  4907                           
  4908                           ;C:/Users/Andy Bonilla/Documents/GitHub/ED2/Proyecto1_ED2/PIC_maestro.X/ASCII.c: 8:   re
      +                          turn 0x30;
  4909  0F0D  3030               	movlw	48
  4910  0F0E  2F49               	goto	l216
  4911  0F0F                     l1910:
  4912                           
  4913                           ;C:/Users/Andy Bonilla/Documents/GitHub/ED2/Proyecto1_ED2/PIC_maestro.X/ASCII.c: 16:   r
      +                          eturn 0x31;
  4914  0F0F  3031               	movlw	49
  4915  0F10  2F49               	goto	l216
  4916  0F11                     l1916:
  4917                           
  4918                           ;C:/Users/Andy Bonilla/Documents/GitHub/ED2/Proyecto1_ED2/PIC_maestro.X/ASCII.c: 20:   r
      +                          eturn 0x32;
  4919  0F11  3032               	movlw	50
  4920  0F12  2F49               	goto	l216
  4921  0F13                     l1922:
  4922                           
  4923                           ;C:/Users/Andy Bonilla/Documents/GitHub/ED2/Proyecto1_ED2/PIC_maestro.X/ASCII.c: 24:   r
      +                          eturn 0x33;
  4924  0F13  3033               	movlw	51
  4925  0F14  2F49               	goto	l216
  4926  0F15                     l1928:
  4927                           
  4928                           ;C:/Users/Andy Bonilla/Documents/GitHub/ED2/Proyecto1_ED2/PIC_maestro.X/ASCII.c: 28:   r
      +                          eturn 0x34;
  4929  0F15  3034               	movlw	52
  4930  0F16  2F49               	goto	l216
  4931  0F17                     l1934:
  4932                           
  4933                           ;C:/Users/Andy Bonilla/Documents/GitHub/ED2/Proyecto1_ED2/PIC_maestro.X/ASCII.c: 32:   r
      +                          eturn 0x35;
  4934  0F17  3035               	movlw	53
  4935  0F18  2F49               	goto	l216
  4936  0F19                     l1940:
  4937                           
  4938                           ;C:/Users/Andy Bonilla/Documents/GitHub/ED2/Proyecto1_ED2/PIC_maestro.X/ASCII.c: 36:   r
      +                          eturn 0x36;
  4939  0F19  3036               	movlw	54
  4940  0F1A  2F49               	goto	l216
  4941  0F1B                     l1946:
  4942                           
  4943                           ;C:/Users/Andy Bonilla/Documents/GitHub/ED2/Proyecto1_ED2/PIC_maestro.X/ASCII.c: 40:   r
      +                          eturn 0x37;
  4944  0F1B  3037               	movlw	55
  4945  0F1C  2F49               	goto	l216
  4946  0F1D                     l1952:
  4947                           
  4948                           ;C:/Users/Andy Bonilla/Documents/GitHub/ED2/Proyecto1_ED2/PIC_maestro.X/ASCII.c: 44:   r
      +                          eturn 0x38;
  4949  0F1D  3038               	movlw	56
  4950  0F1E  2F49               	goto	l216
  4951  0F1F                     l1958:
  4952                           
  4953                           ;C:/Users/Andy Bonilla/Documents/GitHub/ED2/Proyecto1_ED2/PIC_maestro.X/ASCII.c: 48:   r
      +                          eturn 0x39;
  4954  0F1F  3039               	movlw	57
  4955  0F20  2F49               	goto	l216
  4956  0F21                     l1966:
  4957  0F21  082A               	movf	num_ascii@num,w
  4958  0F22  00A8               	movwf	??_num_ascii
  4959  0F23  01A9               	clrf	??_num_ascii+1
  4960                           
  4961                           ; Switch on 2 bytes has been partitioned into a top level switch of size 1, and 1 sub-sw
      +                          itches
  4962                           ; Switch size 1, requested type "simple"
  4963                           ; Number of cases is 1, Range of values is 0 to 0
  4964                           ; switch strategies available:
  4965                           ; Name         Instructions Cycles
  4966                           ; simple_byte            4     3 (average)
  4967                           ; direct_byte           11     8 (fixed)
  4968                           ; jumptable            260     6 (fixed)
  4969                           ;	Chosen strategy is simple_byte
  4970  0F24  0829               	movf	??_num_ascii+1,w
  4971  0F25  3A00               	xorlw	0	; case 0
  4972  0F26  1903               	skipnz
  4973  0F27  2F29               	goto	l2658
  4974  0F28  2F0D               	goto	l1898
  4975  0F29                     l2658:
  4976                           
  4977                           ; Switch size 1, requested type "simple"
  4978                           ; Number of cases is 10, Range of values is 0 to 9
  4979                           ; switch strategies available:
  4980                           ; Name         Instructions Cycles
  4981                           ; simple_byte           31    16 (average)
  4982                           ; direct_byte           38     8 (fixed)
  4983                           ; jumptable            260     6 (fixed)
  4984                           ;	Chosen strategy is simple_byte
  4985  0F29  0828               	movf	??_num_ascii,w
  4986  0F2A  3A00               	xorlw	0	; case 0
  4987  0F2B  1903               	skipnz
  4988  0F2C  2F0D               	goto	l1898
  4989  0F2D  3A01               	xorlw	1	; case 1
  4990  0F2E  1903               	skipnz
  4991  0F2F  2F0F               	goto	l1910
  4992  0F30  3A03               	xorlw	3	; case 2
  4993  0F31  1903               	skipnz
  4994  0F32  2F11               	goto	l1916
  4995  0F33  3A01               	xorlw	1	; case 3
  4996  0F34  1903               	skipnz
  4997  0F35  2F13               	goto	l1922
  4998  0F36  3A07               	xorlw	7	; case 4
  4999  0F37  1903               	skipnz
  5000  0F38  2F15               	goto	l1928
  5001  0F39  3A01               	xorlw	1	; case 5
  5002  0F3A  1903               	skipnz
  5003  0F3B  2F17               	goto	l1934
  5004  0F3C  3A03               	xorlw	3	; case 6
  5005  0F3D  1903               	skipnz
  5006  0F3E  2F19               	goto	l1940
  5007  0F3F  3A01               	xorlw	1	; case 7
  5008  0F40  1903               	skipnz
  5009  0F41  2F1B               	goto	l1946
  5010  0F42  3A0F               	xorlw	15	; case 8
  5011  0F43  1903               	skipnz
  5012  0F44  2F1D               	goto	l1952
  5013  0F45  3A01               	xorlw	1	; case 9
  5014  0F46  1903               	skipnz
  5015  0F47  2F1F               	goto	l1958
  5016  0F48  2F0D               	goto	l1898
  5017  0F49                     l216:
  5018  0F49  0008               	return
  5019  0F4A                     __end_of_num_ascii:
  5020                           
  5021                           	psect	text23
  5022  0DB2                     __ptext23:	
  5023 ;; *************** function _isr *****************
  5024 ;; Defined at:
  5025 ;;		line 75 in file "C:/Users/Andy Bonilla/Documents/GitHub/ED2/Proyecto1_ED2/PIC_maestro.X/main_mastre.c"
  5026 ;; Parameters:    Size  Location     Type
  5027 ;;		None
  5028 ;; Auto vars:     Size  Location     Type
  5029 ;;		None
  5030 ;; Return value:  Size  Location     Type
  5031 ;;                  1    wreg      void 
  5032 ;; Registers used:
  5033 ;;		wreg, fsr0l, fsr0h, status,2, status,0, pclath, cstack
  5034 ;; Tracked objects:
  5035 ;;		On entry : 0/0
  5036 ;;		On exit  : 0/0
  5037 ;;		Unchanged: 0/0
  5038 ;; Data sizes:     COMMON   BANK0   BANK1   BANK3   BANK2
  5039 ;;      Params:         0       0       0       0       0
  5040 ;;      Locals:         0       0       0       0       0
  5041 ;;      Temps:          0       4       0       0       0
  5042 ;;      Totals:         0       4       0       0       0
  5043 ;;Total ram usage:        4 bytes
  5044 ;; Hardware stack levels used: 1
  5045 ;; Hardware stack levels required when called: 2
  5046 ;; This function calls:
  5047 ;;		_mandar_datos
  5048 ;; This function is called by:
  5049 ;;		Interrupt level 1
  5050 ;; This function uses a non-reentrant model
  5051 ;;
  5052                           
  5053                           
  5054                           ;psect for function _isr
  5055  0DB2                     _isr:
  5056  0DB2                     i1l2446:
  5057                           
  5058                           ;C:/Users/Andy Bonilla/Documents/GitHub/ED2/Proyecto1_ED2/PIC_maestro.X/main_mastre.c: 7
      +                          8:     if (PIR1bits.TXIF)
  5059  0DB2  1E0C               	btfss	12,4	;volatile
  5060  0DB3  2DB5               	goto	u148_21
  5061  0DB4  2DB6               	goto	u148_20
  5062  0DB5                     u148_21:
  5063  0DB5  2DC2               	goto	i1l104
  5064  0DB6                     u148_20:
  5065  0DB6                     i1l2448:
  5066                           
  5067                           ;C:/Users/Andy Bonilla/Documents/GitHub/ED2/Proyecto1_ED2/PIC_maestro.X/main_mastre.c: 7
      +                          9:     {;C:/Users/Andy Bonilla/Documents/GitHub/ED2/Proyecto1_ED2/PIC_maestro.X/main_mas
      +                          tre.c: 80:         cuenta_uart++;
  5068  0DB6  3001               	movlw	1
  5069  0DB7  00A4               	movwf	??_isr
  5070  0DB8  0824               	movf	??_isr,w
  5071  0DB9  07CD               	addwf	_cuenta_uart,f
  5072  0DBA                     i1l2450:
  5073                           
  5074                           ;C:/Users/Andy Bonilla/Documents/GitHub/ED2/Proyecto1_ED2/PIC_maestro.X/main_mastre.c: 8
      +                          1:         mandar_datos();
  5075  0DBA  120A  118A  274C  120A  158A  	fcall	_mandar_datos
  5076  0DBF                     i1l2452:
  5077                           
  5078                           ;C:/Users/Andy Bonilla/Documents/GitHub/ED2/Proyecto1_ED2/PIC_maestro.X/main_mastre.c: 8
      +                          2:         PIR1bits.TXIF=0;
  5079  0DBF  1283               	bcf	3,5	;RP0=0, select bank0
  5080  0DC0  1303               	bcf	3,6	;RP1=0, select bank0
  5081  0DC1  120C               	bcf	12,4	;volatile
  5082  0DC2                     i1l104:
  5083  0DC2  0827               	movf	??_isr+3,w
  5084  0DC3  008A               	movwf	10
  5085  0DC4  0826               	movf	??_isr+2,w
  5086  0DC5  0084               	movwf	4
  5087  0DC6  0E25               	swapf	??_isr+1,w
  5088  0DC7  0083               	movwf	3
  5089  0DC8  0EFE               	swapf	btemp,f
  5090  0DC9  0E7E               	swapf	btemp,w
  5091  0DCA  0009               	retfie
  5092  0DCB                     __end_of_isr:
  5093                           
  5094                           	psect	intentry
  5095  0004                     __pintentry:	
  5096                           ;incstack = 0
  5097                           ; Regs used in _isr: [wreg-fsr0h+status,2+status,0+pclath+cstack]
  5098                           
  5099  0004                     interrupt_function:
  5100  007E                     saved_w	set	btemp
  5101  0004  00FE               	movwf	btemp
  5102  0005  0E03               	swapf	3,w
  5103  0006  1283               	bcf	3,5	;RP0=0, select bank0
  5104  0007  1303               	bcf	3,6	;RP1=0, select bank0
  5105  0008  00A5               	movwf	??_isr+1
  5106  0009  0804               	movf	4,w
  5107  000A  00A6               	movwf	??_isr+2
  5108  000B  080A               	movf	10,w
  5109  000C  00A7               	movwf	??_isr+3
  5110  000D  120A  158A  2DB2   	ljmp	_isr
  5111                           
  5112                           	psect	text24
  5113  074C                     __ptext24:	
  5114 ;; *************** function _mandar_datos *****************
  5115 ;; Defined at:
  5116 ;;		line 397 in file "C:/Users/Andy Bonilla/Documents/GitHub/ED2/Proyecto1_ED2/PIC_maestro.X/main_mastre.c"
  5117 ;; Parameters:    Size  Location     Type
  5118 ;;		None
  5119 ;; Auto vars:     Size  Location     Type
  5120 ;;		None
  5121 ;; Return value:  Size  Location     Type
  5122 ;;                  1    wreg      void 
  5123 ;; Registers used:
  5124 ;;		wreg, fsr0l, fsr0h, status,2, status,0, pclath, cstack
  5125 ;; Tracked objects:
  5126 ;;		On entry : 0/0
  5127 ;;		On exit  : 0/0
  5128 ;;		Unchanged: 0/0
  5129 ;; Data sizes:     COMMON   BANK0   BANK1   BANK3   BANK2
  5130 ;;      Params:         0       0       0       0       0
  5131 ;;      Locals:         0       0       0       0       0
  5132 ;;      Temps:          0       2       0       0       0
  5133 ;;      Totals:         0       2       0       0       0
  5134 ;;Total ram usage:        2 bytes
  5135 ;; Hardware stack levels used: 1
  5136 ;; Hardware stack levels required when called: 1
  5137 ;; This function calls:
  5138 ;;		i1___awdiv
  5139 ;;		i1___awmod
  5140 ;; This function is called by:
  5141 ;;		_isr
  5142 ;; This function uses a non-reentrant model
  5143 ;;
  5144                           
  5145                           
  5146                           ;psect for function _mandar_datos
  5147  074C                     _mandar_datos:
  5148  074C                     i1l2162:	
  5149                           ;incstack = 0
  5150                           ; Regs used in _mandar_datos: [wreg-fsr0h+status,2+status,0+pclath+cstack]
  5151                           
  5152                           
  5153                           ;C:/Users/Andy Bonilla/Documents/GitHub/ED2/Proyecto1_ED2/PIC_maestro.X/main_mastre.c: 3
      +                          99:     switch(cuenta_uart)
  5154  074C  2F8E               	goto	i1l2178
  5155  074D                     i1l2164:
  5156                           
  5157                           ;C:/Users/Andy Bonilla/Documents/GitHub/ED2/Proyecto1_ED2/PIC_maestro.X/main_mastre.c: 4
      +                          02:             TXREG=((temperatura/10)%10+0x30);
  5158  074D  300A               	movlw	10
  5159  074E  00F9               	movwf	i1___awmod@divisor
  5160  074F  3000               	movlw	0
  5161  0750  00FA               	movwf	i1___awmod@divisor+1
  5162  0751  300A               	movlw	10
  5163  0752  00F0               	movwf	i1___awdiv@divisor
  5164  0753  3000               	movlw	0
  5165  0754  00F1               	movwf	i1___awdiv@divisor+1
  5166  0755  084E               	movf	_temperatura,w
  5167  0756  00A2               	movwf	??_mandar_datos
  5168  0757  01A3               	clrf	??_mandar_datos+1
  5169  0758  0822               	movf	??_mandar_datos,w
  5170  0759  00F2               	movwf	i1___awdiv@dividend
  5171  075A  0823               	movf	??_mandar_datos+1,w
  5172  075B  00F3               	movwf	i1___awdiv@dividend+1
  5173  075C  120A  118A  26E5  120A  118A  	fcall	i1___awdiv
  5174  0761  0871               	movf	?i1___awdiv+1,w
  5175  0762  00FC               	movwf	i1___awmod@dividend+1
  5176  0763  0870               	movf	?i1___awdiv,w
  5177  0764  00FB               	movwf	i1___awmod@dividend
  5178  0765  120A  158A  274A  120A  118A  	fcall	i1___awmod
  5179  076A  0879               	movf	?i1___awmod,w
  5180  076B  3E30               	addlw	48
  5181  076C  1283               	bcf	3,5	;RP0=0, select bank0
  5182  076D  1303               	bcf	3,6	;RP1=0, select bank0
  5183  076E  0099               	movwf	25	;volatile
  5184                           
  5185                           ;C:/Users/Andy Bonilla/Documents/GitHub/ED2/Proyecto1_ED2/PIC_maestro.X/main_mastre.c: 4
      +                          03:             break;
  5186  076F  2FAC               	goto	i1l172
  5187  0770                     i1l2166:
  5188                           
  5189                           ;C:/Users/Andy Bonilla/Documents/GitHub/ED2/Proyecto1_ED2/PIC_maestro.X/main_mastre.c: 4
      +                          05:             TXREG=((temperatura%10)+0x30);
  5190  0770  300A               	movlw	10
  5191  0771  00F9               	movwf	i1___awmod@divisor
  5192  0772  3000               	movlw	0
  5193  0773  00FA               	movwf	i1___awmod@divisor+1
  5194  0774  084E               	movf	_temperatura,w
  5195  0775  00A2               	movwf	??_mandar_datos
  5196  0776  01A3               	clrf	??_mandar_datos+1
  5197  0777  0822               	movf	??_mandar_datos,w
  5198  0778  00FB               	movwf	i1___awmod@dividend
  5199  0779  0823               	movf	??_mandar_datos+1,w
  5200  077A  00FC               	movwf	i1___awmod@dividend+1
  5201  077B  120A  158A  274A  120A  118A  	fcall	i1___awmod
  5202  0780  0879               	movf	?i1___awmod,w
  5203  0781  3E30               	addlw	48
  5204  0782  1283               	bcf	3,5	;RP0=0, select bank0
  5205  0783  1303               	bcf	3,6	;RP1=0, select bank0
  5206  0784  0099               	movwf	25	;volatile
  5207                           
  5208                           ;C:/Users/Andy Bonilla/Documents/GitHub/ED2/Proyecto1_ED2/PIC_maestro.X/main_mastre.c: 4
      +                          06:             break;
  5209  0785  2FAC               	goto	i1l172
  5210  0786                     i1l2168:
  5211                           
  5212                           ;C:/Users/Andy Bonilla/Documents/GitHub/ED2/Proyecto1_ED2/PIC_maestro.X/main_mastre.c: 4
      +                          08:             TXREG=44;
  5213  0786  302C               	movlw	44
  5214  0787  0099               	movwf	25	;volatile
  5215                           
  5216                           ;C:/Users/Andy Bonilla/Documents/GitHub/ED2/Proyecto1_ED2/PIC_maestro.X/main_mastre.c: 4
      +                          09:             break;
  5217  0788  2FAC               	goto	i1l172
  5218  0789                     i1l2170:
  5219                           
  5220                           ;C:/Users/Andy Bonilla/Documents/GitHub/ED2/Proyecto1_ED2/PIC_maestro.X/main_mastre.c: 4
      +                          11:             TXREG=NUM;
  5221  0789  085D               	movf	_NUM,w
  5222  078A  0099               	movwf	25	;volatile
  5223                           
  5224                           ;C:/Users/Andy Bonilla/Documents/GitHub/ED2/Proyecto1_ED2/PIC_maestro.X/main_mastre.c: 4
      +                          12:             break;
  5225  078B  2FAC               	goto	i1l172
  5226  078C                     i1l2174:
  5227                           
  5228                           ;C:/Users/Andy Bonilla/Documents/GitHub/ED2/Proyecto1_ED2/PIC_maestro.X/main_mastre.c: 4
      +                          17:             cuenta_uart=0;
  5229  078C  01CD               	clrf	_cuenta_uart
  5230                           
  5231                           ;C:/Users/Andy Bonilla/Documents/GitHub/ED2/Proyecto1_ED2/PIC_maestro.X/main_mastre.c: 4
      +                          18:             break;
  5232  078D  2FAC               	goto	i1l172
  5233  078E                     i1l2178:
  5234  078E  1283               	bcf	3,5	;RP0=0, select bank0
  5235  078F  1303               	bcf	3,6	;RP1=0, select bank0
  5236  0790  084D               	movf	_cuenta_uart,w
  5237  0791  00A2               	movwf	??_mandar_datos
  5238  0792  01A3               	clrf	??_mandar_datos+1
  5239                           
  5240                           ; Switch on 2 bytes has been partitioned into a top level switch of size 1, and 1 sub-sw
      +                          itches
  5241                           ; Switch size 1, requested type "simple"
  5242                           ; Number of cases is 1, Range of values is 0 to 0
  5243                           ; switch strategies available:
  5244                           ; Name         Instructions Cycles
  5245                           ; simple_byte            4     3 (average)
  5246                           ; direct_byte           11     8 (fixed)
  5247                           ; jumptable            260     6 (fixed)
  5248                           ;	Chosen strategy is simple_byte
  5249  0793  0823               	movf	??_mandar_datos+1,w
  5250  0794  3A00               	xorlw	0	; case 0
  5251  0795  1903               	skipnz
  5252  0796  2F98               	goto	i1l2660
  5253  0797  2FAC               	goto	i1l172
  5254  0798                     i1l2660:
  5255                           
  5256                           ; Switch size 1, requested type "simple"
  5257                           ; Number of cases is 6, Range of values is 1 to 20
  5258                           ; switch strategies available:
  5259                           ; Name         Instructions Cycles
  5260                           ; simple_byte           19    10 (average)
  5261                           ; direct_byte           71    11 (fixed)
  5262                           ; jumptable            263     9 (fixed)
  5263                           ;	Chosen strategy is simple_byte
  5264  0798  0822               	movf	??_mandar_datos,w
  5265  0799  3A01               	xorlw	1	; case 1
  5266  079A  1903               	skipnz
  5267  079B  2F4D               	goto	i1l2164
  5268  079C  3A03               	xorlw	3	; case 2
  5269  079D  1903               	skipnz
  5270  079E  2F70               	goto	i1l2166
  5271  079F  3A01               	xorlw	1	; case 3
  5272  07A0  1903               	skipnz
  5273  07A1  2F86               	goto	i1l2168
  5274  07A2  3A07               	xorlw	7	; case 4
  5275  07A3  1903               	skipnz
  5276  07A4  2F89               	goto	i1l2170
  5277  07A5  3A01               	xorlw	1	; case 5
  5278  07A6  1903               	skipnz
  5279  07A7  2F86               	goto	i1l2168
  5280  07A8  3A11               	xorlw	17	; case 20
  5281  07A9  1903               	skipnz
  5282  07AA  2F8C               	goto	i1l2174
  5283  07AB  2FAC               	goto	i1l172
  5284  07AC                     i1l172:
  5285  07AC  0008               	return
  5286  07AD                     __end_of_mandar_datos:
  5287                           
  5288                           	psect	text25
  5289  0F4A                     __ptext25:	
  5290 ;; *************** function i1___awmod *****************
  5291 ;; Defined at:
  5292 ;;		line 5 in file "C:\Program Files\Microchip\xc8\v2.32\pic\sources\c90\common\awmod.c"
  5293 ;; Parameters:    Size  Location     Type
  5294 ;;  divisor         2    9[COMMON] int 
  5295 ;;  dividend        2   11[COMMON] int 
  5296 ;; Auto vars:     Size  Location     Type
  5297 ;;  sign            1    1[BANK0 ] unsigned char 
  5298 ;;  counter         1    0[BANK0 ] unsigned char 
  5299 ;; Return value:  Size  Location     Type
  5300 ;;                  2    9[COMMON] int 
  5301 ;; Registers used:
  5302 ;;		wreg, status,2, status,0
  5303 ;; Tracked objects:
  5304 ;;		On entry : 0/0
  5305 ;;		On exit  : 0/0
  5306 ;;		Unchanged: 0/0
  5307 ;; Data sizes:     COMMON   BANK0   BANK1   BANK3   BANK2
  5308 ;;      Params:         4       0       0       0       0
  5309 ;;      Locals:         0       2       0       0       0
  5310 ;;      Temps:          1       0       0       0       0
  5311 ;;      Totals:         5       2       0       0       0
  5312 ;;Total ram usage:        7 bytes
  5313 ;; Hardware stack levels used: 1
  5314 ;; This function calls:
  5315 ;;		Nothing
  5316 ;; This function is called by:
  5317 ;;		_mandar_datos
  5318 ;; This function uses a non-reentrant model
  5319 ;;
  5320                           
  5321                           
  5322                           ;psect for function i1___awmod
  5323  0F4A                     i1___awmod:
  5324  0F4A                     i1l2124:	
  5325                           ;incstack = 0
  5326                           ; Regs used in i1___awmod: [wreg+status,2+status,0]
  5327                           
  5328  0F4A  1283               	bcf	3,5	;RP0=0, select bank0
  5329  0F4B  1303               	bcf	3,6	;RP1=0, select bank0
  5330  0F4C  01A1               	clrf	i1___awmod@sign
  5331  0F4D                     i1l2126:
  5332  0F4D  1FFC               	btfss	i1___awmod@dividend+1,7
  5333  0F4E  2F50               	goto	u115_21
  5334  0F4F  2F51               	goto	u115_20
  5335  0F50                     u115_21:
  5336  0F50  2F58               	goto	i1l2132
  5337  0F51                     u115_20:
  5338  0F51                     i1l2128:
  5339  0F51  09FB               	comf	i1___awmod@dividend,f
  5340  0F52  09FC               	comf	i1___awmod@dividend+1,f
  5341  0F53  0AFB               	incf	i1___awmod@dividend,f
  5342  0F54  1903               	skipnz
  5343  0F55  0AFC               	incf	i1___awmod@dividend+1,f
  5344  0F56                     i1l2130:
  5345  0F56  01A1               	clrf	i1___awmod@sign
  5346  0F57  0AA1               	incf	i1___awmod@sign,f
  5347  0F58                     i1l2132:
  5348  0F58  1FFA               	btfss	i1___awmod@divisor+1,7
  5349  0F59  2F5B               	goto	u116_21
  5350  0F5A  2F5C               	goto	u116_20
  5351  0F5B                     u116_21:
  5352  0F5B  2F61               	goto	i1l2136
  5353  0F5C                     u116_20:
  5354  0F5C                     i1l2134:
  5355  0F5C  09F9               	comf	i1___awmod@divisor,f
  5356  0F5D  09FA               	comf	i1___awmod@divisor+1,f
  5357  0F5E  0AF9               	incf	i1___awmod@divisor,f
  5358  0F5F  1903               	skipnz
  5359  0F60  0AFA               	incf	i1___awmod@divisor+1,f
  5360  0F61                     i1l2136:
  5361  0F61  0879               	movf	i1___awmod@divisor,w
  5362  0F62  047A               	iorwf	i1___awmod@divisor+1,w
  5363  0F63  1903               	btfsc	3,2
  5364  0F64  2F66               	goto	u117_21
  5365  0F65  2F67               	goto	u117_20
  5366  0F66                     u117_21:
  5367  0F66  2F96               	goto	i1l2154
  5368  0F67                     u117_20:
  5369  0F67                     i1l2138:
  5370  0F67  01A0               	clrf	i1___awmod@counter
  5371  0F68  0AA0               	incf	i1___awmod@counter,f
  5372  0F69  2F75               	goto	i1l2144
  5373  0F6A                     i1l2140:
  5374  0F6A  3001               	movlw	1
  5375  0F6B                     u118_25:
  5376  0F6B  1003               	clrc
  5377  0F6C  0DF9               	rlf	i1___awmod@divisor,f
  5378  0F6D  0DFA               	rlf	i1___awmod@divisor+1,f
  5379  0F6E  3EFF               	addlw	-1
  5380  0F6F  1D03               	skipz
  5381  0F70  2F6B               	goto	u118_25
  5382  0F71                     i1l2142:
  5383  0F71  3001               	movlw	1
  5384  0F72  00FD               	movwf	??i1___awmod
  5385  0F73  087D               	movf	??i1___awmod,w
  5386  0F74  07A0               	addwf	i1___awmod@counter,f
  5387  0F75                     i1l2144:
  5388  0F75  1FFA               	btfss	i1___awmod@divisor+1,7
  5389  0F76  2F78               	goto	u119_21
  5390  0F77  2F79               	goto	u119_20
  5391  0F78                     u119_21:
  5392  0F78  2F6A               	goto	i1l2140
  5393  0F79                     u119_20:
  5394  0F79                     i1l2146:
  5395  0F79  087A               	movf	i1___awmod@divisor+1,w
  5396  0F7A  027C               	subwf	i1___awmod@dividend+1,w
  5397  0F7B  1D03               	skipz
  5398  0F7C  2F7F               	goto	u120_25
  5399  0F7D  0879               	movf	i1___awmod@divisor,w
  5400  0F7E  027B               	subwf	i1___awmod@dividend,w
  5401  0F7F                     u120_25:
  5402  0F7F  1C03               	skipc
  5403  0F80  2F82               	goto	u120_21
  5404  0F81  2F83               	goto	u120_20
  5405  0F82                     u120_21:
  5406  0F82  2F89               	goto	i1l2150
  5407  0F83                     u120_20:
  5408  0F83                     i1l2148:
  5409  0F83  0879               	movf	i1___awmod@divisor,w
  5410  0F84  02FB               	subwf	i1___awmod@dividend,f
  5411  0F85  087A               	movf	i1___awmod@divisor+1,w
  5412  0F86  1C03               	skipc
  5413  0F87  03FC               	decf	i1___awmod@dividend+1,f
  5414  0F88  02FC               	subwf	i1___awmod@dividend+1,f
  5415  0F89                     i1l2150:
  5416  0F89  3001               	movlw	1
  5417  0F8A                     u121_25:
  5418  0F8A  1003               	clrc
  5419  0F8B  0CFA               	rrf	i1___awmod@divisor+1,f
  5420  0F8C  0CF9               	rrf	i1___awmod@divisor,f
  5421  0F8D  3EFF               	addlw	-1
  5422  0F8E  1D03               	skipz
  5423  0F8F  2F8A               	goto	u121_25
  5424  0F90                     i1l2152:
  5425  0F90  3001               	movlw	1
  5426  0F91  02A0               	subwf	i1___awmod@counter,f
  5427  0F92  1D03               	btfss	3,2
  5428  0F93  2F95               	goto	u122_21
  5429  0F94  2F96               	goto	u122_20
  5430  0F95                     u122_21:
  5431  0F95  2F79               	goto	i1l2146
  5432  0F96                     u122_20:
  5433  0F96                     i1l2154:
  5434  0F96  0821               	movf	i1___awmod@sign,w
  5435  0F97  1903               	btfsc	3,2
  5436  0F98  2F9A               	goto	u123_21
  5437  0F99  2F9B               	goto	u123_20
  5438  0F9A                     u123_21:
  5439  0F9A  2FA0               	goto	i1l2158
  5440  0F9B                     u123_20:
  5441  0F9B                     i1l2156:
  5442  0F9B  09FB               	comf	i1___awmod@dividend,f
  5443  0F9C  09FC               	comf	i1___awmod@dividend+1,f
  5444  0F9D  0AFB               	incf	i1___awmod@dividend,f
  5445  0F9E  1903               	skipnz
  5446  0F9F  0AFC               	incf	i1___awmod@dividend+1,f
  5447  0FA0                     i1l2158:
  5448  0FA0  087C               	movf	i1___awmod@dividend+1,w
  5449  0FA1  00FA               	movwf	?i1___awmod+1
  5450  0FA2  087B               	movf	i1___awmod@dividend,w
  5451  0FA3  00F9               	movwf	?i1___awmod
  5452  0FA4                     i1l558:
  5453  0FA4  0008               	return
  5454  0FA5                     __end_ofi1___awmod:
  5455                           
  5456                           	psect	text26
  5457  06E5                     __ptext26:	
  5458 ;; *************** function i1___awdiv *****************
  5459 ;; Defined at:
  5460 ;;		line 5 in file "C:\Program Files\Microchip\xc8\v2.32\pic\sources\c90\common\awdiv.c"
  5461 ;; Parameters:    Size  Location     Type
  5462 ;;  divisor         2    0[COMMON] int 
  5463 ;;  dividend        2    2[COMMON] int 
  5464 ;; Auto vars:     Size  Location     Type
  5465 ;;  quotient        2    7[COMMON] int 
  5466 ;;  sign            1    6[COMMON] unsigned char 
  5467 ;;  counter         1    5[COMMON] unsigned char 
  5468 ;; Return value:  Size  Location     Type
  5469 ;;                  2    0[COMMON] int 
  5470 ;; Registers used:
  5471 ;;		wreg, status,2, status,0
  5472 ;; Tracked objects:
  5473 ;;		On entry : 0/0
  5474 ;;		On exit  : 0/0
  5475 ;;		Unchanged: 0/0
  5476 ;; Data sizes:     COMMON   BANK0   BANK1   BANK3   BANK2
  5477 ;;      Params:         4       0       0       0       0
  5478 ;;      Locals:         4       0       0       0       0
  5479 ;;      Temps:          1       0       0       0       0
  5480 ;;      Totals:         9       0       0       0       0
  5481 ;;Total ram usage:        9 bytes
  5482 ;; Hardware stack levels used: 1
  5483 ;; This function calls:
  5484 ;;		Nothing
  5485 ;; This function is called by:
  5486 ;;		_mandar_datos
  5487 ;; This function uses a non-reentrant model
  5488 ;;
  5489                           
  5490                           
  5491                           ;psect for function i1___awdiv
  5492  06E5                     i1___awdiv:
  5493  06E5                     i1l2080:	
  5494                           ;incstack = 0
  5495                           ; Regs used in i1___awdiv: [wreg+status,2+status,0]
  5496                           
  5497  06E5  01F6               	clrf	i1___awdiv@sign
  5498  06E6                     i1l2082:
  5499  06E6  1FF1               	btfss	i1___awdiv@divisor+1,7
  5500  06E7  2EE9               	goto	u105_21
  5501  06E8  2EEA               	goto	u105_20
  5502  06E9                     u105_21:
  5503  06E9  2EF1               	goto	i1l2088
  5504  06EA                     u105_20:
  5505  06EA                     i1l2084:
  5506  06EA  09F0               	comf	i1___awdiv@divisor,f
  5507  06EB  09F1               	comf	i1___awdiv@divisor+1,f
  5508  06EC  0AF0               	incf	i1___awdiv@divisor,f
  5509  06ED  1903               	skipnz
  5510  06EE  0AF1               	incf	i1___awdiv@divisor+1,f
  5511  06EF                     i1l2086:
  5512  06EF  01F6               	clrf	i1___awdiv@sign
  5513  06F0  0AF6               	incf	i1___awdiv@sign,f
  5514  06F1                     i1l2088:
  5515  06F1  1FF3               	btfss	i1___awdiv@dividend+1,7
  5516  06F2  2EF4               	goto	u106_21
  5517  06F3  2EF5               	goto	u106_20
  5518  06F4                     u106_21:
  5519  06F4  2EFE               	goto	i1l2094
  5520  06F5                     u106_20:
  5521  06F5                     i1l2090:
  5522  06F5  09F2               	comf	i1___awdiv@dividend,f
  5523  06F6  09F3               	comf	i1___awdiv@dividend+1,f
  5524  06F7  0AF2               	incf	i1___awdiv@dividend,f
  5525  06F8  1903               	skipnz
  5526  06F9  0AF3               	incf	i1___awdiv@dividend+1,f
  5527  06FA                     i1l2092:
  5528  06FA  3001               	movlw	1
  5529  06FB  00F4               	movwf	??i1___awdiv
  5530  06FC  0874               	movf	??i1___awdiv,w
  5531  06FD  06F6               	xorwf	i1___awdiv@sign,f
  5532  06FE                     i1l2094:
  5533  06FE  01F7               	clrf	i1___awdiv@quotient
  5534  06FF  01F8               	clrf	i1___awdiv@quotient+1
  5535  0700                     i1l2096:
  5536  0700  0870               	movf	i1___awdiv@divisor,w
  5537  0701  0471               	iorwf	i1___awdiv@divisor+1,w
  5538  0702  1903               	btfsc	3,2
  5539  0703  2F05               	goto	u107_21
  5540  0704  2F06               	goto	u107_20
  5541  0705                     u107_21:
  5542  0705  2F3D               	goto	i1l2116
  5543  0706                     u107_20:
  5544  0706                     i1l2098:
  5545  0706  01F5               	clrf	i1___awdiv@counter
  5546  0707  0AF5               	incf	i1___awdiv@counter,f
  5547  0708  2F14               	goto	i1l2104
  5548  0709                     i1l2100:
  5549  0709  3001               	movlw	1
  5550  070A                     u108_25:
  5551  070A  1003               	clrc
  5552  070B  0DF0               	rlf	i1___awdiv@divisor,f
  5553  070C  0DF1               	rlf	i1___awdiv@divisor+1,f
  5554  070D  3EFF               	addlw	-1
  5555  070E  1D03               	skipz
  5556  070F  2F0A               	goto	u108_25
  5557  0710                     i1l2102:
  5558  0710  3001               	movlw	1
  5559  0711  00F4               	movwf	??i1___awdiv
  5560  0712  0874               	movf	??i1___awdiv,w
  5561  0713  07F5               	addwf	i1___awdiv@counter,f
  5562  0714                     i1l2104:
  5563  0714  1FF1               	btfss	i1___awdiv@divisor+1,7
  5564  0715  2F17               	goto	u109_21
  5565  0716  2F18               	goto	u109_20
  5566  0717                     u109_21:
  5567  0717  2F09               	goto	i1l2100
  5568  0718                     u109_20:
  5569  0718                     i1l2106:
  5570  0718  3001               	movlw	1
  5571  0719                     u110_25:
  5572  0719  1003               	clrc
  5573  071A  0DF7               	rlf	i1___awdiv@quotient,f
  5574  071B  0DF8               	rlf	i1___awdiv@quotient+1,f
  5575  071C  3EFF               	addlw	-1
  5576  071D  1D03               	skipz
  5577  071E  2F19               	goto	u110_25
  5578  071F  0871               	movf	i1___awdiv@divisor+1,w
  5579  0720  0273               	subwf	i1___awdiv@dividend+1,w
  5580  0721  1D03               	skipz
  5581  0722  2F25               	goto	u111_25
  5582  0723  0870               	movf	i1___awdiv@divisor,w
  5583  0724  0272               	subwf	i1___awdiv@dividend,w
  5584  0725                     u111_25:
  5585  0725  1C03               	skipc
  5586  0726  2F28               	goto	u111_21
  5587  0727  2F29               	goto	u111_20
  5588  0728                     u111_21:
  5589  0728  2F30               	goto	i1l2112
  5590  0729                     u111_20:
  5591  0729                     i1l2108:
  5592  0729  0870               	movf	i1___awdiv@divisor,w
  5593  072A  02F2               	subwf	i1___awdiv@dividend,f
  5594  072B  0871               	movf	i1___awdiv@divisor+1,w
  5595  072C  1C03               	skipc
  5596  072D  03F3               	decf	i1___awdiv@dividend+1,f
  5597  072E  02F3               	subwf	i1___awdiv@dividend+1,f
  5598  072F                     i1l2110:
  5599  072F  1477               	bsf	i1___awdiv@quotient,0
  5600  0730                     i1l2112:
  5601  0730  3001               	movlw	1
  5602  0731                     u112_25:
  5603  0731  1003               	clrc
  5604  0732  0CF1               	rrf	i1___awdiv@divisor+1,f
  5605  0733  0CF0               	rrf	i1___awdiv@divisor,f
  5606  0734  3EFF               	addlw	-1
  5607  0735  1D03               	skipz
  5608  0736  2F31               	goto	u112_25
  5609  0737                     i1l2114:
  5610  0737  3001               	movlw	1
  5611  0738  02F5               	subwf	i1___awdiv@counter,f
  5612  0739  1D03               	btfss	3,2
  5613  073A  2F3C               	goto	u113_21
  5614  073B  2F3D               	goto	u113_20
  5615  073C                     u113_21:
  5616  073C  2F18               	goto	i1l2106
  5617  073D                     u113_20:
  5618  073D                     i1l2116:
  5619  073D  0876               	movf	i1___awdiv@sign,w
  5620  073E  1903               	btfsc	3,2
  5621  073F  2F41               	goto	u114_21
  5622  0740  2F42               	goto	u114_20
  5623  0741                     u114_21:
  5624  0741  2F47               	goto	i1l2120
  5625  0742                     u114_20:
  5626  0742                     i1l2118:
  5627  0742  09F7               	comf	i1___awdiv@quotient,f
  5628  0743  09F8               	comf	i1___awdiv@quotient+1,f
  5629  0744  0AF7               	incf	i1___awdiv@quotient,f
  5630  0745  1903               	skipnz
  5631  0746  0AF8               	incf	i1___awdiv@quotient+1,f
  5632  0747                     i1l2120:
  5633  0747  0878               	movf	i1___awdiv@quotient+1,w
  5634  0748  00F1               	movwf	?i1___awdiv+1
  5635  0749  0877               	movf	i1___awdiv@quotient,w
  5636  074A  00F0               	movwf	?i1___awdiv
  5637  074B                     i1l545:
  5638  074B  0008               	return
  5639  074C                     __end_ofi1___awdiv:
  5640  007E                     btemp	set	126	;btemp
  5641  007E                     wtemp0	set	126
  5642                           
  5643                           	psect	config
  5644                           
  5645                           ;Config register CONFIG1 @ 0x2007
  5646                           ;	Oscillator Selection bits
  5647                           ;	FOSC = INTRC_NOCLKOUT, INTOSCIO oscillator: I/O function on RA6/OSC2/CLKOUT pin, I/O f
      +                          unction on RA7/OSC1/CLKIN
  5648                           ;	Watchdog Timer Enable bit
  5649                           ;	WDTE = OFF, WDT disabled and can be enabled by SWDTEN bit of the WDTCON register
  5650                           ;	Power-up Timer Enable bit
  5651                           ;	PWRTE = OFF, PWRT disabled
  5652                           ;	RE3/MCLR pin function select bit
  5653                           ;	MCLRE = OFF, RE3/MCLR pin function is digital input, MCLR internally tied to VDD
  5654                           ;	Code Protection bit
  5655                           ;	CP = OFF, Program memory code protection is disabled
  5656                           ;	Data Code Protection bit
  5657                           ;	CPD = OFF, Data memory code protection is disabled
  5658                           ;	Brown Out Reset Selection bits
  5659                           ;	BOREN = OFF, BOR disabled
  5660                           ;	Internal External Switchover bit
  5661                           ;	IESO = OFF, Internal/External Switchover mode is disabled
  5662                           ;	Fail-Safe Clock Monitor Enabled bit
  5663                           ;	FCMEN = OFF, Fail-Safe Clock Monitor is disabled
  5664                           ;	Low Voltage Programming Enable bit
  5665                           ;	LVP = OFF, RB3 pin has digital I/O, HV on MCLR must be used for programming
  5666                           ;	In-Circuit Debugger Mode bit
  5667                           ;	DEBUG = 0x1, unprogrammed default
  5668  2007                     	org	8199
  5669  2007  20D4               	dw	8404
  5670                           
  5671                           ;Config register CONFIG2 @ 0x2008
  5672                           ;	Brown-out Reset Selection bit
  5673                           ;	BOR4V = BOR40V, Brown-out Reset set to 4.0V
  5674                           ;	Flash Program Memory Self Write Enable bits
  5675                           ;	WRT = OFF, Write protection off
  5676  2008                     	org	8200
  5677  2008  3FFF               	dw	16383

Data Sizes:
    Strings     0
    Constant    0
    Data        0
    BSS         18
    Persistent  0
    Stack       0

Auto Spaces:
    Space          Size  Autos    Used
    COMMON           14     14      14
    BANK0            80     45      63
    BANK1            80      0       0
    BANK3            96      0       0
    BANK2            96      0       0

Pointer List with Targets:

    Lcd_Write_String@a	PTR unsigned char  size(1) Largest target is 16
		 -> conver1@temporal(BANK0[16]), conver@temporal(BANK0[16]), 

    sp__conver	PTR const unsigned char  size(1) Largest target is 16
		 -> conver@temporal(BANK0[16]), 

    sp__conver1	PTR const unsigned char  size(1) Largest target is 16
		 -> conver1@temporal(BANK0[16]), 


Critical Paths under _main in COMMON

    None.

Critical Paths under _isr in COMMON

    _mandar_datos->i1___awmod
    i1___awmod->i1___awdiv

Critical Paths under _main in BANK0

    _main->_conver1
    _setup->_I2C_Master_Init
    _I2C_Master_Init->___lldiv
    _conver1->___awmod
    ___awmod->___awdiv
    _Lcd_Write_String->_Lcd_Write_Char
    _Lcd_Write_Char->_Lcd_Port
    _Lcd_Set_Cursor->_Lcd_Cmd
    _Lcd_Init->_Lcd_Cmd
    _Lcd_Cmd->_Lcd_Port
    _LECT1->_num_ascii

Critical Paths under _isr in BANK0

    _isr->_mandar_datos
    _mandar_datos->i1___awmod

Critical Paths under _main in BANK1

    None.

Critical Paths under _isr in BANK1

    None.

Critical Paths under _main in BANK3

    None.

Critical Paths under _isr in BANK3

    None.

Critical Paths under _main in BANK2

    None.

Critical Paths under _isr in BANK2

    None.

Call Graph Tables:

 ---------------------------------------------------------------------------------
 (Depth) Function   	        Calls       Base Space   Used Autos Params    Refs
 ---------------------------------------------------------------------------------
 (0) _main                                                 2     2      0    9366
                                             43 BANK0      2     2      0
                    _I2C_Master_Read
                   _I2C_Master_Start
                    _I2C_Master_Stop
                   _I2C_Master_Write
                              _LECT1
                           _Lcd_Init
                     _Lcd_Set_Cursor
                   _Lcd_Write_String
                             _conver
                            _conver1
                              _setup
 ---------------------------------------------------------------------------------
 (1) _setup                                                2     2      0    3541
                                             30 BANK0      2     2      0
                    _I2C_Master_Init
                    _I2C_Master_Read
                   _I2C_Master_Start
                    _I2C_Master_Stop
                   _I2C_Master_Write
                         _osc_config
                        _uart_config
 ---------------------------------------------------------------------------------
 (2) _uart_config                                          0     0      0       0
 ---------------------------------------------------------------------------------
 (2) _osc_config                                           3     3      0      22
                                              8 BANK0      3     3      0
 ---------------------------------------------------------------------------------
 (2) _I2C_Master_Write                                     2     0      2    2378
                                              8 BANK0      2     0      2
                    _I2C_Master_Wait
 ---------------------------------------------------------------------------------
 (2) _I2C_Master_Stop                                      0     0      0       0
                    _I2C_Master_Wait
 ---------------------------------------------------------------------------------
 (2) _I2C_Master_Start                                     0     0      0       0
                    _I2C_Master_Wait
 ---------------------------------------------------------------------------------
 (2) _I2C_Master_Read                                      6     4      2     729
                                              8 BANK0      6     4      2
                    _I2C_Master_Wait
 ---------------------------------------------------------------------------------
 (3) _I2C_Master_Wait                                      0     0      0       0
 ---------------------------------------------------------------------------------
 (2) _I2C_Master_Init                                      8     4      4     412
                                             22 BANK0      8     4      4
                            ___lldiv
 ---------------------------------------------------------------------------------
 (3) ___lldiv                                             14     6      8     314
                                              8 BANK0     14     6      8
 ---------------------------------------------------------------------------------
 (1) _conver1                                             19    19      0    1737
                                             24 BANK0     19    19      0
                            ___awdiv
                            ___awmod
 ---------------------------------------------------------------------------------
 (2) ___awmod                                              7     3      4     800
                                             17 BANK0      7     3      4
                            ___awdiv (ARG)
 ---------------------------------------------------------------------------------
 (2) ___awdiv                                              9     5      4     552
                                              8 BANK0      9     5      4
 ---------------------------------------------------------------------------------
 (1) _conver                                              17    17      0     385
                                              8 BANK0     17    17      0
 ---------------------------------------------------------------------------------
 (1) _Lcd_Write_String                                     4     4      0     200
                                             11 BANK0      4     4      0
                     _Lcd_Write_Char
 ---------------------------------------------------------------------------------
 (2) _Lcd_Write_Char                                       2     2      0      44
                                              9 BANK0      2     2      0
                           _Lcd_Port
 ---------------------------------------------------------------------------------
 (1) _Lcd_Set_Cursor                                       4     3      1     330
                                             12 BANK0      4     3      1
                            _Lcd_Cmd
 ---------------------------------------------------------------------------------
 (1) _Lcd_Init                                             0     0      0      44
                            _Lcd_Cmd
 ---------------------------------------------------------------------------------
 (2) _Lcd_Cmd                                              3     3      0      44
                                              9 BANK0      3     3      0
                           _Lcd_Port
 ---------------------------------------------------------------------------------
 (3) _Lcd_Port                                             1     1      0      22
                                              8 BANK0      1     1      0
 ---------------------------------------------------------------------------------
 (1) _LECT1                                                1     1      0      22
                                             11 BANK0      1     1      0
                          _num_ascii
 ---------------------------------------------------------------------------------
 (2) _num_ascii                                            3     3      0      22
                                              8 BANK0      3     3      0
 ---------------------------------------------------------------------------------
 Estimated maximum stack depth 3
 ---------------------------------------------------------------------------------
 (Depth) Function   	        Calls       Base Space   Used Autos Params    Refs
 ---------------------------------------------------------------------------------
 (4) _isr                                                  4     4      0     752
                                              4 BANK0      4     4      0
                       _mandar_datos
 ---------------------------------------------------------------------------------
 (5) _mandar_datos                                         2     2      0     752
                                              2 BANK0      2     2      0
                          i1___awdiv
                          i1___awmod
 ---------------------------------------------------------------------------------
 (6) i1___awmod                                            7     3      4     400
                                              9 COMMON     5     1      4
                                              0 BANK0      2     2      0
                          i1___awdiv (ARG)
 ---------------------------------------------------------------------------------
 (6) i1___awdiv                                            9     5      4     352
                                              0 COMMON     9     5      4
 ---------------------------------------------------------------------------------
 Estimated maximum stack depth 6
 ---------------------------------------------------------------------------------

 Call Graph Graphs:

 _main (ROOT)
   _I2C_Master_Read
     _I2C_Master_Wait
   _I2C_Master_Start
     _I2C_Master_Wait
   _I2C_Master_Stop
     _I2C_Master_Wait
   _I2C_Master_Write
     _I2C_Master_Wait
   _LECT1
     _num_ascii
   _Lcd_Init
     _Lcd_Cmd
       _Lcd_Port
   _Lcd_Set_Cursor
     _Lcd_Cmd
   _Lcd_Write_String
     _Lcd_Write_Char
       _Lcd_Port
   _conver
   _conver1
     ___awdiv
     ___awmod
       ___awdiv (ARG)
   _setup
     _I2C_Master_Init
       ___lldiv
     _I2C_Master_Read
     _I2C_Master_Start
     _I2C_Master_Stop
     _I2C_Master_Write
     _osc_config
     _uart_config

 _isr (ROOT)
   _mandar_datos
     i1___awdiv
     i1___awmod
       i1___awdiv (ARG)

 Address spaces:
Name               Size   Autos  Total    Cost      Usage
BITCOMMON            E      0       0       0        0.0%
EEDATA             100      0       0       0        0.0%
NULL                 0      0       0       0        0.0%
CODE                 0      0       0       0        0.0%
COMMON               E      E       E       1      100.0%
BITSFR0              0      0       0       1        0.0%
SFR0                 0      0       0       1        0.0%
BITSFR1              0      0       0       2        0.0%
SFR1                 0      0       0       2        0.0%
STACK                0      0       0       2        0.0%
ABS                  0      0      4D       3        0.0%
BITBANK0            50      0       0       4        0.0%
BITSFR3              0      0       0       4        0.0%
SFR3                 0      0       0       4        0.0%
BANK0               50     2D      3F       5       78.8%
BITSFR2              0      0       0       5        0.0%
SFR2                 0      0       0       5        0.0%
BITBANK1            50      0       0       6        0.0%
BANK1               50      0       0       7        0.0%
BITBANK3            60      0       0       8        0.0%
BANK3               60      0       0       9        0.0%
BITBANK2            60      0       0      10        0.0%
BANK2               60      0       0      11        0.0%
DATA                 0      0      4D      12        0.0%


Microchip Technology PIC Macro Assembler V2.32 build 20210201212658 
Symbol Table                                                                                   Mon Aug 23 19:37:26 2021

                       _C1 0057                         _C2 0056                         _C3 0055  
                       _DH 0053                         _DM 0051                         _UH 0054  
                       _UM 0052               ___awdiv@sign 002E                         fsr 0004  
                      l121 0613                        l131 0480                        l115 03EC  
                      l125 0480                        l205 0E3D                        l118 07F0  
                      l216 0F49                        l144 04D4                        l161 059A  
                      l138 04A0                        l306 0DB1                        l155 059A  
                      l181 0D77                        l262 07FD                        l271 0D91  
                      l184 0E18                        l256 0F08                        l193 0E63  
                      l265 0D88                        l274 0D9B                        l259 07F1  
                      l196 0DE3                        l428 06E4                        l277 0E8B  
                      l293 0ECE                        l278 0E8E                        l199 0DFC  
                      l279 0E95                        l545 067C                        l558 0FFF  
                      _DIA 005B                        _GIE 005F                        _MIN 0059  
                      u810 06BE                        u811 06BD                        u900 0649  
                      u901 0648                        u805 06A5                        u830 06DC  
                      u750 07F7                        u831 06DB                        u815 06BA  
                      u751 07F6                        u920 065A                        u760 07FD  
                      u840 0E87                        u921 0659                        u825 06CE  
                      u761 07FC                        u841 0E86                        u770 068F  
                      u850 0EE6                        u915 064A                        u771 068E  
                      u940 066E                        u860 061B                        u941 066D  
                      u925 0656                        u861 061A                        u950 0673  
                      u870 0626                        u790 06A3                        u951 0672  
                      u935 0662                        u871 0625                        u791 06A2  
                      u855 0EE1                        _NUM 005D                        u880 0637  
                      u960 0FAC                        u881 0636                        u961 0FAB  
                      u785 0694                        u970 0FB7                        u971 0FB6  
                      u980 0FC2                        u981 0FC1                        u895 063B  
                      u995 0FC6                        _con 004F                        _isr 0DB2  
                      fsr0 0004                        indf 0000               ___awmod@sign 0037  
                     l2000 0617                       l2010 062B                       l2002 061B  
                     l2020 0641                       l2012 062F                       l2004 0620  
                     l2030 0661                       l2022 0645                       l2014 0631  
                     l2006 0622                       l2032 0668                       l2024 0649  
                     l2016 0637                       l2008 0626                       l2200 0255  
                     l2026 065A                       l2018 063A                       l2034 066E  
                     l2050 0FB3                       l2042 0FA5                       l2210 0280  
                     l2202 025A                       l2300 0E5D                       l2036 0673  
                     l2028 0660                       l2060 0FCC                       l2052 0FB7  
                     l2044 0FA8                       l2220 02B0                       l2212 028B  
                     l2204 0265                       l2310 0E1C                       l2038 0678  
                     l2070 0FEB                       l2062 0FD0                       l2054 0FBC  
                     l2046 0FAC                       l2302 059B                       l2230 02E1  
                     l2222 02BB                       l2214 0290                       l2206 0270  
                     l2400 04FD                       l2312 0E1F                       l2064 0FD4  
                     l2056 0FC2                       l2072 0FF1                       l2048 0FB1  
                     l2304 05C9                       l2240 0311                       l2232 02E6  
                     l2224 02C0                       l2216 029B                       l2208 027B  
                     l2410 051D                       l2402 0503                       l2330 0412  
                     l2322 03ED                       l2314 0E2A                       l2074 0FF6  
                     l2066 0FDE                       l2058 0FC5                       l2306 05EF  
                     l2250 033B                       l2242 0316                       l2234 02F1  
                     l2226 02CB                       l2218 02AB                       l2420 053D  
                     l2412 0522                       l2404 0507                       l2340 0445  
                     l2332 041F                       l2324 03FA                       l2316 0E32  
                     l2076 0FFB                       l2068 0FE4                       l2260 0366  
                     l2252 0346                       l2244 0321                       l2236 02F6  
                     l2228 02D6                       l2500 00EF                       l2430 0564  
                     l2422 0549                       l2414 052E                       l2406 0513  
                     l2350 0471                       l2342 044B                       l2334 0425  
                     l2326 03FF                       l2318 07AD                       l2270 0396  
                     l2262 0376                       l2254 034B                       l2246 0326  
                     l2238 0301                       l2190 023E                       l2510 011F  
                     l2502 00FF                       l2440 0585                       l2432 056A  
                     l2424 054F                       l2416 0534                       l2408 0519  
                     l2360 049B                       l2352 047D                       l2344 0458  
                     l2336 0432                       l2328 040C                       l1800 06AC  
                     l2280 03C1                       l2272 03A1                       l2264 037B  
                     l2256 0356                       l2248 0331                       l2192 024D  
                     l2184 0224                       l2520 014A                       l2512 012A  
                     l2504 0104                       l2442 0589                       l2434 056E  
                     l2426 0553                       l2418 0538                       l2370 04B4  
                     l2362 04A2                       l2354 0486                       l2346 045E  
                     l2338 0438                       l2290 0E41                       l1802 06BE  
                     l1810 06DC                       l2282 03CC                       l2274 03AC  
                     l2266 0386                       l2258 035B                       l2194 024E  
                     l2186 0233                       l2530 017A                       l2522 015A  
                     l2514 012F                       l2506 010F                       l2444 058E  
                     l2436 0573                       l2428 0558                       l2380 04D1  
                     l2372 04B9                       l2364 04A8                       l2356 048A  
                     l2348 046B                       l2292 0E46                       l1804 06CC  
                     l1820 0D97                       l2284 03DC                       l2276 03B1  
                     l2268 038B                       l2196 024F                       l2188 0239  
                     l2540 01A5                       l2532 0185                       l2524 015F  
                     l2516 013A                       l2508 0114                       l2460 003E  
                     l1910 0F0F                       l2438 057F                       l2390 04EC  
                     l2374 04C4                       l2382 04D7                       l2358 0495  
                     l2366 04AA                       l2294 0E4B                       l1806 06CD  
                     l1830 0E71                       l1814 0D80                       l1822 0D89  
                     l2286 03E1                       l2278 03BC                       l2198 0252  
                     l2550 01D5                       l2542 01B5                       l2534 018A  
                     l2526 016A                       l2518 013F                       l2470 0067  
                     l2462 0048                       l2454 0020                       l2392 04ED  
                     l2384 04DB                       l2376 04CA                       l2368 04B0  
                     l2288 0DCB                       l2296 0E52                       l1808 06D6  
                     l1832 0E7A                       l1816 0D85                       l1824 0D8E  
                     l2560 0200                       l2552 01E0                       l2544 01BA  
                     l2536 0195                       l2528 016F                       l2480 0091  
                     l2472 0071                       l2464 0052                       l2456 0025  
                     l1922 0F13                       l2394 04F3                       l2386 04E0  
                     l2378 04CB                       l2298 0E58                       l1834 0E7F  
                     l1826 0E64                       l1818 0D92                       l1850 0EA8  
                     l1842 0E99                       l2562 0210                       l2554 01E5  
                     l2546 01C5                       l2538 019A                       l2490 00C1  
                     l2482 00A1                       l2474 0076                       l2466 0057  
                     l2458 002A                       l1940 0F19                       l1916 0F11  
                     l2396 04F6                       l2388 04EB                       l1836 0E87  
                     l1828 0E69                       l1852 0EAA                       l1844 0E9A  
                     l2564 0215                       l2556 01F0                       l2548 01CA  
                     l2492 00CF                       l2484 00A6                       l2476 0081  
                     l2468 005C                       l1934 0F17                       l1790 067D  
                     l1838 0E8F                       l1854 0EB0                       l1846 0EA0  
                     l1862 0EB8                       l1870 0D9C                       l2558 01F5  
                     l2494 00D4                       l2486 00B1                       l2478 0086  
                     l1952 0F1D                       l1928 0F15                       l1784 0D75  
                     l1792 068F                       l2656 0EC0                       l1856 0EB2  
                     l1848 0EA2                       l1880 0DAD                       l1872 0DA4  
                     l2496 00DF                       l2488 00B6                       l2658 0F29  
                     l1946 0F1B                       l1794 0692                       l1890 0F05  
                     l1786 07F1                       l1858 0EB6                       l1882 0DAE  
                     l1874 0DA7                       l2498 00E4                       l1980 0E0A  
                     l1796 069F                       l1892 0F06                       l1884 0ECF  
                     l1788 07F7                       l1876 0DA9                       l1958 0F1F  
                     l1966 0F21                       l1982 0E0B                       l1974 0E00  
                     l1990 0DF0                       l1798 06A3                       l1894 0F07  
                     l1886 0ED3                       l1878 0DAC                       l1896 0F0C  
                     l1984 0E15                       l1976 0E06                       l1992 0DF1  
                     l1888 0ED6                       l1898 0F0D                       l1978 0E09  
                     l1994 0DF2                       l1986 0DE7                       l1996 0DF9  
                     l1988 0DED                       l1998 0614                       ?_isr 0070  
                     u1000 0FD4                       u1001 0FD3                       u1010 0FDE  
                     u1011 0FDD                       u1030 0FF1                       u1031 0FF0  
                     u1015 0FDA                       u1040 0FF6                       u1041 0FF5  
                     u1025 0FE5                       u1300 0438                       u1301 0437  
                     u1310 044B                       u1311 044A                       u1400 04F3  
                     u1320 045E                       u1240 0E46                       u1401 04F2  
                     u1321 045D                       u1241 0E45                       u1410 04FC  
                     u1330 0471                       u1250 0E58                       u1411 04FB  
                     u1331 0470                       u1251 0E57                       u1420 0503  
                     u1340 0486                       u1260 0E3D                       u1421 0502  
                     u1341 0485                       u1261 0E3C                       u1430 0519  
                     u1350 049B                       u1270 03FF                       u1431 0518  
                     u1351 049A                       u1271 03FE                       u1440 0534  
                     u1360 04A8                       u1280 0412                       u1441 0533  
                     u1361 04A7                       u1281 0411                       u1450 054F  
                     u1370 04B0                       u1290 0425                       u1451 054E  
                     u1371 04AF                       u1291 0424                       u1507 00AC  
                     u1460 056A                       u1380 04CA                       u1461 0569  
                     u1381 04C9                       u1517 00DA                       u1470 0585  
                     u1390 04D1                       u1471 0584                       u1391 04D0  
                     u1607 02B6                       u1527 010A                       u1617 02EC  
                     u1537 0135                       u1627 031C                       u1547 0165  
                     u1637 0351                       u1557 0190                       u1647 0381  
                     u1567 01C0                       u1657 03B7                       u1577 01EB  
                     u1497 007C                       _HORA 005A                       u1667 03E7  
                     u1587 021B                       u1677 0DF6                       u1597 0286  
                     u1687 0E11                       _PEIE 005E                       _TEMP 0058  
        ?_Lcd_Write_String 0070                       _main 0020                       btemp 007E  
                     start 0010         ??_Lcd_Write_String 002B             osc_config@freq 002A  
          __end_of_Lcd_Cmd 0E19                      ??_isr 0024            conver1@temporal 003B  
         ?_I2C_Master_Init 0036           ?_I2C_Master_Read 0028              ?_mandar_datos 0070  
         ?_I2C_Master_Wait 0070           ?_I2C_Master_Stop 0070                      ?_main 0070  
           i1___awdiv@sign 0076            __end_of___awdiv 067D            __end_of___awmod 1000  
                    _ANSEL 0188            __end_of___lldiv 06E5            ___awdiv@divisor 0028  
                    _LECT1 03ED                      i1l104 0DC2                      i1l172 07AC  
                    i1l545 074B                      i1l558 0FA4                      _PARKH 005E  
          ___awdiv@counter 002D                      _SPBRG 0099                      _PORTA 0005  
                    _PORTB 0006                      _PORTD 0008    __size_of_Lcd_Set_Cursor 0026  
                    _TRISA 0085                      _TRISB 0086                      _TRISD 0088  
                    _SSPIE 0463                      _TRISE 0089                      _SSPIF 0063  
                    _TXREG 0019            __end_of_conver1 0614             i1___awmod@sign 0021  
                    _setup 0224                      pclath 000A                      status 0003  
                    wtemp0 007E         __size_ofi1___awdiv 0067         __size_ofi1___awmod 005B  
         __end_of_Lcd_Init 0DE4           __end_of_Lcd_Port 0D78            __initialization 0013  
             __end_of_main 0224             ??_mandar_datos 0022                     ??_main 004B  
                   ?_LECT1 0070          ?_I2C_Master_Start 0070          ?_I2C_Master_Write 0028  
       ??_I2C_Master_Start 0028         ??_I2C_Master_Write 002A                     _BASURA 005C  
         ___awdiv@dividend 002A                     ?_setup 0070                     _ANSELH 0189  
                   i1l2100 0709                     u110_25 0719                     i1l2110 072F  
                   i1l2102 0710                     i1l2120 0747                     i1l2112 0730  
                   u111_20 0729                     i1l2104 0714                     u111_21 0728  
                   i1l2114 0737                     i1l2106 0718                     i1l2130 0F56  
                   i1l2108 0729                     i1l2116 073D                     i1l2140 0F6A  
                   i1l2132 0F58                     i1l2124 0F4A                     u111_25 0725  
                   i1l2118 0742                     i1l2150 0F89                     i1l2142 0F71  
                   i1l2134 0F5C                     i1l2126 0F4D                     i1l2080 06E5  
                   i1l2152 0F90                     u120_20 0F83                     i1l2144 0F75  
                   i1l2136 0F61                     i1l2128 0F51                     u120_21 0F82  
                   i1l2090 06F5                     i1l2082 06E6                     i1l2146 0F79  
                   i1l2138 0F67                     i1l2154 0F96                     i1l2170 0789  
                   i1l2162 074C                     i1l2092 06FA                     i1l2084 06EA  
                   i1l2156 0F9B                     i1l2148 0F83                     i1l2164 074D  
                   u112_25 0731                     u120_25 0F7F                     i1l2094 06FE  
                   i1l2086 06EF                     i1l2158 0FA0                     i1l2174 078C  
                   i1l2166 0770                     u113_20 073D                     i1l2096 0700  
                   i1l2088 06F1                     u105_20 06EA                     i1l2168 0786  
                   u113_21 073C                     u105_21 06E9                     i1l2098 0706  
                   i1l2178 078E                     i1l2450 0DBA                     i1l2452 0DBF  
                   u121_25 0F8A                     i1l2446 0DB2                     u114_20 0742  
                   u106_20 06F5                     u122_20 0F96                     i1l2448 0DB6  
                   u114_21 0741                     u106_21 06F4                     u122_21 0F95  
                   i1l2660 0798                     u107_20 0706                     u123_20 0F9B  
                   u115_20 0F51                     u107_21 0705                     u123_21 0F9A  
                   u115_21 0F50                     u116_20 0F5C                     u116_21 0F5B  
                   u108_25 070A                     u109_20 0718                     u117_20 0F67  
                   u109_21 0717                     u117_21 0F66                     u118_25 0F6B  
                   u119_20 0F79                     u119_21 0F78                     u148_20 0DB6  
                   u148_21 0DB5                  ??_Lcd_Cmd 0029                     _SPBRGH 009A  
  __size_of_Lcd_Write_Char 0019                     _SSPADD 0093                     _TRISC3 043B  
                   _TRISC4 043C                     _SSPCON 0014                     _SSPBUF 0013  
                ??___awdiv 002C                  ??___awmod 0035                  ??___lldiv 0030  
                   _conver 07AD           ___awdiv@quotient 002F            ___awmod@divisor 0031  
          ___awmod@counter 0036               ?_uart_config 0070                  ??_conver1 0038  
        __end_ofi1___awdiv 074C          __end_ofi1___awmod 0FA5                     saved_w 007E  
          Lcd_Set_Cursor@a 002E            Lcd_Set_Cursor@b 002C    __end_of__initialization 001C  
            __end_of_LECT1 059B             __pcstackCOMMON 0070              __end_of_setup 03ED  
                  ??_LECT1 002B             _Lcd_Set_Cursor 0E3E                  ?_Lcd_Init 0070  
                ?_Lcd_Port 0070                    ??_setup 003E                 __pbssBANK0 004D  
     __end_of_mandar_datos 07AD                 __pmaintext 0020                 __pintentry 0004  
                  ?_conver 0070  __size_of_Lcd_Write_String 0025     __end_of_Lcd_Set_Cursor 0E64  
                  _CERRADO 0050         __size_of_num_ascii 0041         i1___awdiv@dividend 0072  
               ??_Lcd_Init 002C                 ??_Lcd_Port 0028                    _SSPCON2 0091  
                  _SSPSTAT 0094             _Lcd_Write_Char 0DE4                    _Lcd_Cmd 0DFD  
       i1___awdiv@quotient 0077                    ___awdiv 0614                    ___awmod 0FA5  
                  ___lldiv 067D            __size_of_conver 0044            ?_Lcd_Set_Cursor 002C  
                  __ptext1 0224                    __ptext2 0D9C                    __ptext3 0E96  
                  __ptext4 0D92                    __ptext5 0D89                    __ptext6 0D80  
                  __ptext7 0E64                    __ptext8 07F1                    __ptext9 0ECF  
                  _conver1 059B               __size_of_isr 0019           ___awmod@dividend 0033  
     __size_of_uart_config 0016   __size_of_I2C_Master_Init 003A   __size_of_I2C_Master_Read 0032  
 __size_of_I2C_Master_Wait 000D   __size_of_I2C_Master_Stop 0009                    clrloop0 0D79  
   __end_of_Lcd_Write_Char 0DFD       end_of_initialization 001C                 _osc_config 0E96  
        __end_of_num_ascii 0F4A  __size_of_I2C_Master_Start 0009  __size_of_I2C_Master_Write 000A  
          ___lldiv@divisor 0028            ___lldiv@counter 0035                  _RCSTAbits 0018  
         I2C_Master_Init@c 0036           I2C_Master_Read@a 0028                  Lcd_Port@a 0028  
                _PORTDbits 0008                  _PORTEbits 0009                  _TRISCbits 0087  
    __size_of_mandar_datos 0061                  i1___awdiv 06E5                  i1___awmod 0F4A  
          ?_Lcd_Write_Char 0070          Lcd_Write_String@a 002E          Lcd_Write_String@i 002C  
                _TXSTAbits 0098           _Lcd_Write_String 0E19               _mandar_datos 074C  
              _BAUDCTLbits 0187             __end_of_conver 07F1        start_initialization 0013  
              __end_of_isr 0DCB                 ?i1___awdiv 0070                 ?i1___awmod 0079  
        __size_of_Lcd_Init 0019          __size_of_Lcd_Port 0006          ??_I2C_Master_Init 003A  
        ??_I2C_Master_Read 002A          ??_I2C_Master_Wait 0028          ??_I2C_Master_Stop 0028  
              ?_osc_config 0070                   ??_conver 0028         i1___awmod@dividend 007B  
          Lcd_Write_Char@a 002A                  ___latbits 0002              __pcstackBANK0 0020  
                 ?_Lcd_Cmd 0070           _I2C_Master_Start 0D80           _I2C_Master_Write 0D92  
         ??_Lcd_Set_Cursor 002D                   ?___awdiv 0028                   ?___awmod 0031  
                 ?___lldiv 0028          i1___awdiv@divisor 0070          i1___awdiv@counter 0075  
                 ?_conver1 0070             __size_of_LECT1 01AE        __size_of_osc_config 0039  
           conver@temporal 0029                ??i1___awdiv 0074                ??i1___awmod 007D  
           __size_of_setup 01C9          interrupt_function 0004                  clear_ram0 0D78  
                 _PIE1bits 008C                   Lcd_Cmd@a 002B                   _PIR1bits 000C  
                _num_ascii 0F09              ??_uart_config 0028           ??_Lcd_Write_Char 0029  
                 _Lcd_Init 0DCB                   _Lcd_Port 0D72                _cuenta_uart 004D  
      I2C_Master_Read@temp 002C   __end_of_Lcd_Write_String 0E3E           __size_of_Lcd_Cmd 001C  
               ?_num_ascii 0070          i1___awmod@divisor 0079          i1___awmod@counter 0020  
         __size_of___awdiv 0069           __size_of___awmod 005B           __size_of___lldiv 0068  
         __size_of_conver1 0079            _I2C_Master_Init 0ECF            _I2C_Master_Read 0E64  
          _I2C_Master_Wait 07F1            _I2C_Master_Stop 0D89                   __ptext10 067D  
                 __ptext11 059B                   __ptext20 0D72                   __ptext12 0FA5  
                 __ptext21 03ED                   __ptext13 0614                   __ptext22 0F09  
                 __ptext14 07AD                   __ptext23 0DB2                   __ptext15 0E19  
                 __ptext24 074C                   __ptext16 0DE4                   __ptext25 0F4A  
                 __ptext17 0E3E                   __ptext26 06E5                   __ptext18 0DCB  
                 __ptext19 0DFD        __end_of_uart_config 0DB2               ??_osc_config 0028  
            __size_of_main 0204   __end_of_I2C_Master_Start 0D89   __end_of_I2C_Master_Write 0D9C  
               _INTCONbits 000B         __end_of_osc_config 0ECF                   intlevel1 0000  
         ___lldiv@dividend 002C               num_ascii@num 002A                 _OSCCONbits 008F  
              ??_num_ascii 0028    __end_of_I2C_Master_Init 0F09    __end_of_I2C_Master_Read 0E96  
  __end_of_I2C_Master_Wait 07FE    __end_of_I2C_Master_Stop 0D92         Lcd_Set_Cursor@temp 002F  
              _temperatura 004E                _uart_config 0D9C           ___lldiv@quotient 0031  
        I2C_Master_Write@d 0028                _SSPCON2bits 0091  
